
F:/HiFive-IoT/Workspace/sifive-hifive1-revb-hello/src/debug/hello.elf:     file format elf32-littleriscv
F:/HiFive-IoT/Workspace/sifive-hifive1-revb-hello/src/debug/hello.elf
architecture: riscv:rv32, flags 0x00000112:
EXEC_P, HAS_SYMS, D_PAGED
start address 0x20010000

Program Header:
    LOAD off    0x00001000 vaddr 0x20010000 paddr 0x20010000 align 2**12
         filesz 0x000071e8 memsz 0x000071e8 flags rwx
    LOAD off    0x00009000 vaddr 0x80000000 paddr 0x200171e8 align 2**12
         filesz 0x0000080c memsz 0x0000080c flags rw-
    LOAD off    0x0000980c vaddr 0x00000000 paddr 0x00000000 align 2**12
         filesz 0x00000000 memsz 0x00000000 flags ---
    NULL off    0x00000000 vaddr 0x80000810 paddr 0x80000810 align 2**3
         filesz 0x00000000 memsz 0x000008bc flags rw-
    NULL off    0x00000000 vaddr 0x00000000 paddr 0x00000000 align 2**2
         filesz 0x00000000 memsz 0x00000000 flags ---

Sections:
Idx Name              Size      VMA       LMA       File off  Algn  Flags
  0 .init             00000178  20010000  20010000  00001000  2**0  CONTENTS, ALLOC, LOAD, READONLY, CODE
  1 .text             00006216  20010180  20010180  00001180  2**7  CONTENTS, ALLOC, LOAD, READONLY, CODE
  2 .rodata           00000e40  20016398  20016398  00007398  2**2  CONTENTS, ALLOC, LOAD, READONLY, DATA
  3 .init_array       00000010  200171d8  200171d8  000081d8  2**2  CONTENTS, ALLOC, LOAD, DATA
  4 .litimalign       00000000  200171e8  200171e8  0000980c  2**0  CONTENTS
  5 .ditimalign       00000000  80000000  80000000  0000980c  2**0  CONTENTS
  6 .lalign           00000000  200171e8  200171e8  0000980c  2**0  CONTENTS
  7 .dalign           00000000  80000000  80000000  0000980c  2**0  CONTENTS
  8 .data             0000080c  80000000  200171e8  00009000  2**3  CONTENTS, ALLOC, LOAD, DATA
  9 .bss              000000bc  80000810  80000810  00000000  2**3  ALLOC
 10 .stack            00000400  800008cc  800008cc  00000000  2**0  ALLOC
 11 .heap             00000400  80000ccc  80000ccc  00000000  2**0  ALLOC
 12 .debug_info       00023c89  00000000  00000000  0000980c  2**0  CONTENTS, READONLY, DEBUGGING
 13 .debug_abbrev     0000470c  00000000  00000000  0002d495  2**0  CONTENTS, READONLY, DEBUGGING
 14 .debug_aranges    00000a78  00000000  00000000  00031ba8  2**3  CONTENTS, READONLY, DEBUGGING
 15 .debug_ranges     00000a08  00000000  00000000  00032620  2**3  CONTENTS, READONLY, DEBUGGING
 16 .debug_line       0000e5da  00000000  00000000  00033028  2**0  CONTENTS, READONLY, DEBUGGING
 17 .debug_str        00004374  00000000  00000000  00041602  2**0  CONTENTS, READONLY, DEBUGGING
 18 .comment          00000028  00000000  00000000  00045976  2**0  CONTENTS, READONLY
 19 .riscv.attributes 00000029  00000000  00000000  0004599e  2**0  CONTENTS, READONLY
 20 .debug_frame      00002004  00000000  00000000  000459c8  2**2  CONTENTS, READONLY, DEBUGGING
 21 .debug_loc        00001539  00000000  00000000  000479cc  2**0  CONTENTS, READONLY, DEBUGGING
SYMBOL TABLE:
20010000 l    d  .init	00000000 .init
20010180 l    d  .text	00000000 .text
20016398 l    d  .rodata	00000000 .rodata
200171d8 l    d  .init_array	00000000 .init_array
200171e8 l    d  .litimalign	00000000 .litimalign
80000000 l    d  .ditimalign	00000000 .ditimalign
200171e8 l    d  .lalign	00000000 .lalign
80000000 l    d  .dalign	00000000 .dalign
80000000 l    d  .data	00000000 .data
80000810 l    d  .bss	00000000 .bss
800008cc l    d  .stack	00000000 .stack
80000ccc l    d  .heap	00000000 .heap
00000000 l    d  .debug_info	00000000 .debug_info
00000000 l    d  .debug_abbrev	00000000 .debug_abbrev
00000000 l    d  .debug_aranges	00000000 .debug_aranges
00000000 l    d  .debug_ranges	00000000 .debug_ranges
00000000 l    d  .debug_line	00000000 .debug_line
00000000 l    d  .debug_str	00000000 .debug_str
00000000 l    d  .comment	00000000 .comment
00000000 l    d  .riscv.attributes	00000000 .riscv.attributes
00000000 l    d  .debug_frame	00000000 .debug_frame
00000000 l    d  .debug_loc	00000000 .debug_loc
00000000 l    df *ABS*	00000000 libriscv__mmachine___a-entry.o
20012298 l       .text	00000000 early_trap_vector
00000000 l    df *ABS*	00000000 crt0.o
20010118 l       .init	00000000 _skip_init
200170c4 l       .rodata	00000000 argv
200170c8 l       .rodata	00000000 envp
200170cc l       .rodata	00000000 name
00000000 l    df *ABS*	00000000 __call_atexit.c
20010180 l     F .text	00000018 register_fini
00000000 l    df *ABS*	00000000 hello.c
00000000 l    df *ABS*	00000000 clock.c
00000000 l    df *ABS*	00000000 memcpy.c
00000000 l    df *ABS*	00000000 printf.c
00000000 l    df *ABS*	00000000 puts.c
00000000 l    df *ABS*	00000000 strlen.c
00000000 l    df *ABS*	00000000 timesr.c
00000000 l    df *ABS*	00000000 wbuf.c
00000000 l    df *ABS*	00000000 wsetup.c
00000000 l    df *ABS*	00000000 fflush.c
00000000 l    df *ABS*	00000000 findfp.c
20011532 l     F .text	0000006a std
00000000 l    df *ABS*	00000000 fwalk.c
00000000 l    df *ABS*	00000000 makebuf.c
00000000 l    df *ABS*	00000000 nano-mallocr.c
00000000 l    df *ABS*	00000000 nano-mallocr.c
00000000 l    df *ABS*	00000000 nano-vfprintf.c
200119d8 l     F .text	0000002a __sfputc_r
00000000 l    df *ABS*	00000000 sbrkr.c
00000000 l    df *ABS*	00000000 stdio.c
00000000 l    df *ABS*	00000000 writer.c
00000000 l    df *ABS*	00000000 closer.c
00000000 l    df *ABS*	00000000 fstatr.c
00000000 l    df *ABS*	00000000 isattyr.c
00000000 l    df *ABS*	00000000 lseekr.c
00000000 l    df *ABS*	00000000 memchr.c
00000000 l    df *ABS*	00000000 mlock.c
00000000 l    df *ABS*	00000000 nano-vfprintf_i.c
00000000 l    df *ABS*	00000000 readr.c
00000000 l    df *ABS*	00000000 gpio.c
00000000 l    df *ABS*	00000000 spi.c
00000000 l    df *ABS*	00000000 riscv_clint0.c
20012402 l     F .text	00000026 __metal_driver_sifive_clint0_control_base
20012428 l     F .text	00000024 __metal_driver_sifive_clint0_num_interrupts
2001244c l     F .text	0000003c __metal_driver_sifive_clint0_interrupt_parents
20012488 l     F .text	00000030 __metal_driver_sifive_clint0_interrupt_lines
200125e8 l     F .text	00000034 _get_cpu_intc
00000000 l    df *ABS*	00000000 riscv_cpu.c
200129fc l     F .text	00000024 __metal_driver_cpu_hartid
20012a20 l     F .text	0000002a __metal_driver_cpu_timebase
20012a4a l     F .text	0000002a __metal_driver_cpu_interrupt_controller
00000000 l    df *ABS*	00000000 riscv_plic0.c
200137f6 l     F .text	0000002a __metal_driver_sifive_plic0_control_base
20013820 l     F .text	00000028 __metal_driver_sifive_plic0_num_interrupts
20013848 l     F .text	00000028 __metal_driver_sifive_plic0_max_priority
20013870 l     F .text	00000038 __metal_driver_sifive_plic0_interrupt_parents
200138a8 l     F .text	0000002c __metal_driver_sifive_plic0_interrupt_lines
00000000 l    df *ABS*	00000000 sifive_fe310-g000_hfrosc.c
20013d9a l     F .text	0000001a __metal_driver_sifive_fe310_g000_hfrosc_ref
20013db4 l     F .text	00000016 __metal_driver_sifive_fe310_g000_hfrosc_config_base
20013dca l     F .text	00000014 __metal_driver_sifive_fe310_g000_hfrosc_config_offset
20013dde l     F .text	00000012 __metal_driver_sifive_fe310_g000_prci_vtable
00000000 l    df *ABS*	00000000 sifive_fe310-g000_hfxosc.c
20013e7a l     F .text	0000001a __metal_driver_sifive_fe310_g000_hfxosc_ref
20013e94 l     F .text	00000016 __metal_driver_sifive_fe310_g000_hfxosc_config_base
20013eaa l     F .text	00000014 __metal_driver_sifive_fe310_g000_hfxosc_config_offset
20013ebe l     F .text	00000012 __metal_driver_sifive_fe310_g000_prci_vtable
00000000 l    df *ABS*	00000000 sifive_fe310-g000_pll.c
20013f4a l     F .text	0000001a __metal_driver_sifive_fe310_g000_pll_pllsel0
20013f64 l     F .text	0000001a __metal_driver_sifive_fe310_g000_pll_pllref
20013f7e l     F .text	00000016 __metal_driver_sifive_fe310_g000_pll_divider_base
20013f94 l     F .text	00000014 __metal_driver_sifive_fe310_g000_pll_divider_offset
20013fa8 l     F .text	00000012 __metal_driver_sifive_fe310_g000_pll_config_base
20013fba l     F .text	00000010 __metal_driver_sifive_fe310_g000_pll_config_offset
20013fca l     F .text	00000016 __metal_driver_sifive_fe310_g000_pll_init_rate
20013fe0 l     F .text	00000012 __metal_driver_sifive_fe310_g000_prci_base
20013ff2 l     F .text	00000012 __metal_driver_sifive_fe310_g000_prci_vtable
200167f0 l     O .rodata	00000880 pll_configs
20014004 l     F .text	0000004e get_pll_config_freq
20014052 l     F .text	00000028 metal_sifive_fe310_g000_pll_init
200142b4 l     F .text	000000aa find_closest_config
2001435e l     F .text	00000132 configure_pll
200145f6 l     F .text	0000002a use_hfxosc
00000000 l    df *ABS*	00000000 sifive_fe310-g000_prci.c
20014620 l     F .text	00000012 __metal_driver_sifive_fe310_g000_prci_base
00000000 l    df *ABS*	00000000 sifive_gpio0.c
20014698 l     F .text	00000026 __metal_driver_sifive_gpio0_base
00000000 l    df *ABS*	00000000 sifive_spi0.c
20014896 l     F .text	00000026 __metal_driver_sifive_spi0_control_base
200148bc l     F .text	0000001a __metal_driver_sifive_spi0_clock
200148d6 l     F .text	00000016 __metal_driver_sifive_spi0_pinmux
200148ec l     F .text	00000016 __metal_driver_sifive_spi0_pinmux_output_selector
20014902 l     F .text	00000016 __metal_driver_sifive_spi0_pinmux_source_selector
20014918 l     F .text	00000202 configure_spi
20014d70 l     F .text	0000004a pre_rate_change_callback
20014dba l     F .text	00000030 post_rate_change_callback
00000000 l    df *ABS*	00000000 sifive_uart0.c
20014e94 l     F .text	00000026 __metal_driver_sifive_uart0_control_base
20014eba l     F .text	0000002a __metal_driver_sifive_uart0_interrupt_parent
20014ee4 l     F .text	00000014 __metal_driver_sifive_uart0_interrupt_line
20014ef8 l     F .text	0000001a __metal_driver_sifive_uart0_clock
20014f12 l     F .text	00000016 __metal_driver_sifive_uart0_pinmux
20014f28 l     F .text	00000016 __metal_driver_sifive_uart0_pinmux_output_selector
20014f3e l     F .text	00000016 __metal_driver_sifive_uart0_pinmux_source_selector
200150f0 l     F .text	000000d8 pre_rate_change_callback
200151c8 l     F .text	0000002e post_rate_change_callback
00000000 l    df *ABS*	00000000 clock.c
00000000 l    df *ABS*	00000000 cpu.c
00000000 l    df *ABS*	00000000 shutdown.c
00000000 l    df *ABS*	00000000 uart.c
00000000 l    df *ABS*	00000000 fixed-clock.c
200154c2 l     F .text	00000062 __metal_driver_fixed_clock_rate
00000000 l    df *ABS*	00000000 synchronize_harts.c
00000000 l    df *ABS*	00000000 sys_close.c
00000000 l    df *ABS*	00000000 sys_fstat.c
00000000 l    df *ABS*	00000000 sys_isatty.c
00000000 l    df *ABS*	00000000 sys_lseek.c
00000000 l    df *ABS*	00000000 sys_read.c
00000000 l    df *ABS*	00000000 sys_sbrk.c
80000808 l     O .data	00000004 brk
00000000 l    df *ABS*	00000000 sys_times.c
80000820 l     O .bss	00000010 t0.2031
00000000 l    df *ABS*	00000000 sys_write.c
00000000 l    df *ABS*	00000000 sys_gettimeofday.c
00000000 l    df *ABS*	00000000 atexit.c
00000000 l    df *ABS*	00000000 errno.c
00000000 l    df *ABS*	00000000 exit.c
00000000 l    df *ABS*	00000000 fini.c
00000000 l    df *ABS*	00000000 init.c
00000000 l    df *ABS*	00000000 time.c
00000000 l    df *ABS*	00000000 __atexit.c
80000830 l     O .bss	0000008c _global_atexit0
00000000 l    df *ABS*	00000000 gettimeofdayr.c
00000000 l    df *ABS*	00000000 libgcc2.c
00000000 l    df *ABS*	00000000 libgcc2.c
00000000 l    df *ABS*	00000000 timer.c
00000000 l    df *ABS*	00000000 tty.c
20016362 l     F .text	00000020 metal_tty_init
00000000 l    df *ABS*	00000000 sys_exit.c
00000000 l    df *ABS*	00000000 libgcc2.c
00000000 l    df *ABS*	00000000 impure.c
80000000 l     O .data	00000060 impure_data
00000000 l    df *ABS*	00000000 inline.c
00000000 l    df *ABS*	00000000 
200171e8 l       .init_array	00000000 __fini_array_end
200171e8 l       .init_array	00000000 __fini_array_start
200171e8 l       .init_array	00000000 __init_array_end
200171d8 l       .init_array	00000000 __preinit_array_end
200171d8 l       .init_array	00000000 __init_array_start
200171d8 l       .init_array	00000000 __preinit_array_start
200170a8 g     O .rodata	0000001c __metal_driver_vtable_sifive_uart0
20011e46 g     F .text	0000002a _isatty_r
200110ca g     F .text	000000da _puts_r
20011e70 g     F .text	0000002e _lseek_r
2001529e g     F .text	00000026 metal_clock_get_rate_hz
20015050 g     F .text	000000a0 __metal_driver_sifive_uart0_set_baud_rate
20015baa g     F .text	0000002c _gettimeofday_r
20012f1c g     F .text	00000038 __metal_valid_interrupt_id
2001108a g     F .text	00000040 printf
80000f98 g       .data	00000000 __global_pointer$
20013902 g     F .text	00000038 __metal_plic0_complete_interrupt
20013198 g     F .text	00000148 __metal_driver_riscv_cpu_controller_interrupt_register
20011d86 g     F .text	00000036 __sseek
200115ec g     F .text	00000066 __sinit
200111c6 g     F .text	000000c0 __swbuf_r
200115a6 g     F .text	00000046 __sfmoreglue
20011eba g     F .text	00000002 __malloc_unlock
200153fe g     F .text	0000002c metal_cpu_get
800007e0 g     O .data	00000008 __metal_dt_serial_10013000
200165e8 g     O .rodata	00000020 __metal_driver_vtable_riscv_clint0
800008d0 g       .bss	00000000 metal_segment_bss_target_end
800008bc g     O .bss	00000004 gpio1
200124b8 g     F .text	0000009a __metal_clint0_mtime_get
20013790 g     F .text	00000028 __metal_driver_cpu_get_instruction_length
00000000 g       *ABS*	00000000 __metal_chicken_bit
800007d8 g     O .data	00000008 __metal_dt_spi_10014000
200146be g     F .text	00000044 __metal_driver_sifive_gpio0_disable_input
20015958 g     F .text	00000008 __errno
80000000 g       .ditimalign	00000000 metal_segment_itim_target_start
200153ae g     F .text	0000002a metal_cpu_get_timebase
200122a6 g     F .text	00000040 metal_gpio_enable_output
8000080c g       .bss	00000000 metal_segment_bss_target_start
20012552 g     F .text	00000096 __metal_driver_riscv_clint0_mtimecmp_set
20011e1a g     F .text	0000002c _fstat_r
20013338 g     F .text	00000066 __metal_driver_riscv_cpu_controller_interrupt_enable_vector
800008c8 g     O .bss	00000004 errno
20014136 g     F .text	0000017e __metal_driver_sifive_fe310_g000_pll_get_rate_hz
00000400 g       *ABS*	00000000 __stack_size
20015328 g     F .text	0000002e metal_clock_register_pre_rate_change_callback
20014b1a g     F .text	0000018c __metal_driver_sifive_spi0_transfer
800007b0 g     O .data	00000004 gpio_input_val
200167d0 g     O .rodata	00000020 __metal_driver_vtable_riscv_plic0
20016790 g     O .rodata	00000040 __metal_driver_vtable_cpu
20015494 g     F .text	0000002e metal_uart_set_baud_rate
200151f6 g     F .text	000000a8 __metal_driver_sifive_uart0_init
200111c0 g     F .text	00000006 _times_r
20010f2c g     F .text	000000b6 memcpy
20017070 g     O .rodata	0000000c __metal_driver_vtable_sifive_fe310_g000_pll
800007a8 g     O .data	00000004 spi_csmode
800007c0  w    O .data	00000004 __metal_gpio_table
80000ccc g       .heap	00000000 metal_segment_heap_target_start
2001159c g     F .text	0000000a _cleanup_r
800007d0 g     O .data	00000004 __metal_dt_cpu_0
20014490 g     F .text	00000166 __metal_driver_sifive_fe310_g000_pll_set_rate_hz
200162ce g     F .text	00000048 metal_timer_get_timebase_frequency
200111a4 g     F .text	0000000a puts
200122e6 g     F .text	00000068 metal_gpio_set_pin
20012bde g     F .text	00000018 __metal_default_exception_handler
20015596 g     F .text	00000026 _fstat
20013970 g     F .text	0000005a __metal_plic0_set_priority
800007a0 g     O .data	00000004 csmode
20012a74 g     F .text	0000002c __metal_driver_cpu_get
20016770 g     O .rodata	00000020 __metal_driver_vtable_riscv_cpu_intc
20012ad2 g     F .text	00000018 __metal_interrupt_global_disable
20011cde g     F .text	0000002a _sbrk_r
20013d52 g     F .text	00000048 __metal_driver_riscv_plic0_disable
2001300a g     F .text	0000004e __metal_exception_register
2001226a g     F .text	0000002e _read_r
2001359a g     F .text	00000016 __metal_driver_cpu_timer_controller_interrupt
20010ec6 g     F .text	0000003e get_input_val
2001472c g     F .text	0000003e __metal_driver_sifive_gpio0_enable_output
200133f6 g     F .text	00000072 __metal_driver_cpu_timer_get
20012c0e g     F .text	00000064 __metal_default_sw_handler
20015356 g     F .text	0000002e metal_clock_register_post_rate_change_callback
20010a62 g     F .text	00000420 get_data_esp
80000074 g     O .data	00000014 __metal_dt_clock_2
20014f54 g     F .text	00000020 __metal_driver_sifive_uart0_interrupt_controller
20015f34 g     F .text	00000352 .hidden __umoddi3
200155bc g     F .text	00000020 _isatty
200147ee g     F .text	00000040 __metal_driver_sifive_gpio0_output_toggle
2001339e g     F .text	0000003c __metal_driver_riscv_cpu_controller_interrupt_disable_vector
80000800 g     O .data	00000008 __metal_driver_vtable_fixed_clock
800007b8 g     O .data	00000004 _global_impure_ptr
200159c2 g     F .text	0000006e __libc_init_array
2001476a g     F .text	0000003e __metal_driver_sifive_gpio0_output_set
20015bd6 g     F .text	0000035e .hidden __udivdi3
20013f28 g     F .text	00000022 __metal_driver_sifive_fe310_g000_hfxosc_set_rate_hz
200132e0 g     F .text	0000002c __metal_driver_riscv_cpu_controller_interrupt_enable
20015630 g     F .text	00000058 _sbrk
20017098 g     O .rodata	00000010 __metal_driver_vtable_sifive_spi0
20010158 g     F .init	00000002 _init
20012b34 g     F .text	0000001a __metal_interrupt_timer_disable
20013658 g     F .text	0000006a __metal_driver_cpu_clear_sw_ipi
2001707c g     O .rodata	0000001c __metal_driver_vtable_sifive_gpio0
2001482e g     F .text	00000068 __metal_driver_sifive_gpio0_enable_io
20015988 g     F .text	0000003a __libc_fini_array
20015688 g     F .text	0000016e _times
80000780 g     O .data	00000014 __metal_dt_clock_4
200135da g     F .text	00000014 __metal_driver_cpu_get_sw_interrupt_id
2001078a g     F .text	000002d8 get_esp
200123a8 g     F .text	0000002e metal_spi_set_baud_rate
80000000 g       .dalign	00000000 metal_segment_data_target_start
20012b86 g     F .text	0000002c __metal_interrupt_local_enable
20016316 g     F .text	0000004c metal_tty_putc
20013a5e g     F .text	00000018 __metal_plic0_default_handler
800008c0 g     O .bss	00000004 clk
80000060 g     O .data	00000014 __metal_dt_clock_0
8000079c g     O .data	00000004 rxdata
00000400 g       *ABS*	00000000 __heap_size
2001237c g     F .text	0000002c metal_spi_init
2001654c g     O .rodata	00000020 __sf_fake_stderr
20012b6a g     F .text	0000001c __metal_interrupt_external_disable
20014f74 g     F .text	00000022 __metal_driver_sifive_uart0_get_interrupt_id
20014ca6 g     F .text	00000020 __metal_driver_sifive_spi0_get_baud_rate
800007c4  w    O .data	00000004 __metal_spi_table
200133da g     F .text	0000001c __metal_driver_riscv_cpu_controller_command_request
20013058 g     F .text	00000140 __metal_driver_riscv_cpu_controller_interrupt_init
20014cc6 g     F .text	000000aa __metal_driver_sifive_spi0_set_baud_rate
20011a02 g     F .text	00000042 __sfputs_r
80000798 g     O .data	00000004 txdata
2001374a g     F .text	00000046 __metal_driver_cpu_exception_register
20012aea g     F .text	00000018 __metal_interrupt_software_enable
20011e9e g     F .text	0000001a memchr
2001184e g     F .text	000000ac _free_r
80000818 g     O .bss	00000004 _global_atexit
20015ae6 g     F .text	000000c4 __call_exitprocs
80000ccc g       .stack	00000000 _sp
20010060 g     F .init	00000000 _start
20013df0 g     F .text	00000068 __metal_driver_sifive_fe310_g000_hfrosc_get_rate_hz
20016286 g     F .text	00000048 metal_timer_get_cyclecount
200155dc g     F .text	0000002a _lseek
2001372a g     F .text	00000020 __metal_driver_cpu_controller_interrupt
200137b8 g     F .text	0000001e __metal_driver_cpu_get_exception_pc
20012b4e g     F .text	0000001c __metal_interrupt_external_enable
20015a62 g     F .text	00000084 __register_exitproc
20014f96 g     F .text	00000042 __metal_driver_sifive_uart0_putc
20013b04 g     F .text	00000144 __metal_driver_riscv_plic0_init
20013d0a g     F .text	00000048 __metal_driver_riscv_plic0_enable
20014702 g     F .text	0000002a __metal_driver_sifive_gpio0_output
20012aa0 g     F .text	0000001a __metal_myhart_id
200123d6 g     F .text	0000002c metal_spi_get_device
2001330c g     F .text	0000002c __metal_driver_riscv_cpu_controller_interrupt_disable
20011df0 g     F .text	0000002a _close_r
20015384 g     F .text	0000002a metal_cpu_get_timer
20015030 g     F .text	00000020 __metal_driver_sifive_uart0_get_baud_rate
200126a4 g     F .text	000000bc __metal_driver_riscv_clint0_register
800007c8 g     O .data	00000008 __metal_dt_clint_2000000
20011286 g     F .text	0000010c __swsetup_r
20011652 g     F .text	0000009c __sfp
200152c4 g     F .text	00000064 metal_clock_set_rate_hz
2001234e g     F .text	0000002e metal_gpio_get_device
20011d08 g     F .text	00000030 __sread
2001015a  w    F .init	00000000 secondary_main
20011eb8 g     F .text	00000002 __malloc_lock
200114ce g     F .text	00000064 _fflush_r
20014632 g     F .text	0000002e __metal_driver_sifive_fe310_g000_prci_get_reg
2001656c g     O .rodata	00000020 __sf_fake_stdin
20012f54 g     F .text	000000b6 __metal_local_interrupt_enable
200128c6 g     F .text	00000136 __metal_driver_riscv_clint0_command_request
20010fe2 g     F .text	000000a8 memset
200101e0 g     F .text	00000342 main
8000080c g       .bss	00000000 metal_segment_data_target_end
800007e8 g     O .data	00000008 __metal_driver_vtable_sifive_fe310_g000_hfrosc
200135ee g     F .text	0000006a __metal_driver_cpu_set_sw_ipi
200136c2 g     F .text	00000068 __metal_driver_cpu_get_msip
2001542a g     F .text	0000000e metal_shutdown
80000000 g       .init_array	00000000 metal_segment_itim_target_end
200137d6 g     F .text	00000020 __metal_driver_cpu_set_exception_pc
200138d4 g     F .text	0000002e __metal_plic0_claim_interrupt
20011dbc g     F .text	00000006 __sclose
200118fa g     F .text	000000de _malloc_r
20015a30 g     F .text	00000032 time
20015566 g     F .text	0000000e _synchronize_harts
8000081c g     O .bss	00000000 __metal_dt_prci_10008000
20013468 g     F .text	00000046 __metal_driver_cpu_timebase_get
800007a4 g     O .data	00000004 delay0
20010000 g       .init	00000000 _enter
20013ed0 g     F .text	00000058 __metal_driver_sifive_fe310_g000_hfxosc_get_rate_hz
200171e8 g       .litimalign	00000000 metal_segment_itim_source_start
800007bc  w    O .data	00000004 __metal_cpu_table
20010198 g     F .text	00000048 delay
800000a0 g     O .data	000003b8 __metal_dt_cpu_0_interrupt_controller
20010158 g     F .init	00000002 _fini
2001108a g     F .text	00000040 iprintf
800007ac g     O .data	00000004 gpio_input_en
200170d8 g     O .rodata	00000100 .hidden __clz_tab
20012aba g     F .text	00000018 __metal_interrupt_global_enable
2001594e g     F .text	0000000a atexit
20011dc2 g     F .text	0000002e _write_r
20012b1a g     F .text	0000001a __metal_interrupt_timer_enable
20014fd8 g     F .text	00000058 __metal_driver_sifive_uart0_getc
20012810 g     F .text	000000b6 __metal_driver_riscv_clint0_disable
20011ebc g     F .text	0000010c _printf_common
800007b4 g     O .data	00000004 _impure_ptr
2001351c g     F .text	0000007e __metal_driver_cpu_mtimecmp_set
20011392 g     F .text	0000013c __sflush_r
2001407a g     F .text	000000bc __metal_driver_sifive_fe310_g000_pll_init
80000088 g     O .data	00000014 __metal_dt_clock_5
20014660 g     F .text	00000038 __metal_driver_sifive_fe310_g000_prci_set_reg
20015524 g     F .text	00000020 __metal_driver_fixed_clock_get_rate_hz
20012760 g     F .text	000000b0 __metal_driver_riscv_clint0_enable
200171e8 g       .lalign	00000000 metal_segment_data_source_start
20010522 g     F .text	00000268 send_cmd
800010cc g       .heap	00000000 metal_segment_heap_target_end
20012e76 g     F .text	000000a6 __metal_controller_interrupt_vector
8000076c g     O .data	00000014 __metal_dt_clock_1
80000458 g     O .data	00000300 __metal_dt_interrupt_controller_c000000
2001175a g     F .text	00000058 __swhatbuf_r
200147a8 g     F .text	00000046 __metal_driver_sifive_gpio0_output_clear
20012c72 g     F .text	00000066 __metal_default_timer_handler
200157f6 g     F .text	00000070 _write
20013a76 g     F .text	0000008e __metal_plic0_handler
200153d8 g     F .text	00000026 metal_cpu_interrupt_controller
20011d38 g     F .text	0000004e __swrite
20015960 g     F .text	00000028 exit
20011a44 g     F .text	0000029a _vfiprintf_r
200116ee g     F .text	0000006c _fwalk_reent
20015544 g     F .text	00000022 __metal_driver_fixed_clock_set_rate_hz
2001658c g     O .rodata	00000020 __sf_fake_stdout
20015866 g     F .text	000000e8 _gettimeofday
800007d4 g     O .data	00000004 __metal_dt_gpio_10012000
20012bf6 g     F .text	00000018 __metal_default_interrupt_handler
20015462 g     F .text	00000032 metal_uart_putc
20015606 g     F .text	0000002a _read
800008c4 g     O .bss	00000004 spi
20012d00 g     F .text	0000014e __metal_exception_handler
20016382 g     F .text	00000014 _exit
200134ae g     F .text	0000006e __metal_driver_cpu_mtime_get
200117b2 g     F .text	0000009c __smakebuf_r
200111ae g     F .text	00000012 strlen
20011fc8 g     F .text	000002a2 _printf_i
80000814 g     O .bss	00000004 __malloc_sbrk_start
20010f04 g     F .text	00000028 clock
20014dea g     F .text	000000aa __metal_driver_sifive_spi0_init
800007f0 g     O .data	00000008 __metal_driver_vtable_sifive_fe310_g000_hfxosc
2001261c g     F .text	00000088 __metal_driver_riscv_clint0_init
20010e82 g     F .text	00000044 input_enable
80000810 g     O .bss	00000004 __malloc_free_list
20011a44 g     F .text	0000029a _vfprintf_r
200135b0 g     F .text	00000014 __metal_driver_cpu_get_timer_interrupt_id
200139ca g     F .text	00000094 __metal_plic0_enable
20013e58 g     F .text	00000022 __metal_driver_sifive_fe310_g000_hfrosc_set_rate_hz
200135c4 g     F .text	00000016 __metal_driver_cpu_sw_controller_interrupt
20012bb2 g     F .text	0000002c __metal_interrupt_local_disable
20012b02 g     F .text	00000018 __metal_interrupt_software_disable
20015438 g     F .text	0000002a metal_uart_init
80000758 g     O .data	00000014 __metal_dt_clock_3
2001393a g     F .text	00000036 __metal_plic0_set_threshold
20015574 g     F .text	00000022 _close
800007f8 g     O .data	00000008 __metal_driver_vtable_sifive_fe310_g000_prci
00000000 g       *ABS*	00000000 __metal_boot_hart
20013c48 g     F .text	000000c2 __metal_driver_riscv_plic0_register



Disassembly of section .init:

20010000 <_enter>:
_enter():
F:/HiFive-IoT/Workspace/sifive-hifive1-revb-hello/freedom-metal/src/entry.S:24
     * it's not valid to obtain the address of any symbol without GP
     * configured.  The C environment might go ahead and do this again, but
     * that's safe as it's a fixed register. */
.option push
.option norelax
    la gp, __global_pointer$
20010000:	5fff1197          	auipc	gp,0x5fff1
20010004:	f9818193          	addi	gp,gp,-104 # 80000f98 <__global_pointer$>
F:/HiFive-IoT/Workspace/sifive-hifive1-revb-hello/freedom-metal/src/entry.S:29
.option pop

    /* Set up a simple trap vector to catch anything that goes wrong early in
     * the boot process. */
    la t0, early_trap_vector
20010008:	00002297          	auipc	t0,0x2
2001000c:	29028293          	addi	t0,t0,656 # 20012298 <early_trap_vector>
F:/HiFive-IoT/Workspace/sifive-hifive1-revb-hello/freedom-metal/src/entry.S:30
    csrw mtvec, t0
20010010:	30529073          	csrw	mtvec,t0
F:/HiFive-IoT/Workspace/sifive-hifive1-revb-hello/freedom-metal/src/entry.S:32
    /* enable chicken bit if core is bullet series*/
    la t0, __metal_chicken_bit
20010014:	00000293          	li	t0,0
F:/HiFive-IoT/Workspace/sifive-hifive1-revb-hello/freedom-metal/src/entry.S:33
    beqz t0, 1f
20010018:	00028463          	beqz	t0,20010020 <_enter+0x20>
F:/HiFive-IoT/Workspace/sifive-hifive1-revb-hello/freedom-metal/src/entry.S:34
    csrwi 0x7C1, 0
2001001c:	7c105073          	csrwi	0x7c1,0
F:/HiFive-IoT/Workspace/sifive-hifive1-revb-hello/freedom-metal/src/entry.S:43
     * C, so here we set up a C environment.  First we set up a stack pointer,
     * which is left as a weak reference in order to allow initialization
     * routines that do not need a stack to be set up to transparently be
     * called. */
    .weak __metal_stack_pointer
    la sp, __metal_stack_pointer
20010020:	dfff0117          	auipc	sp,0xdfff0
20010024:	fe010113          	addi	sp,sp,-32 # 0 <__metal_boot_hart>
F:/HiFive-IoT/Workspace/sifive-hifive1-revb-hello/freedom-metal/src/entry.S:52
     * actually a full C function, as it doesn't end up with the .bss or .data
     * segments having been initialized.  This is done to avoid putting a
     * burden on systems that can be initialized without having a C environment
     * set up. */
    .weak __metal_before_start
    la ra, __metal_before_start
20010028:	dfff0097          	auipc	ra,0xdfff0
2001002c:	fd808093          	addi	ra,ra,-40 # 0 <__metal_boot_hart>
F:/HiFive-IoT/Workspace/sifive-hifive1-revb-hello/freedom-metal/src/entry.S:53
    beqz ra, 1f
20010030:	00008363          	beqz	ra,20010036 <_enter+0x36>
F:/HiFive-IoT/Workspace/sifive-hifive1-revb-hello/freedom-metal/src/entry.S:54
    jalr ra
20010034:	9082                	jalr	ra
F:/HiFive-IoT/Workspace/sifive-hifive1-revb-hello/freedom-metal/src/entry.S:60
1:

    /* At this point we can enter the C runtime's startup file.  The arguments
     * to this function are designed to match those provided to the SEE, just
     * so we don't have to write another ABI. */
    csrr a0, mhartid
20010036:	f1402573          	csrr	a0,mhartid
F:/HiFive-IoT/Workspace/sifive-hifive1-revb-hello/freedom-metal/src/entry.S:61
    li a1, 0
2001003a:	4581                	li	a1,0
F:/HiFive-IoT/Workspace/sifive-hifive1-revb-hello/freedom-metal/src/entry.S:62
    li a2, 0
2001003c:	4601                	li	a2,0
F:/HiFive-IoT/Workspace/sifive-hifive1-revb-hello/freedom-metal/src/entry.S:63
    call _start
2001003e:	200d                	jal	20010060 <_start>
F:/HiFive-IoT/Workspace/sifive-hifive1-revb-hello/freedom-metal/src/entry.S:68

    /* If we've made it back here then there's probably something wrong.  We
     * allow the METAL to register a handler here. */
    .weak __metal_after_main
    la ra, __metal_after_main
20010040:	dfff0097          	auipc	ra,0xdfff0
20010044:	fc008093          	addi	ra,ra,-64 # 0 <__metal_boot_hart>
F:/HiFive-IoT/Workspace/sifive-hifive1-revb-hello/freedom-metal/src/entry.S:69
    beqz ra, 1f
20010048:	00008363          	beqz	ra,2001004e <_enter+0x4e>
F:/HiFive-IoT/Workspace/sifive-hifive1-revb-hello/freedom-metal/src/entry.S:70
    jalr ra
2001004c:	9082                	jalr	ra
F:/HiFive-IoT/Workspace/sifive-hifive1-revb-hello/freedom-metal/src/entry.S:75
1:

    /* If that handler returns then there's not a whole lot we can do.  Just
     * try to make some noise. */
     la t0, 1f
2001004e:	00000297          	auipc	t0,0x0
20010052:	00c28293          	addi	t0,t0,12 # 2001005a <_enter+0x5a>
F:/HiFive-IoT/Workspace/sifive-hifive1-revb-hello/freedom-metal/src/entry.S:76
     csrw mtvec, t0
20010056:	30529073          	csrw	mtvec,t0
F:/HiFive-IoT/Workspace/sifive-hifive1-revb-hello/freedom-metal/src/entry.S:78
1:
     lw t1, 0(x0)
2001005a:	00002303          	lw	t1,0(zero) # 0 <__metal_boot_hart>
F:/HiFive-IoT/Workspace/sifive-hifive1-revb-hello/freedom-metal/src/entry.S:79
     j 1b
2001005e:	bff5                	j	2001005a <_enter+0x5a>

20010060 <_start>:
_start():
F:/HiFive-IoT/Workspace/sifive-hifive1-revb-hello/freedom-metal/gloss/crt0.S:36
.cfi_startproc
.cfi_undefined ra

  /* This is a bit funky: it's not usually sane for _start to return, but in
   * this case we actually want to in order to signal an error to the METAL. */
  mv s0, ra
20010060:	8406                	mv	s0,ra
F:/HiFive-IoT/Workspace/sifive-hifive1-revb-hello/freedom-metal/gloss/crt0.S:44
   * safely perform any access that may be relaxed without GP being set.  This
   * is done with relaxation disabled to avoid relaxing the address calculation
   * to just "addi gp, gp, 0". */
.option push
.option norelax
  la gp, __global_pointer$
20010062:	5fff1197          	auipc	gp,0x5fff1
20010066:	f3618193          	addi	gp,gp,-202 # 80000f98 <__global_pointer$>
F:/HiFive-IoT/Workspace/sifive-hifive1-revb-hello/freedom-metal/gloss/crt0.S:51

  /* The METAL is designed for a bare-metal environment and therefor is expected
   * to define its own stack pointer.  We also align the stack pointer here
   * because the only RISC-V ABI that's currently defined mandates 16-byte
   * stack alignment. */
  la sp, _sp
2001006a:	d3418113          	addi	sp,gp,-716 # 80000ccc <_sp>
F:/HiFive-IoT/Workspace/sifive-hifive1-revb-hello/freedom-metal/gloss/crt0.S:54

  /* Increment by hartid number of stack sizes */
  li t0, 0
2001006e:	4281                	li	t0,0
F:/HiFive-IoT/Workspace/sifive-hifive1-revb-hello/freedom-metal/gloss/crt0.S:55
  la t1, __stack_size
20010070:	40000313          	li	t1,1024
F:/HiFive-IoT/Workspace/sifive-hifive1-revb-hello/freedom-metal/gloss/crt0.S:57
1:
  beq t0, a0, 1f
20010074:	00a28563          	beq	t0,a0,2001007e <_start+0x1e>
F:/HiFive-IoT/Workspace/sifive-hifive1-revb-hello/freedom-metal/gloss/crt0.S:58
  add sp, sp, t1
20010078:	911a                	add	sp,sp,t1
F:/HiFive-IoT/Workspace/sifive-hifive1-revb-hello/freedom-metal/gloss/crt0.S:59
  addi t0, t0, 1
2001007a:	0285                	addi	t0,t0,1
F:/HiFive-IoT/Workspace/sifive-hifive1-revb-hello/freedom-metal/gloss/crt0.S:60
  j 1b
2001007c:	bfe5                	j	20010074 <_start+0x14>
F:/HiFive-IoT/Workspace/sifive-hifive1-revb-hello/freedom-metal/gloss/crt0.S:62
1:
  andi sp, sp, -16
2001007e:	ff017113          	andi	sp,sp,-16
F:/HiFive-IoT/Workspace/sifive-hifive1-revb-hello/freedom-metal/gloss/crt0.S:65

  /* If we're not hart 0, skip the initialization work */
  la t0, __metal_boot_hart
20010082:	00000293          	li	t0,0
F:/HiFive-IoT/Workspace/sifive-hifive1-revb-hello/freedom-metal/gloss/crt0.S:66
  bne a0, t0, _skip_init
20010086:	08551963          	bne	a0,t0,20010118 <_skip_init>
F:/HiFive-IoT/Workspace/sifive-hifive1-revb-hello/freedom-metal/gloss/crt0.S:75
   * boot and then need to get relocated into a non-persistant writable memory
   * before C code can execute.  If this is the case we do so here.  This step
   * is optional: if the METAL provides an environment in which this relocation
   * is not necessary then it must simply set metal_segment_data_source_start to
   * be equal to metal_segment_data_target_start. */
  la t0, metal_segment_data_source_start
2001008a:	00007297          	auipc	t0,0x7
2001008e:	15e28293          	addi	t0,t0,350 # 200171e8 <__fini_array_end>
F:/HiFive-IoT/Workspace/sifive-hifive1-revb-hello/freedom-metal/gloss/crt0.S:76
  la t1, metal_segment_data_target_start
20010092:	5fff0317          	auipc	t1,0x5fff0
20010096:	f6e30313          	addi	t1,t1,-146 # 80000000 <metal_segment_itim_target_end>
F:/HiFive-IoT/Workspace/sifive-hifive1-revb-hello/freedom-metal/gloss/crt0.S:77
  la t2, metal_segment_data_target_end
2001009a:	5fff0397          	auipc	t2,0x5fff0
2001009e:	77238393          	addi	t2,t2,1906 # 8000080c <metal_segment_bss_target_start>
F:/HiFive-IoT/Workspace/sifive-hifive1-revb-hello/freedom-metal/gloss/crt0.S:79

  beq t0, t1, 2f
200100a2:	00628c63          	beq	t0,t1,200100ba <_start+0x5a>
F:/HiFive-IoT/Workspace/sifive-hifive1-revb-hello/freedom-metal/gloss/crt0.S:80
  bge t1, t2, 2f
200100a6:	00735a63          	bge	t1,t2,200100ba <_start+0x5a>
F:/HiFive-IoT/Workspace/sifive-hifive1-revb-hello/freedom-metal/gloss/crt0.S:83

1:
  lw   a0, 0(t0)
200100aa:	0002a503          	lw	a0,0(t0)
F:/HiFive-IoT/Workspace/sifive-hifive1-revb-hello/freedom-metal/gloss/crt0.S:84
  addi t0, t0, 4
200100ae:	0291                	addi	t0,t0,4
F:/HiFive-IoT/Workspace/sifive-hifive1-revb-hello/freedom-metal/gloss/crt0.S:85
  sw   a0, 0(t1)
200100b0:	00a32023          	sw	a0,0(t1)
F:/HiFive-IoT/Workspace/sifive-hifive1-revb-hello/freedom-metal/gloss/crt0.S:86
  addi t1, t1, 4
200100b4:	0311                	addi	t1,t1,4
F:/HiFive-IoT/Workspace/sifive-hifive1-revb-hello/freedom-metal/gloss/crt0.S:87
  blt  t1, t2, 1b
200100b6:	fe734ae3          	blt	t1,t2,200100aa <_start+0x4a>
F:/HiFive-IoT/Workspace/sifive-hifive1-revb-hello/freedom-metal/gloss/crt0.S:91
2:

  /* Copy the ITIM section */
  la t0, metal_segment_itim_source_start
200100ba:	00007297          	auipc	t0,0x7
200100be:	12e28293          	addi	t0,t0,302 # 200171e8 <__fini_array_end>
F:/HiFive-IoT/Workspace/sifive-hifive1-revb-hello/freedom-metal/gloss/crt0.S:92
  la t1, metal_segment_itim_target_start
200100c2:	5fff0317          	auipc	t1,0x5fff0
200100c6:	f3e30313          	addi	t1,t1,-194 # 80000000 <metal_segment_itim_target_end>
F:/HiFive-IoT/Workspace/sifive-hifive1-revb-hello/freedom-metal/gloss/crt0.S:93
  la t2, metal_segment_itim_target_end
200100ca:	5fff0397          	auipc	t2,0x5fff0
200100ce:	f3638393          	addi	t2,t2,-202 # 80000000 <metal_segment_itim_target_end>
F:/HiFive-IoT/Workspace/sifive-hifive1-revb-hello/freedom-metal/gloss/crt0.S:95

  beq t0, t1, 2f
200100d2:	00628c63          	beq	t0,t1,200100ea <_start+0x8a>
F:/HiFive-IoT/Workspace/sifive-hifive1-revb-hello/freedom-metal/gloss/crt0.S:96
  bge t1, t2, 2f
200100d6:	00735a63          	bge	t1,t2,200100ea <_start+0x8a>
F:/HiFive-IoT/Workspace/sifive-hifive1-revb-hello/freedom-metal/gloss/crt0.S:99

1:
  lw   a0, 0(t0)
200100da:	0002a503          	lw	a0,0(t0)
F:/HiFive-IoT/Workspace/sifive-hifive1-revb-hello/freedom-metal/gloss/crt0.S:100
  addi t0, t0, 4
200100de:	0291                	addi	t0,t0,4
F:/HiFive-IoT/Workspace/sifive-hifive1-revb-hello/freedom-metal/gloss/crt0.S:101
  sw   a0, 0(t1)
200100e0:	00a32023          	sw	a0,0(t1)
F:/HiFive-IoT/Workspace/sifive-hifive1-revb-hello/freedom-metal/gloss/crt0.S:102
  addi t1, t1, 4
200100e4:	0311                	addi	t1,t1,4
F:/HiFive-IoT/Workspace/sifive-hifive1-revb-hello/freedom-metal/gloss/crt0.S:103
  blt  t1, t2, 1b
200100e6:	fe734ae3          	blt	t1,t2,200100da <_start+0x7a>
F:/HiFive-IoT/Workspace/sifive-hifive1-revb-hello/freedom-metal/gloss/crt0.S:107
2:

  /* Zero the BSS segment. */
  la t1, metal_segment_bss_target_start
200100ea:	5fff0317          	auipc	t1,0x5fff0
200100ee:	72230313          	addi	t1,t1,1826 # 8000080c <metal_segment_bss_target_start>
F:/HiFive-IoT/Workspace/sifive-hifive1-revb-hello/freedom-metal/gloss/crt0.S:108
  la t2, metal_segment_bss_target_end
200100f2:	93818393          	addi	t2,gp,-1736 # 800008d0 <metal_segment_bss_target_end>
F:/HiFive-IoT/Workspace/sifive-hifive1-revb-hello/freedom-metal/gloss/crt0.S:110

  bge t1, t2, 2f
200100f6:	00735763          	bge	t1,t2,20010104 <_start+0xa4>
F:/HiFive-IoT/Workspace/sifive-hifive1-revb-hello/freedom-metal/gloss/crt0.S:113

1:
  sw   x0, 0(t1)
200100fa:	00032023          	sw	zero,0(t1)
F:/HiFive-IoT/Workspace/sifive-hifive1-revb-hello/freedom-metal/gloss/crt0.S:114
  addi t1, t1, 4
200100fe:	0311                	addi	t1,t1,4
F:/HiFive-IoT/Workspace/sifive-hifive1-revb-hello/freedom-metal/gloss/crt0.S:115
  blt  t1, t2, 1b
20010100:	fe734de3          	blt	t1,t2,200100fa <_start+0x9a>
F:/HiFive-IoT/Workspace/sifive-hifive1-revb-hello/freedom-metal/gloss/crt0.S:121
2:

  /* At this point we're in an environment that can execute C code.  The first
   * thing to do is to make the callback to the parent environment if it's been
   * requested to do so. */
  beqz a2, 1f
20010104:	c211                	beqz	a2,20010108 <_start+0xa8>
F:/HiFive-IoT/Workspace/sifive-hifive1-revb-hello/freedom-metal/gloss/crt0.S:122
  jalr a2
20010106:	9602                	jalr	a2
F:/HiFive-IoT/Workspace/sifive-hifive1-revb-hello/freedom-metal/gloss/crt0.S:126
1:

  /* The RISC-V port only uses new-style constructors and destructors. */
  la a0, __libc_fini_array
20010108:	00006517          	auipc	a0,0x6
2001010c:	88050513          	addi	a0,a0,-1920 # 20015988 <__libc_fini_array>
F:/HiFive-IoT/Workspace/sifive-hifive1-revb-hello/freedom-metal/gloss/crt0.S:127
  call atexit
20010110:	03f050ef          	jal	ra,2001594e <atexit>
F:/HiFive-IoT/Workspace/sifive-hifive1-revb-hello/freedom-metal/gloss/crt0.S:128
  call __libc_init_array
20010114:	0af050ef          	jal	ra,200159c2 <__libc_init_array>

20010118 <_skip_init>:
_skip_init():
F:/HiFive-IoT/Workspace/sifive-hifive1-revb-hello/freedom-metal/gloss/crt0.S:134

_skip_init:

  /* Synchronize harts so that secondary harts wait until hart 0 finishes
     initializing */
  call _synchronize_harts
20010118:	44e050ef          	jal	ra,20015566 <_synchronize_harts>
F:/HiFive-IoT/Workspace/sifive-hifive1-revb-hello/freedom-metal/gloss/crt0.S:137

  /* Check RISC-V isa and enable FS bits if Floating Point architecture. */
  csrr a5, misa
2001011c:	301027f3          	csrr	a5,misa
F:/HiFive-IoT/Workspace/sifive-hifive1-revb-hello/freedom-metal/gloss/crt0.S:138
  li   a4, 0x10028
20010120:	00010737          	lui	a4,0x10
20010124:	02870713          	addi	a4,a4,40 # 10028 <__heap_size+0xfc28>
F:/HiFive-IoT/Workspace/sifive-hifive1-revb-hello/freedom-metal/gloss/crt0.S:139
  and  a5, a5, a4
20010128:	8ff9                	and	a5,a5,a4
F:/HiFive-IoT/Workspace/sifive-hifive1-revb-hello/freedom-metal/gloss/crt0.S:140
  beqz a5, 1f
2001012a:	cb89                	beqz	a5,2001013c <_skip_init+0x24>
F:/HiFive-IoT/Workspace/sifive-hifive1-revb-hello/freedom-metal/gloss/crt0.S:141
  csrr a5, mstatus
2001012c:	300027f3          	csrr	a5,mstatus
F:/HiFive-IoT/Workspace/sifive-hifive1-revb-hello/freedom-metal/gloss/crt0.S:142
  lui  a4, 0x2
20010130:	6709                	lui	a4,0x2
F:/HiFive-IoT/Workspace/sifive-hifive1-revb-hello/freedom-metal/gloss/crt0.S:143
  or   a5, a5, a4
20010132:	8fd9                	or	a5,a5,a4
F:/HiFive-IoT/Workspace/sifive-hifive1-revb-hello/freedom-metal/gloss/crt0.S:144
  csrw mstatus, a5
20010134:	30079073          	csrw	mstatus,a5
F:/HiFive-IoT/Workspace/sifive-hifive1-revb-hello/freedom-metal/gloss/crt0.S:145
  csrwi fcsr, 0
20010138:	00305073          	csrwi	fcsr,0
F:/HiFive-IoT/Workspace/sifive-hifive1-revb-hello/freedom-metal/gloss/crt0.S:151
1:

  /* This is a C runtime, so main() is defined to have some arguments.  Since
   * there's nothing sane the METAL can pass we don't bother with that but
   * instead just setup as close to a NOP as we can. */
  li a0, 1     /* argc=1 */
2001013c:	4505                	li	a0,1
F:/HiFive-IoT/Workspace/sifive-hifive1-revb-hello/freedom-metal/gloss/crt0.S:152
  la a1, argv  /* argv = {"libgloss", NULL} */
2001013e:	00007597          	auipc	a1,0x7
20010142:	f8658593          	addi	a1,a1,-122 # 200170c4 <argv>
F:/HiFive-IoT/Workspace/sifive-hifive1-revb-hello/freedom-metal/gloss/crt0.S:153
  la a2, envp  /* envp = {NULL} */
20010146:	00007617          	auipc	a2,0x7
2001014a:	f8260613          	addi	a2,a2,-126 # 200170c8 <envp>
F:/HiFive-IoT/Workspace/sifive-hifive1-revb-hello/freedom-metal/gloss/crt0.S:154
  call secondary_main
2001014e:	2031                	jal	2001015a <secondary_main>
F:/HiFive-IoT/Workspace/sifive-hifive1-revb-hello/freedom-metal/gloss/crt0.S:160

  /* Call exit to handle libc's cleanup routines.  Under normal contains this
   * shouldn't even get called, but I'm still not using a tail call here
   * because returning to the METAL is the right thing to do in pathological
   * situations. */
  call exit
20010150:	011050ef          	jal	ra,20015960 <exit>
F:/HiFive-IoT/Workspace/sifive-hifive1-revb-hello/freedom-metal/gloss/crt0.S:165

  /* And here's where we return.  Again, it's a bit odd but the METAL defines
   * this as a bad idea (ie, as opposed to leaving it undefined) and at this
   * point it's really the only thing left to do. */
  mv ra, s0
20010154:	80a2                	mv	ra,s0
F:/HiFive-IoT/Workspace/sifive-hifive1-revb-hello/freedom-metal/gloss/crt0.S:166
  ret
20010156:	8082                	ret

20010158 <_fini>:
_init():
F:/HiFive-IoT/Workspace/sifive-hifive1-revb-hello/freedom-metal/gloss/crt0.S:178
.type   _init, @function
.global _fini
.type   _fini, @function
_init:
_fini:
  ret
20010158:	8082                	ret

2001015a <secondary_main>:
secondary_main():
F:/HiFive-IoT/Workspace/sifive-hifive1-revb-hello/freedom-metal/gloss/crt0.S:189
.weak   secondary_main
.global secondary_main
.type   secondary_main, @function

secondary_main:
  addi sp, sp, -16
2001015a:	1141                	addi	sp,sp,-16
F:/HiFive-IoT/Workspace/sifive-hifive1-revb-hello/freedom-metal/gloss/crt0.S:191
#if __riscv_xlen == 32
  sw ra, 4(sp)
2001015c:	c206                	sw	ra,4(sp)
F:/HiFive-IoT/Workspace/sifive-hifive1-revb-hello/freedom-metal/gloss/crt0.S:195
#else
  sd ra, 8(sp)
#endif
  csrr t0, mhartid
2001015e:	f14022f3          	csrr	t0,mhartid
F:/HiFive-IoT/Workspace/sifive-hifive1-revb-hello/freedom-metal/gloss/crt0.S:196
  la t1, __metal_boot_hart
20010162:	00000313          	li	t1,0
F:/HiFive-IoT/Workspace/sifive-hifive1-revb-hello/freedom-metal/gloss/crt0.S:197
  beq t0, t1, 2f
20010166:	00628563          	beq	t0,t1,20010170 <secondary_main+0x16>
F:/HiFive-IoT/Workspace/sifive-hifive1-revb-hello/freedom-metal/gloss/crt0.S:199
1:
  wfi
2001016a:	10500073          	wfi
F:/HiFive-IoT/Workspace/sifive-hifive1-revb-hello/freedom-metal/gloss/crt0.S:200
  j 1b
2001016e:	bff5                	j	2001016a <secondary_main+0x10>
F:/HiFive-IoT/Workspace/sifive-hifive1-revb-hello/freedom-metal/gloss/crt0.S:202
2:
  call main
20010170:	2885                	jal	200101e0 <main>
F:/HiFive-IoT/Workspace/sifive-hifive1-revb-hello/freedom-metal/gloss/crt0.S:204
#if __riscv_xlen == 32
  lw ra, 4(sp)
20010172:	4092                	lw	ra,4(sp)
F:/HiFive-IoT/Workspace/sifive-hifive1-revb-hello/freedom-metal/gloss/crt0.S:208
#else
  ld ra, 8(sp)
#endif
  addi sp, sp, 16
20010174:	0141                	addi	sp,sp,16
F:/HiFive-IoT/Workspace/sifive-hifive1-revb-hello/freedom-metal/gloss/crt0.S:209
  ret
20010176:	8082                	ret

Disassembly of section .text:

20010180 <register_fini>:
register_fini():
20010180:	dfff0797          	auipc	a5,0xdfff0
20010184:	e8078793          	addi	a5,a5,-384 # 0 <__metal_boot_hart>
20010188:	c799                	beqz	a5,20010196 <register_fini+0x16>
2001018a:	00005517          	auipc	a0,0x5
2001018e:	7fe50513          	addi	a0,a0,2046 # 20015988 <__libc_fini_array>
20010192:	7bc0506f          	j	2001594e <atexit>
20010196:	8082                	ret

20010198 <delay>:
delay():
F:\HiFive-IoT\Workspace\sifive-hifive1-revb-hello\src/hello.c:81

volatile uint32_t *gpio_input_en = 0x10012004;
volatile uint32_t *gpio_input_val = 0x10012000;

void delay(int number_of_seconds) //not actually number of seconds
{
20010198:	7179                	addi	sp,sp,-48
2001019a:	d606                	sw	ra,44(sp)
2001019c:	d422                	sw	s0,40(sp)
2001019e:	1800                	addi	s0,sp,48
200101a0:	fca42e23          	sw	a0,-36(s0)
F:\HiFive-IoT\Workspace\sifive-hifive1-revb-hello\src/hello.c:82
    int milli_seconds = 1000 * number_of_seconds;
200101a4:	fdc42703          	lw	a4,-36(s0)
200101a8:	3e800793          	li	a5,1000
200101ac:	02f707b3          	mul	a5,a4,a5
200101b0:	fef42623          	sw	a5,-20(s0)
F:\HiFive-IoT\Workspace\sifive-hifive1-revb-hello\src/hello.c:83
    clock_t start_time = clock();
200101b4:	551000ef          	jal	ra,20010f04 <clock>
200101b8:	87aa                	mv	a5,a0
200101ba:	fef42423          	sw	a5,-24(s0)
F:\HiFive-IoT\Workspace\sifive-hifive1-revb-hello\src/hello.c:84
    while (clock() < start_time + milli_seconds);
200101be:	0001                	nop
F:\HiFive-IoT\Workspace\sifive-hifive1-revb-hello\src/hello.c:84 (discriminator 1)
200101c0:	545000ef          	jal	ra,20010f04 <clock>
200101c4:	87aa                	mv	a5,a0
200101c6:	86be                	mv	a3,a5
200101c8:	fec42703          	lw	a4,-20(s0)
200101cc:	fe842783          	lw	a5,-24(s0)
200101d0:	97ba                	add	a5,a5,a4
200101d2:	fef6e7e3          	bltu	a3,a5,200101c0 <delay+0x28>
F:\HiFive-IoT\Workspace\sifive-hifive1-revb-hello\src/hello.c:85
}
200101d6:	0001                	nop
200101d8:	50b2                	lw	ra,44(sp)
200101da:	5422                	lw	s0,40(sp)
200101dc:	6145                	addi	sp,sp,48
200101de:	8082                	ret

200101e0 <main>:
main():
F:\HiFive-IoT\Workspace\sifive-hifive1-revb-hello\src/hello.c:94
//void spi_init();
void input_enable(char pin);
uint32_t get_input_val(char pin);

int main()
{
200101e0:	1101                	addi	sp,sp,-32
200101e2:	ce06                	sw	ra,28(sp)
200101e4:	cc22                	sw	s0,24(sp)
200101e6:	1000                	addi	s0,sp,32
F:\HiFive-IoT\Workspace\sifive-hifive1-revb-hello\src/hello.c:95
	printf("Start Programe\n");
200101e8:	200167b7          	lui	a5,0x20016
200101ec:	39878513          	addi	a0,a5,920 # 20016398 <_exit+0x16>
200101f0:	7b5000ef          	jal	ra,200111a4 <puts>
F:\HiFive-IoT\Workspace\sifive-hifive1-revb-hello\src/hello.c:96
	printf("clock rate: %d\n", clock());
200101f4:	511000ef          	jal	ra,20010f04 <clock>
200101f8:	87aa                	mv	a5,a0
200101fa:	85be                	mv	a1,a5
200101fc:	200167b7          	lui	a5,0x20016
20010200:	3a878513          	addi	a0,a5,936 # 200163a8 <_exit+0x26>
20010204:	687000ef          	jal	ra,2001108a <iprintf>
F:\HiFive-IoT\Workspace\sifive-hifive1-revb-hello\src/hello.c:97
	input_enable(WF_INT);
20010208:	4529                	li	a0,10
2001020a:	479000ef          	jal	ra,20010e82 <input_enable>
F:\HiFive-IoT\Workspace\sifive-hifive1-revb-hello\src/hello.c:98
	gpio1 = metal_gpio_get_device(0);
2001020e:	4501                	li	a0,0
20010210:	13e020ef          	jal	ra,2001234e <metal_gpio_get_device>
20010214:	872a                	mv	a4,a0
20010216:	92e1a223          	sw	a4,-1756(gp) # 800008bc <gpio1>
F:\HiFive-IoT\Workspace\sifive-hifive1-revb-hello\src/hello.c:99
	if(gpio1 == NULL)
2001021a:	9241a783          	lw	a5,-1756(gp) # 800008bc <gpio1>
2001021e:	e799                	bnez	a5,2001022c <main+0x4c>
F:\HiFive-IoT\Workspace\sifive-hifive1-revb-hello\src/hello.c:101
	{
		printf("get gpio device failed\n");
20010220:	200167b7          	lui	a5,0x20016
20010224:	3b878513          	addi	a0,a5,952 # 200163b8 <_exit+0x36>
20010228:	77d000ef          	jal	ra,200111a4 <puts>
F:\HiFive-IoT\Workspace\sifive-hifive1-revb-hello\src/hello.c:103
	}
	spi = metal_spi_get_device(0);
2001022c:	4501                	li	a0,0
2001022e:	1a8020ef          	jal	ra,200123d6 <metal_spi_get_device>
20010232:	872a                	mv	a4,a0
20010234:	92e1a623          	sw	a4,-1748(gp) # 800008c4 <spi>
F:\HiFive-IoT\Workspace\sifive-hifive1-revb-hello\src/hello.c:104
	if(spi == NULL)
20010238:	92c1a783          	lw	a5,-1748(gp) # 800008c4 <spi>
2001023c:	eb89                	bnez	a5,2001024e <main+0x6e>
F:\HiFive-IoT\Workspace\sifive-hifive1-revb-hello\src/hello.c:106
	{
		printf("Failed to get spi device\n");
2001023e:	200167b7          	lui	a5,0x20016
20010242:	3d078513          	addi	a0,a5,976 # 200163d0 <_exit+0x4e>
20010246:	75f000ef          	jal	ra,200111a4 <puts>
F:\HiFive-IoT\Workspace\sifive-hifive1-revb-hello\src/hello.c:107
		return 1;
2001024a:	4785                	li	a5,1
2001024c:	a4f1                	j	20010518 <main+0x338>
F:\HiFive-IoT\Workspace\sifive-hifive1-revb-hello\src/hello.c:111
	}
	else
	{
		printf("success to get spi device\n");
2001024e:	200167b7          	lui	a5,0x20016
20010252:	3ec78513          	addi	a0,a5,1004 # 200163ec <_exit+0x6a>
20010256:	74f000ef          	jal	ra,200111a4 <puts>
F:\HiFive-IoT\Workspace\sifive-hifive1-revb-hello\src/hello.c:115
	}

//	metal_gpio_enable_output(gpio1,ESP_CS);
	metal_gpio_enable_output(gpio1,RED);
2001025a:	9241a783          	lw	a5,-1756(gp) # 800008bc <gpio1>
2001025e:	45d9                	li	a1,22
20010260:	853e                	mv	a0,a5
20010262:	044020ef          	jal	ra,200122a6 <metal_gpio_enable_output>
F:\HiFive-IoT\Workspace\sifive-hifive1-revb-hello\src/hello.c:116
	metal_gpio_enable_output(gpio1,BLUE);
20010266:	9241a783          	lw	a5,-1756(gp) # 800008bc <gpio1>
2001026a:	45d5                	li	a1,21
2001026c:	853e                	mv	a0,a5
2001026e:	038020ef          	jal	ra,200122a6 <metal_gpio_enable_output>
F:\HiFive-IoT\Workspace\sifive-hifive1-revb-hello\src/hello.c:117
	metal_gpio_enable_output(gpio1,GREEN);
20010272:	9241a783          	lw	a5,-1756(gp) # 800008bc <gpio1>
20010276:	45cd                	li	a1,19
20010278:	853e                	mv	a0,a5
2001027a:	02c020ef          	jal	ra,200122a6 <metal_gpio_enable_output>
F:\HiFive-IoT\Workspace\sifive-hifive1-revb-hello\src/hello.c:119

	metal_gpio_set_pin(gpio1, ESP_CS, 1);
2001027e:	9241a783          	lw	a5,-1756(gp) # 800008bc <gpio1>
20010282:	4605                	li	a2,1
20010284:	45a5                	li	a1,9
20010286:	853e                	mv	a0,a5
20010288:	05e020ef          	jal	ra,200122e6 <metal_gpio_set_pin>
F:\HiFive-IoT\Workspace\sifive-hifive1-revb-hello\src/hello.c:120
	metal_gpio_set_pin(gpio1, RED, 0);
2001028c:	9241a783          	lw	a5,-1756(gp) # 800008bc <gpio1>
20010290:	4601                	li	a2,0
20010292:	45d9                	li	a1,22
20010294:	853e                	mv	a0,a5
20010296:	050020ef          	jal	ra,200122e6 <metal_gpio_set_pin>
F:\HiFive-IoT\Workspace\sifive-hifive1-revb-hello\src/hello.c:121
	metal_gpio_set_pin(gpio1, GREEN, 1);
2001029a:	9241a783          	lw	a5,-1756(gp) # 800008bc <gpio1>
2001029e:	4605                	li	a2,1
200102a0:	45cd                	li	a1,19
200102a2:	853e                	mv	a0,a5
200102a4:	042020ef          	jal	ra,200122e6 <metal_gpio_set_pin>
F:\HiFive-IoT\Workspace\sifive-hifive1-revb-hello\src/hello.c:122
	metal_gpio_set_pin(gpio1, BLUE, 1);
200102a8:	9241a783          	lw	a5,-1756(gp) # 800008bc <gpio1>
200102ac:	4605                	li	a2,1
200102ae:	45d5                	li	a1,21
200102b0:	853e                	mv	a0,a5
200102b2:	034020ef          	jal	ra,200122e6 <metal_gpio_set_pin>
F:\HiFive-IoT\Workspace\sifive-hifive1-revb-hello\src/hello.c:126

	/* Initialize the SPI device to 2Mhz */
//	handshake();
	metal_spi_init(spi, 100000);
200102b6:	92c1a703          	lw	a4,-1748(gp) # 800008c4 <spi>
200102ba:	67e1                	lui	a5,0x18
200102bc:	6a078593          	addi	a1,a5,1696 # 186a0 <__heap_size+0x182a0>
200102c0:	853a                	mv	a0,a4
200102c2:	0ba020ef          	jal	ra,2001237c <metal_spi_init>
F:\HiFive-IoT\Workspace\sifive-hifive1-revb-hello\src/hello.c:130
//	metal_spi_set_baud_rate(spi, 100000);
//	uint32_t* abcxyz = 0x10024000;

	*csmode = 0;
200102c6:	800007b7          	lui	a5,0x80000
200102ca:	7a07a783          	lw	a5,1952(a5) # 800007a0 <metal_segment_heap_target_end+0xfffff6d4>
200102ce:	0007a023          	sw	zero,0(a5)
F:\HiFive-IoT\Workspace\sifive-hifive1-revb-hello\src/hello.c:131
	uint32_t* csid = 0x10024010;
200102d2:	100247b7          	lui	a5,0x10024
200102d6:	07c1                	addi	a5,a5,16
200102d8:	fef42623          	sw	a5,-20(s0)
F:\HiFive-IoT\Workspace\sifive-hifive1-revb-hello\src/hello.c:133

	send_cmd("AT\r\n");
200102dc:	200167b7          	lui	a5,0x20016
200102e0:	40878513          	addi	a0,a5,1032 # 20016408 <_exit+0x86>
200102e4:	2c3d                	jal	20010522 <send_cmd>
F:\HiFive-IoT\Workspace\sifive-hifive1-revb-hello\src/hello.c:134
	while(!get_input_val(WF_INT));
200102e6:	0001                	nop
F:\HiFive-IoT\Workspace\sifive-hifive1-revb-hello\src/hello.c:134 (discriminator 1)
200102e8:	4529                	li	a0,10
200102ea:	3dd000ef          	jal	ra,20010ec6 <get_input_val>
200102ee:	87aa                	mv	a5,a0
200102f0:	dfe5                	beqz	a5,200102e8 <main+0x108>
F:\HiFive-IoT\Workspace\sifive-hifive1-revb-hello\src/hello.c:135
	if(get_data_esp())
200102f2:	770000ef          	jal	ra,20010a62 <get_data_esp>
200102f6:	87aa                	mv	a5,a0
200102f8:	c799                	beqz	a5,20010306 <main+0x126>
F:\HiFive-IoT\Workspace\sifive-hifive1-revb-hello\src/hello.c:137
	{
		printf("OK\n");
200102fa:	200167b7          	lui	a5,0x20016
200102fe:	41078513          	addi	a0,a5,1040 # 20016410 <_exit+0x8e>
20010302:	6a3000ef          	jal	ra,200111a4 <puts>
F:\HiFive-IoT\Workspace\sifive-hifive1-revb-hello\src/hello.c:139
	}
	send_cmd("AT\r\n");
20010306:	200167b7          	lui	a5,0x20016
2001030a:	40878513          	addi	a0,a5,1032 # 20016408 <_exit+0x86>
2001030e:	2c11                	jal	20010522 <send_cmd>
F:\HiFive-IoT\Workspace\sifive-hifive1-revb-hello\src/hello.c:140
	while(!get_input_val(WF_INT));
20010310:	0001                	nop
F:\HiFive-IoT\Workspace\sifive-hifive1-revb-hello\src/hello.c:140 (discriminator 1)
20010312:	4529                	li	a0,10
20010314:	3b3000ef          	jal	ra,20010ec6 <get_input_val>
20010318:	87aa                	mv	a5,a0
2001031a:	dfe5                	beqz	a5,20010312 <main+0x132>
F:\HiFive-IoT\Workspace\sifive-hifive1-revb-hello\src/hello.c:141
	if(get_data_esp())
2001031c:	746000ef          	jal	ra,20010a62 <get_data_esp>
20010320:	87aa                	mv	a5,a0
20010322:	c799                	beqz	a5,20010330 <main+0x150>
F:\HiFive-IoT\Workspace\sifive-hifive1-revb-hello\src/hello.c:143
	{
		printf("OK\n");
20010324:	200167b7          	lui	a5,0x20016
20010328:	41078513          	addi	a0,a5,1040 # 20016410 <_exit+0x8e>
2001032c:	679000ef          	jal	ra,200111a4 <puts>
F:\HiFive-IoT\Workspace\sifive-hifive1-revb-hello\src/hello.c:145
	}
	send_cmd("AT+CWMODE=1\r\n");
20010330:	200167b7          	lui	a5,0x20016
20010334:	41478513          	addi	a0,a5,1044 # 20016414 <_exit+0x92>
20010338:	22ed                	jal	20010522 <send_cmd>
F:\HiFive-IoT\Workspace\sifive-hifive1-revb-hello\src/hello.c:146
	if(get_data_esp())
2001033a:	728000ef          	jal	ra,20010a62 <get_data_esp>
2001033e:	87aa                	mv	a5,a0
20010340:	c799                	beqz	a5,2001034e <main+0x16e>
F:\HiFive-IoT\Workspace\sifive-hifive1-revb-hello\src/hello.c:148
	{
		printf("OK\n");
20010342:	200167b7          	lui	a5,0x20016
20010346:	41078513          	addi	a0,a5,1040 # 20016410 <_exit+0x8e>
2001034a:	65b000ef          	jal	ra,200111a4 <puts>
F:\HiFive-IoT\Workspace\sifive-hifive1-revb-hello\src/hello.c:151
	}

	send_cmd("AT+CWJAP=\"SHCVN02\",\"khongduoc\"\r\n");
2001034e:	200167b7          	lui	a5,0x20016
20010352:	42478513          	addi	a0,a5,1060 # 20016424 <_exit+0xa2>
20010356:	22f1                	jal	20010522 <send_cmd>
F:\HiFive-IoT\Workspace\sifive-hifive1-revb-hello\src/hello.c:152
	while(!get_input_val(WF_INT));
20010358:	0001                	nop
F:\HiFive-IoT\Workspace\sifive-hifive1-revb-hello\src/hello.c:152 (discriminator 1)
2001035a:	4529                	li	a0,10
2001035c:	36b000ef          	jal	ra,20010ec6 <get_input_val>
20010360:	87aa                	mv	a5,a0
20010362:	dfe5                	beqz	a5,2001035a <main+0x17a>
F:\HiFive-IoT\Workspace\sifive-hifive1-revb-hello\src/hello.c:153
	if(get_data_esp())
20010364:	6fe000ef          	jal	ra,20010a62 <get_data_esp>
20010368:	87aa                	mv	a5,a0
2001036a:	c799                	beqz	a5,20010378 <main+0x198>
F:\HiFive-IoT\Workspace\sifive-hifive1-revb-hello\src/hello.c:155
	{
		printf("OK\n");
2001036c:	200167b7          	lui	a5,0x20016
20010370:	41078513          	addi	a0,a5,1040 # 20016410 <_exit+0x8e>
20010374:	631000ef          	jal	ra,200111a4 <puts>
F:\HiFive-IoT\Workspace\sifive-hifive1-revb-hello\src/hello.c:157
	}
	while(!get_input_val(WF_INT));
20010378:	0001                	nop
F:\HiFive-IoT\Workspace\sifive-hifive1-revb-hello\src/hello.c:157 (discriminator 1)
2001037a:	4529                	li	a0,10
2001037c:	34b000ef          	jal	ra,20010ec6 <get_input_val>
20010380:	87aa                	mv	a5,a0
20010382:	dfe5                	beqz	a5,2001037a <main+0x19a>
F:\HiFive-IoT\Workspace\sifive-hifive1-revb-hello\src/hello.c:158
	if(get_data_esp())
20010384:	6de000ef          	jal	ra,20010a62 <get_data_esp>
20010388:	87aa                	mv	a5,a0
2001038a:	c799                	beqz	a5,20010398 <main+0x1b8>
F:\HiFive-IoT\Workspace\sifive-hifive1-revb-hello\src/hello.c:160
	{
		printf("OK\n");
2001038c:	200167b7          	lui	a5,0x20016
20010390:	41078513          	addi	a0,a5,1040 # 20016410 <_exit+0x8e>
20010394:	611000ef          	jal	ra,200111a4 <puts>
F:\HiFive-IoT\Workspace\sifive-hifive1-revb-hello\src/hello.c:162
	}
	while(!get_input_val(WF_INT));
20010398:	0001                	nop
F:\HiFive-IoT\Workspace\sifive-hifive1-revb-hello\src/hello.c:162 (discriminator 1)
2001039a:	4529                	li	a0,10
2001039c:	32b000ef          	jal	ra,20010ec6 <get_input_val>
200103a0:	87aa                	mv	a5,a0
200103a2:	dfe5                	beqz	a5,2001039a <main+0x1ba>
F:\HiFive-IoT\Workspace\sifive-hifive1-revb-hello\src/hello.c:163
	if(get_data_esp())
200103a4:	6be000ef          	jal	ra,20010a62 <get_data_esp>
200103a8:	87aa                	mv	a5,a0
200103aa:	c799                	beqz	a5,200103b8 <main+0x1d8>
F:\HiFive-IoT\Workspace\sifive-hifive1-revb-hello\src/hello.c:165
	{
		printf("OK\n");
200103ac:	200167b7          	lui	a5,0x20016
200103b0:	41078513          	addi	a0,a5,1040 # 20016410 <_exit+0x8e>
200103b4:	5f1000ef          	jal	ra,200111a4 <puts>
F:\HiFive-IoT\Workspace\sifive-hifive1-revb-hello\src/hello.c:173
//	while(!get_input_val(WF_INT));
//	if(get_esp())
//	{
//		printf("OK\n");
//	}
	send_cmd("AT+CIPSTART=\"TCP\",\"hifivedemo.s3-ap-southeast-1.amazonaws.com\",80,1\r\n");
200103b8:	200167b7          	lui	a5,0x20016
200103bc:	44878513          	addi	a0,a5,1096 # 20016448 <_exit+0xc6>
200103c0:	228d                	jal	20010522 <send_cmd>
F:\HiFive-IoT\Workspace\sifive-hifive1-revb-hello\src/hello.c:174
	while(!get_input_val(WF_INT));
200103c2:	0001                	nop
F:\HiFive-IoT\Workspace\sifive-hifive1-revb-hello\src/hello.c:174 (discriminator 1)
200103c4:	4529                	li	a0,10
200103c6:	301000ef          	jal	ra,20010ec6 <get_input_val>
200103ca:	87aa                	mv	a5,a0
200103cc:	dfe5                	beqz	a5,200103c4 <main+0x1e4>
F:\HiFive-IoT\Workspace\sifive-hifive1-revb-hello\src/hello.c:175
	if(get_data_esp())
200103ce:	694000ef          	jal	ra,20010a62 <get_data_esp>
200103d2:	87aa                	mv	a5,a0
200103d4:	c799                	beqz	a5,200103e2 <main+0x202>
F:\HiFive-IoT\Workspace\sifive-hifive1-revb-hello\src/hello.c:177
	{
		printf("OK\n");
200103d6:	200167b7          	lui	a5,0x20016
200103da:	41078513          	addi	a0,a5,1040 # 20016410 <_exit+0x8e>
200103de:	5c7000ef          	jal	ra,200111a4 <puts>
F:\HiFive-IoT\Workspace\sifive-hifive1-revb-hello\src/hello.c:179
	}
	while(!get_input_val(WF_INT));
200103e2:	0001                	nop
F:\HiFive-IoT\Workspace\sifive-hifive1-revb-hello\src/hello.c:179 (discriminator 1)
200103e4:	4529                	li	a0,10
200103e6:	2e1000ef          	jal	ra,20010ec6 <get_input_val>
200103ea:	87aa                	mv	a5,a0
200103ec:	dfe5                	beqz	a5,200103e4 <main+0x204>
F:\HiFive-IoT\Workspace\sifive-hifive1-revb-hello\src/hello.c:180
	if(get_data_esp())
200103ee:	674000ef          	jal	ra,20010a62 <get_data_esp>
200103f2:	87aa                	mv	a5,a0
200103f4:	c799                	beqz	a5,20010402 <main+0x222>
F:\HiFive-IoT\Workspace\sifive-hifive1-revb-hello\src/hello.c:182
	{
		printf("OK\n");
200103f6:	200167b7          	lui	a5,0x20016
200103fa:	41078513          	addi	a0,a5,1040 # 20016410 <_exit+0x8e>
200103fe:	5a7000ef          	jal	ra,200111a4 <puts>
F:\HiFive-IoT\Workspace\sifive-hifive1-revb-hello\src/hello.c:184
	}
	send_cmd("AT+CIPSEND=76\r\n");
20010402:	200167b7          	lui	a5,0x20016
20010406:	49078513          	addi	a0,a5,1168 # 20016490 <_exit+0x10e>
2001040a:	2a21                	jal	20010522 <send_cmd>
F:\HiFive-IoT\Workspace\sifive-hifive1-revb-hello\src/hello.c:185
	while(!get_input_val(WF_INT));
2001040c:	0001                	nop
F:\HiFive-IoT\Workspace\sifive-hifive1-revb-hello\src/hello.c:185 (discriminator 1)
2001040e:	4529                	li	a0,10
20010410:	2b7000ef          	jal	ra,20010ec6 <get_input_val>
20010414:	87aa                	mv	a5,a0
20010416:	dfe5                	beqz	a5,2001040e <main+0x22e>
F:\HiFive-IoT\Workspace\sifive-hifive1-revb-hello\src/hello.c:186
	if(get_data_esp())
20010418:	64a000ef          	jal	ra,20010a62 <get_data_esp>
2001041c:	87aa                	mv	a5,a0
2001041e:	c799                	beqz	a5,2001042c <main+0x24c>
F:\HiFive-IoT\Workspace\sifive-hifive1-revb-hello\src/hello.c:188
	{
		printf("OK\n");
20010420:	200167b7          	lui	a5,0x20016
20010424:	41078513          	addi	a0,a5,1040 # 20016410 <_exit+0x8e>
20010428:	57d000ef          	jal	ra,200111a4 <puts>
F:\HiFive-IoT\Workspace\sifive-hifive1-revb-hello\src/hello.c:190
	}
	while(!get_input_val(WF_INT));
2001042c:	0001                	nop
F:\HiFive-IoT\Workspace\sifive-hifive1-revb-hello\src/hello.c:190 (discriminator 1)
2001042e:	4529                	li	a0,10
20010430:	297000ef          	jal	ra,20010ec6 <get_input_val>
20010434:	87aa                	mv	a5,a0
20010436:	dfe5                	beqz	a5,2001042e <main+0x24e>
F:\HiFive-IoT\Workspace\sifive-hifive1-revb-hello\src/hello.c:191
	if(get_data_esp())
20010438:	62a000ef          	jal	ra,20010a62 <get_data_esp>
2001043c:	87aa                	mv	a5,a0
2001043e:	c799                	beqz	a5,2001044c <main+0x26c>
F:\HiFive-IoT\Workspace\sifive-hifive1-revb-hello\src/hello.c:193
	{
		printf("OK\n");
20010440:	200167b7          	lui	a5,0x20016
20010444:	41078513          	addi	a0,a5,1040 # 20016410 <_exit+0x8e>
20010448:	55d000ef          	jal	ra,200111a4 <puts>
F:\HiFive-IoT\Workspace\sifive-hifive1-revb-hello\src/hello.c:195
	}
	send_cmd("GET /data.txt HTTP/1.1\r\nHost: hifivedemo.s3-ap-southeast-1.amazonaws.com\r\n\r\n");
2001044c:	200167b7          	lui	a5,0x20016
20010450:	4a078513          	addi	a0,a5,1184 # 200164a0 <_exit+0x11e>
20010454:	20f9                	jal	20010522 <send_cmd>
F:\HiFive-IoT\Workspace\sifive-hifive1-revb-hello\src/hello.c:196
	while(!get_input_val(WF_INT));
20010456:	0001                	nop
F:\HiFive-IoT\Workspace\sifive-hifive1-revb-hello\src/hello.c:196 (discriminator 1)
20010458:	4529                	li	a0,10
2001045a:	26d000ef          	jal	ra,20010ec6 <get_input_val>
2001045e:	87aa                	mv	a5,a0
20010460:	dfe5                	beqz	a5,20010458 <main+0x278>
F:\HiFive-IoT\Workspace\sifive-hifive1-revb-hello\src/hello.c:197
	if(get_data_esp())
20010462:	600000ef          	jal	ra,20010a62 <get_data_esp>
20010466:	87aa                	mv	a5,a0
20010468:	c799                	beqz	a5,20010476 <main+0x296>
F:\HiFive-IoT\Workspace\sifive-hifive1-revb-hello\src/hello.c:199
	{
		printf("OK\n");
2001046a:	200167b7          	lui	a5,0x20016
2001046e:	41078513          	addi	a0,a5,1040 # 20016410 <_exit+0x8e>
20010472:	533000ef          	jal	ra,200111a4 <puts>
F:\HiFive-IoT\Workspace\sifive-hifive1-revb-hello\src/hello.c:201
	}
	while(!get_input_val(WF_INT));
20010476:	0001                	nop
F:\HiFive-IoT\Workspace\sifive-hifive1-revb-hello\src/hello.c:201 (discriminator 1)
20010478:	4529                	li	a0,10
2001047a:	24d000ef          	jal	ra,20010ec6 <get_input_val>
2001047e:	87aa                	mv	a5,a0
20010480:	dfe5                	beqz	a5,20010478 <main+0x298>
F:\HiFive-IoT\Workspace\sifive-hifive1-revb-hello\src/hello.c:202
	if(get_data_esp())
20010482:	23c5                	jal	20010a62 <get_data_esp>
20010484:	87aa                	mv	a5,a0
20010486:	c799                	beqz	a5,20010494 <main+0x2b4>
F:\HiFive-IoT\Workspace\sifive-hifive1-revb-hello\src/hello.c:204
	{
		printf("OK\n");
20010488:	200167b7          	lui	a5,0x20016
2001048c:	41078513          	addi	a0,a5,1040 # 20016410 <_exit+0x8e>
20010490:	515000ef          	jal	ra,200111a4 <puts>
F:\HiFive-IoT\Workspace\sifive-hifive1-revb-hello\src/hello.c:206
	}
	while(!get_input_val(WF_INT));
20010494:	0001                	nop
F:\HiFive-IoT\Workspace\sifive-hifive1-revb-hello\src/hello.c:206 (discriminator 1)
20010496:	4529                	li	a0,10
20010498:	22f000ef          	jal	ra,20010ec6 <get_input_val>
2001049c:	87aa                	mv	a5,a0
2001049e:	dfe5                	beqz	a5,20010496 <main+0x2b6>
F:\HiFive-IoT\Workspace\sifive-hifive1-revb-hello\src/hello.c:207
	if(get_esp())
200104a0:	24ed                	jal	2001078a <get_esp>
200104a2:	87aa                	mv	a5,a0
200104a4:	c799                	beqz	a5,200104b2 <main+0x2d2>
F:\HiFive-IoT\Workspace\sifive-hifive1-revb-hello\src/hello.c:209
	{
		printf("OK\n");
200104a6:	200167b7          	lui	a5,0x20016
200104aa:	41078513          	addi	a0,a5,1040 # 20016410 <_exit+0x8e>
200104ae:	4f7000ef          	jal	ra,200111a4 <puts>
F:\HiFive-IoT\Workspace\sifive-hifive1-revb-hello\src/hello.c:211
	}
	while(!get_input_val(WF_INT));
200104b2:	0001                	nop
F:\HiFive-IoT\Workspace\sifive-hifive1-revb-hello\src/hello.c:211 (discriminator 1)
200104b4:	4529                	li	a0,10
200104b6:	211000ef          	jal	ra,20010ec6 <get_input_val>
200104ba:	87aa                	mv	a5,a0
200104bc:	dfe5                	beqz	a5,200104b4 <main+0x2d4>
F:\HiFive-IoT\Workspace\sifive-hifive1-revb-hello\src/hello.c:212
	if(get_data_esp())
200104be:	2355                	jal	20010a62 <get_data_esp>
200104c0:	87aa                	mv	a5,a0
200104c2:	c799                	beqz	a5,200104d0 <main+0x2f0>
F:\HiFive-IoT\Workspace\sifive-hifive1-revb-hello\src/hello.c:214
	{
		printf("OK\n");
200104c4:	200167b7          	lui	a5,0x20016
200104c8:	41078513          	addi	a0,a5,1040 # 20016410 <_exit+0x8e>
200104cc:	4d9000ef          	jal	ra,200111a4 <puts>
F:\HiFive-IoT\Workspace\sifive-hifive1-revb-hello\src/hello.c:217
	}

	printf("Send data via SPI bus\n");
200104d0:	200167b7          	lui	a5,0x20016
200104d4:	4f078513          	addi	a0,a5,1264 # 200164f0 <_exit+0x16e>
200104d8:	4cd000ef          	jal	ra,200111a4 <puts>
F:\HiFive-IoT\Workspace\sifive-hifive1-revb-hello\src/hello.c:218
	metal_gpio_set_pin(gpio1, RED, 1);
200104dc:	9241a783          	lw	a5,-1756(gp) # 800008bc <gpio1>
200104e0:	4605                	li	a2,1
200104e2:	45d9                	li	a1,22
200104e4:	853e                	mv	a0,a5
200104e6:	601010ef          	jal	ra,200122e6 <metal_gpio_set_pin>
F:\HiFive-IoT\Workspace\sifive-hifive1-revb-hello\src/hello.c:221 (discriminator 1)
	while(1)
	{
		metal_gpio_set_pin(gpio1, GREEN, 1);
200104ea:	9241a783          	lw	a5,-1756(gp) # 800008bc <gpio1>
200104ee:	4605                	li	a2,1
200104f0:	45cd                	li	a1,19
200104f2:	853e                	mv	a0,a5
200104f4:	5f3010ef          	jal	ra,200122e6 <metal_gpio_set_pin>
F:\HiFive-IoT\Workspace\sifive-hifive1-revb-hello\src/hello.c:222 (discriminator 1)
		delay(10000);
200104f8:	6789                	lui	a5,0x2
200104fa:	71078513          	addi	a0,a5,1808 # 2710 <__heap_size+0x2310>
200104fe:	3969                	jal	20010198 <delay>
F:\HiFive-IoT\Workspace\sifive-hifive1-revb-hello\src/hello.c:223 (discriminator 1)
		metal_gpio_set_pin(gpio1, GREEN, 0);
20010500:	9241a783          	lw	a5,-1756(gp) # 800008bc <gpio1>
20010504:	4601                	li	a2,0
20010506:	45cd                	li	a1,19
20010508:	853e                	mv	a0,a5
2001050a:	5dd010ef          	jal	ra,200122e6 <metal_gpio_set_pin>
F:\HiFive-IoT\Workspace\sifive-hifive1-revb-hello\src/hello.c:224 (discriminator 1)
		delay(10000);
2001050e:	6789                	lui	a5,0x2
20010510:	71078513          	addi	a0,a5,1808 # 2710 <__heap_size+0x2310>
20010514:	3151                	jal	20010198 <delay>
F:\HiFive-IoT\Workspace\sifive-hifive1-revb-hello\src/hello.c:221 (discriminator 1)
		metal_gpio_set_pin(gpio1, GREEN, 1);
20010516:	bfd1                	j	200104ea <main+0x30a>
F:\HiFive-IoT\Workspace\sifive-hifive1-revb-hello\src/hello.c:227
	}

}
20010518:	853e                	mv	a0,a5
2001051a:	40f2                	lw	ra,28(sp)
2001051c:	4462                	lw	s0,24(sp)
2001051e:	6105                	addi	sp,sp,32
20010520:	8082                	ret

20010522 <send_cmd>:
send_cmd():
F:\HiFive-IoT\Workspace\sifive-hifive1-revb-hello\src/hello.c:230

void send_cmd(char* cmd)
{
20010522:	7139                	addi	sp,sp,-64
20010524:	de06                	sw	ra,60(sp)
20010526:	dc22                	sw	s0,56(sp)
20010528:	0080                	addi	s0,sp,64
2001052a:	fca42623          	sw	a0,-52(s0)
F:\HiFive-IoT\Workspace\sifive-hifive1-revb-hello\src/hello.c:231
	int len = strlen(cmd);
2001052e:	fcc42503          	lw	a0,-52(s0)
20010532:	47d000ef          	jal	ra,200111ae <strlen>
20010536:	87aa                	mv	a5,a0
20010538:	fcf42e23          	sw	a5,-36(s0)
F:\HiFive-IoT\Workspace\sifive-hifive1-revb-hello\src/hello.c:233
	uint32_t temp;
	char abc[] = {0x02, 0x00, 0x00, 0x00};
2001053c:	4789                	li	a5,2
2001053e:	fcf40c23          	sb	a5,-40(s0)
20010542:	fc040ca3          	sb	zero,-39(s0)
20010546:	fc040d23          	sb	zero,-38(s0)
2001054a:	fc040da3          	sb	zero,-37(s0)
F:\HiFive-IoT\Workspace\sifive-hifive1-revb-hello\src/hello.c:234
	char xyz[] = {len, 0x00, 0x00, 0x41};
2001054e:	fdc42783          	lw	a5,-36(s0)
20010552:	0ff7f793          	andi	a5,a5,255
20010556:	fcf40a23          	sb	a5,-44(s0)
2001055a:	fc040aa3          	sb	zero,-43(s0)
2001055e:	fc040b23          	sb	zero,-42(s0)
20010562:	04100793          	li	a5,65
20010566:	fcf40ba3          	sb	a5,-41(s0)
F:\HiFive-IoT\Workspace\sifive-hifive1-revb-hello\src/hello.c:235
	printf("%s\n", cmd);
2001056a:	fcc42503          	lw	a0,-52(s0)
2001056e:	437000ef          	jal	ra,200111a4 <puts>
F:\HiFive-IoT\Workspace\sifive-hifive1-revb-hello\src/hello.c:236
	while(!get_input_val(WF_INT))
20010572:	a871                	j	2001060e <send_cmd+0xec>
F:\HiFive-IoT\Workspace\sifive-hifive1-revb-hello\src/hello.c:238
	{
		*delay0 = (*delay0 & 0xFF00FFFF);
20010574:	80c1a783          	lw	a5,-2036(gp) # 800007a4 <delay0>
20010578:	4394                	lw	a3,0(a5)
2001057a:	80c1a783          	lw	a5,-2036(gp) # 800007a4 <delay0>
2001057e:	ff010737          	lui	a4,0xff010
20010582:	177d                	addi	a4,a4,-1
20010584:	8f75                	and	a4,a4,a3
20010586:	c398                	sw	a4,0(a5)
F:\HiFive-IoT\Workspace\sifive-hifive1-revb-hello\src/hello.c:239
		*csmode = 2;
20010588:	800007b7          	lui	a5,0x80000
2001058c:	7a07a783          	lw	a5,1952(a5) # 800007a0 <metal_segment_heap_target_end+0xfffff6d4>
20010590:	4709                	li	a4,2
20010592:	c398                	sw	a4,0(a5)
F:\HiFive-IoT\Workspace\sifive-hifive1-revb-hello\src/hello.c:240
		for(int i = 0; i<4; i ++)
20010594:	fe042423          	sw	zero,-24(s0)
20010598:	a8a9                	j	200105f2 <send_cmd+0xd0>
F:\HiFive-IoT\Workspace\sifive-hifive1-revb-hello\src/hello.c:242
		{
			*txdata = abc[i];
2001059a:	fe842783          	lw	a5,-24(s0)
2001059e:	ff040713          	addi	a4,s0,-16
200105a2:	97ba                	add	a5,a5,a4
200105a4:	fe87c703          	lbu	a4,-24(a5)
200105a8:	800007b7          	lui	a5,0x80000
200105ac:	7987a783          	lw	a5,1944(a5) # 80000798 <metal_segment_heap_target_end+0xfffff6cc>
200105b0:	c398                	sw	a4,0(a5)
F:\HiFive-IoT\Workspace\sifive-hifive1-revb-hello\src/hello.c:243
			while (*txdata & METAL_SPI_TXDATA_FULL);
200105b2:	0001                	nop
F:\HiFive-IoT\Workspace\sifive-hifive1-revb-hello\src/hello.c:243 (discriminator 1)
200105b4:	800007b7          	lui	a5,0x80000
200105b8:	7987a783          	lw	a5,1944(a5) # 80000798 <metal_segment_heap_target_end+0xfffff6cc>
200105bc:	439c                	lw	a5,0(a5)
200105be:	fe07cbe3          	bltz	a5,200105b4 <send_cmd+0x92>
F:\HiFive-IoT\Workspace\sifive-hifive1-revb-hello\src/hello.c:244
			temp = (*rxdata);
200105c2:	800007b7          	lui	a5,0x80000
200105c6:	79c7a783          	lw	a5,1948(a5) # 8000079c <metal_segment_heap_target_end+0xfffff6d0>
200105ca:	439c                	lw	a5,0(a5)
200105cc:	fef42623          	sw	a5,-20(s0)
F:\HiFive-IoT\Workspace\sifive-hifive1-revb-hello\src/hello.c:245
			while (temp & METAL_SPI_TXDATA_FULL)
200105d0:	a801                	j	200105e0 <send_cmd+0xbe>
F:\HiFive-IoT\Workspace\sifive-hifive1-revb-hello\src/hello.c:247
			{
				temp = (*rxdata);
200105d2:	800007b7          	lui	a5,0x80000
200105d6:	79c7a783          	lw	a5,1948(a5) # 8000079c <metal_segment_heap_target_end+0xfffff6d0>
200105da:	439c                	lw	a5,0(a5)
200105dc:	fef42623          	sw	a5,-20(s0)
F:\HiFive-IoT\Workspace\sifive-hifive1-revb-hello\src/hello.c:245
			while (temp & METAL_SPI_TXDATA_FULL)
200105e0:	fec42783          	lw	a5,-20(s0)
200105e4:	fe07c7e3          	bltz	a5,200105d2 <send_cmd+0xb0>
F:\HiFive-IoT\Workspace\sifive-hifive1-revb-hello\src/hello.c:240 (discriminator 2)
		for(int i = 0; i<4; i ++)
200105e8:	fe842783          	lw	a5,-24(s0)
200105ec:	0785                	addi	a5,a5,1
200105ee:	fef42423          	sw	a5,-24(s0)
F:\HiFive-IoT\Workspace\sifive-hifive1-revb-hello\src/hello.c:240 (discriminator 1)
200105f2:	fe842703          	lw	a4,-24(s0)
200105f6:	478d                	li	a5,3
200105f8:	fae7d1e3          	bge	a5,a4,2001059a <send_cmd+0x78>
F:\HiFive-IoT\Workspace\sifive-hifive1-revb-hello\src/hello.c:250
			}
		}
		*csmode = 0;
200105fc:	800007b7          	lui	a5,0x80000
20010600:	7a07a783          	lw	a5,1952(a5) # 800007a0 <metal_segment_heap_target_end+0xfffff6d4>
20010604:	0007a023          	sw	zero,0(a5)
F:\HiFive-IoT\Workspace\sifive-hifive1-revb-hello\src/hello.c:251
		delay(50);
20010608:	03200513          	li	a0,50
2001060c:	3671                	jal	20010198 <delay>
F:\HiFive-IoT\Workspace\sifive-hifive1-revb-hello\src/hello.c:236
	while(!get_input_val(WF_INT))
2001060e:	4529                	li	a0,10
20010610:	0b7000ef          	jal	ra,20010ec6 <get_input_val>
20010614:	87aa                	mv	a5,a0
20010616:	dfb9                	beqz	a5,20010574 <send_cmd+0x52>
F:\HiFive-IoT\Workspace\sifive-hifive1-revb-hello\src/hello.c:254
	}

	*delay0 = (*delay0 & 0xFF00FFFF);
20010618:	80c1a783          	lw	a5,-2036(gp) # 800007a4 <delay0>
2001061c:	4394                	lw	a3,0(a5)
2001061e:	80c1a783          	lw	a5,-2036(gp) # 800007a4 <delay0>
20010622:	ff010737          	lui	a4,0xff010
20010626:	177d                	addi	a4,a4,-1
20010628:	8f75                	and	a4,a4,a3
2001062a:	c398                	sw	a4,0(a5)
F:\HiFive-IoT\Workspace\sifive-hifive1-revb-hello\src/hello.c:255
	*csmode = 2;
2001062c:	800007b7          	lui	a5,0x80000
20010630:	7a07a783          	lw	a5,1952(a5) # 800007a0 <metal_segment_heap_target_end+0xfffff6d4>
20010634:	4709                	li	a4,2
20010636:	c398                	sw	a4,0(a5)
F:\HiFive-IoT\Workspace\sifive-hifive1-revb-hello\src/hello.c:256
	while(!get_input_val(WF_INT));
20010638:	0001                	nop
F:\HiFive-IoT\Workspace\sifive-hifive1-revb-hello\src/hello.c:256 (discriminator 1)
2001063a:	4529                	li	a0,10
2001063c:	08b000ef          	jal	ra,20010ec6 <get_input_val>
20010640:	87aa                	mv	a5,a0
20010642:	dfe5                	beqz	a5,2001063a <send_cmd+0x118>
F:\HiFive-IoT\Workspace\sifive-hifive1-revb-hello\src/hello.c:257
	for(int i = 0; i<4; i ++)
20010644:	fe042223          	sw	zero,-28(s0)
20010648:	a885                	j	200106b8 <send_cmd+0x196>
F:\HiFive-IoT\Workspace\sifive-hifive1-revb-hello\src/hello.c:259
	{
		*txdata = xyz[i];
2001064a:	fe442783          	lw	a5,-28(s0)
2001064e:	ff040713          	addi	a4,s0,-16
20010652:	97ba                	add	a5,a5,a4
20010654:	fe47c703          	lbu	a4,-28(a5)
20010658:	800007b7          	lui	a5,0x80000
2001065c:	7987a783          	lw	a5,1944(a5) # 80000798 <metal_segment_heap_target_end+0xfffff6cc>
20010660:	c398                	sw	a4,0(a5)
F:\HiFive-IoT\Workspace\sifive-hifive1-revb-hello\src/hello.c:260
		while (*txdata & METAL_SPI_TXDATA_FULL);
20010662:	0001                	nop
F:\HiFive-IoT\Workspace\sifive-hifive1-revb-hello\src/hello.c:260 (discriminator 1)
20010664:	800007b7          	lui	a5,0x80000
20010668:	7987a783          	lw	a5,1944(a5) # 80000798 <metal_segment_heap_target_end+0xfffff6cc>
2001066c:	439c                	lw	a5,0(a5)
2001066e:	fe07cbe3          	bltz	a5,20010664 <send_cmd+0x142>
F:\HiFive-IoT\Workspace\sifive-hifive1-revb-hello\src/hello.c:261
		temp = (*rxdata);
20010672:	800007b7          	lui	a5,0x80000
20010676:	79c7a783          	lw	a5,1948(a5) # 8000079c <metal_segment_heap_target_end+0xfffff6d0>
2001067a:	439c                	lw	a5,0(a5)
2001067c:	fef42623          	sw	a5,-20(s0)
F:\HiFive-IoT\Workspace\sifive-hifive1-revb-hello\src/hello.c:262
		while (temp & METAL_SPI_TXDATA_FULL)
20010680:	a01d                	j	200106a6 <send_cmd+0x184>
F:\HiFive-IoT\Workspace\sifive-hifive1-revb-hello\src/hello.c:264
		{
			temp = (*rxdata);
20010682:	800007b7          	lui	a5,0x80000
20010686:	79c7a783          	lw	a5,1948(a5) # 8000079c <metal_segment_heap_target_end+0xfffff6d0>
2001068a:	439c                	lw	a5,0(a5)
2001068c:	fef42623          	sw	a5,-20(s0)
F:\HiFive-IoT\Workspace\sifive-hifive1-revb-hello\src/hello.c:265
			if(!get_input_val(WF_INT)) *csmode = 0;
20010690:	4529                	li	a0,10
20010692:	035000ef          	jal	ra,20010ec6 <get_input_val>
20010696:	87aa                	mv	a5,a0
20010698:	e799                	bnez	a5,200106a6 <send_cmd+0x184>
F:\HiFive-IoT\Workspace\sifive-hifive1-revb-hello\src/hello.c:265 (discriminator 1)
2001069a:	800007b7          	lui	a5,0x80000
2001069e:	7a07a783          	lw	a5,1952(a5) # 800007a0 <metal_segment_heap_target_end+0xfffff6d4>
200106a2:	0007a023          	sw	zero,0(a5)
F:\HiFive-IoT\Workspace\sifive-hifive1-revb-hello\src/hello.c:262
		while (temp & METAL_SPI_TXDATA_FULL)
200106a6:	fec42783          	lw	a5,-20(s0)
200106aa:	fc07cce3          	bltz	a5,20010682 <send_cmd+0x160>
F:\HiFive-IoT\Workspace\sifive-hifive1-revb-hello\src/hello.c:257 (discriminator 2)
	for(int i = 0; i<4; i ++)
200106ae:	fe442783          	lw	a5,-28(s0)
200106b2:	0785                	addi	a5,a5,1
200106b4:	fef42223          	sw	a5,-28(s0)
F:\HiFive-IoT\Workspace\sifive-hifive1-revb-hello\src/hello.c:257 (discriminator 1)
200106b8:	fe442703          	lw	a4,-28(s0)
200106bc:	478d                	li	a5,3
200106be:	f8e7d6e3          	bge	a5,a4,2001064a <send_cmd+0x128>
F:\HiFive-IoT\Workspace\sifive-hifive1-revb-hello\src/hello.c:268
		}
	}
	*csmode = 0;
200106c2:	800007b7          	lui	a5,0x80000
200106c6:	7a07a783          	lw	a5,1952(a5) # 800007a0 <metal_segment_heap_target_end+0xfffff6d4>
200106ca:	0007a023          	sw	zero,0(a5)
F:\HiFive-IoT\Workspace\sifive-hifive1-revb-hello\src/hello.c:270

	delay(50);
200106ce:	03200513          	li	a0,50
200106d2:	34d9                	jal	20010198 <delay>
F:\HiFive-IoT\Workspace\sifive-hifive1-revb-hello\src/hello.c:271
	while(!get_input_val(WF_INT));
200106d4:	0001                	nop
F:\HiFive-IoT\Workspace\sifive-hifive1-revb-hello\src/hello.c:271 (discriminator 1)
200106d6:	4529                	li	a0,10
200106d8:	7ee000ef          	jal	ra,20010ec6 <get_input_val>
200106dc:	87aa                	mv	a5,a0
200106de:	dfe5                	beqz	a5,200106d6 <send_cmd+0x1b4>
F:\HiFive-IoT\Workspace\sifive-hifive1-revb-hello\src/hello.c:272
	*csmode = 2;
200106e0:	800007b7          	lui	a5,0x80000
200106e4:	7a07a783          	lw	a5,1952(a5) # 800007a0 <metal_segment_heap_target_end+0xfffff6d4>
200106e8:	4709                	li	a4,2
200106ea:	c398                	sw	a4,0(a5)
F:\HiFive-IoT\Workspace\sifive-hifive1-revb-hello\src/hello.c:273
	for (int i = 0; i < len; i ++)
200106ec:	fe042023          	sw	zero,-32(s0)
200106f0:	a885                	j	20010760 <send_cmd+0x23e>
F:\HiFive-IoT\Workspace\sifive-hifive1-revb-hello\src/hello.c:275
	{
		*txdata = cmd[i];
200106f2:	fe042783          	lw	a5,-32(s0)
200106f6:	fcc42703          	lw	a4,-52(s0)
200106fa:	97ba                	add	a5,a5,a4
200106fc:	0007c703          	lbu	a4,0(a5)
20010700:	800007b7          	lui	a5,0x80000
20010704:	7987a783          	lw	a5,1944(a5) # 80000798 <metal_segment_heap_target_end+0xfffff6cc>
20010708:	c398                	sw	a4,0(a5)
F:\HiFive-IoT\Workspace\sifive-hifive1-revb-hello\src/hello.c:276
		while (*txdata & METAL_SPI_TXDATA_FULL);
2001070a:	0001                	nop
F:\HiFive-IoT\Workspace\sifive-hifive1-revb-hello\src/hello.c:276 (discriminator 1)
2001070c:	800007b7          	lui	a5,0x80000
20010710:	7987a783          	lw	a5,1944(a5) # 80000798 <metal_segment_heap_target_end+0xfffff6cc>
20010714:	439c                	lw	a5,0(a5)
20010716:	fe07cbe3          	bltz	a5,2001070c <send_cmd+0x1ea>
F:\HiFive-IoT\Workspace\sifive-hifive1-revb-hello\src/hello.c:277
		temp = (*rxdata);
2001071a:	800007b7          	lui	a5,0x80000
2001071e:	79c7a783          	lw	a5,1948(a5) # 8000079c <metal_segment_heap_target_end+0xfffff6d0>
20010722:	439c                	lw	a5,0(a5)
20010724:	fef42623          	sw	a5,-20(s0)
F:\HiFive-IoT\Workspace\sifive-hifive1-revb-hello\src/hello.c:278
		while (temp & METAL_SPI_TXDATA_FULL)
20010728:	a01d                	j	2001074e <send_cmd+0x22c>
F:\HiFive-IoT\Workspace\sifive-hifive1-revb-hello\src/hello.c:280
		{
			temp = (*rxdata);
2001072a:	800007b7          	lui	a5,0x80000
2001072e:	79c7a783          	lw	a5,1948(a5) # 8000079c <metal_segment_heap_target_end+0xfffff6d0>
20010732:	439c                	lw	a5,0(a5)
20010734:	fef42623          	sw	a5,-20(s0)
F:\HiFive-IoT\Workspace\sifive-hifive1-revb-hello\src/hello.c:281
			if(!get_input_val(WF_INT)) *csmode = 0;
20010738:	4529                	li	a0,10
2001073a:	78c000ef          	jal	ra,20010ec6 <get_input_val>
2001073e:	87aa                	mv	a5,a0
20010740:	e799                	bnez	a5,2001074e <send_cmd+0x22c>
F:\HiFive-IoT\Workspace\sifive-hifive1-revb-hello\src/hello.c:281 (discriminator 1)
20010742:	800007b7          	lui	a5,0x80000
20010746:	7a07a783          	lw	a5,1952(a5) # 800007a0 <metal_segment_heap_target_end+0xfffff6d4>
2001074a:	0007a023          	sw	zero,0(a5)
F:\HiFive-IoT\Workspace\sifive-hifive1-revb-hello\src/hello.c:278
		while (temp & METAL_SPI_TXDATA_FULL)
2001074e:	fec42783          	lw	a5,-20(s0)
20010752:	fc07cce3          	bltz	a5,2001072a <send_cmd+0x208>
F:\HiFive-IoT\Workspace\sifive-hifive1-revb-hello\src/hello.c:273 (discriminator 2)
	for (int i = 0; i < len; i ++)
20010756:	fe042783          	lw	a5,-32(s0)
2001075a:	0785                	addi	a5,a5,1
2001075c:	fef42023          	sw	a5,-32(s0)
F:\HiFive-IoT\Workspace\sifive-hifive1-revb-hello\src/hello.c:273 (discriminator 1)
20010760:	fe042703          	lw	a4,-32(s0)
20010764:	fdc42783          	lw	a5,-36(s0)
20010768:	f8f745e3          	blt	a4,a5,200106f2 <send_cmd+0x1d0>
F:\HiFive-IoT\Workspace\sifive-hifive1-revb-hello\src/hello.c:284
		}
	}
	*csmode = 0;
2001076c:	800007b7          	lui	a5,0x80000
20010770:	7a07a783          	lw	a5,1952(a5) # 800007a0 <metal_segment_heap_target_end+0xfffff6d4>
20010774:	0007a023          	sw	zero,0(a5)
F:\HiFive-IoT\Workspace\sifive-hifive1-revb-hello\src/hello.c:285
	delay(10000);
20010778:	6789                	lui	a5,0x2
2001077a:	71078513          	addi	a0,a5,1808 # 2710 <__heap_size+0x2310>
2001077e:	3c29                	jal	20010198 <delay>
F:\HiFive-IoT\Workspace\sifive-hifive1-revb-hello\src/hello.c:286
}
20010780:	0001                	nop
20010782:	50f2                	lw	ra,60(sp)
20010784:	5462                	lw	s0,56(sp)
20010786:	6121                	addi	sp,sp,64
20010788:	8082                	ret

2001078a <get_esp>:
get_esp():
F:\HiFive-IoT\Workspace\sifive-hifive1-revb-hello\src/hello.c:288
char get_esp()
{
2001078a:	7171                	addi	sp,sp,-176
2001078c:	d706                	sw	ra,172(sp)
2001078e:	d522                	sw	s0,168(sp)
20010790:	1900                	addi	s0,sp,176
F:\HiFive-IoT\Workspace\sifive-hifive1-revb-hello\src/hello.c:292
	uint32_t rx_buf[32];
	char cmd_len_buf[4];
	int16_t cmd_len;
	char rec_cmd[] = {0x01, 0x00, 0x00, 0x00};
20010792:	4785                	li	a5,1
20010794:	f4f40a23          	sb	a5,-172(s0)
20010798:	f4040aa3          	sb	zero,-171(s0)
2001079c:	f4040b23          	sb	zero,-170(s0)
200107a0:	f4040ba3          	sb	zero,-169(s0)
F:\HiFive-IoT\Workspace\sifive-hifive1-revb-hello\src/hello.c:293
	memset(rx_buf, 0, 32);
200107a4:	f5c40793          	addi	a5,s0,-164
200107a8:	02000613          	li	a2,32
200107ac:	4581                	li	a1,0
200107ae:	853e                	mv	a0,a5
200107b0:	033000ef          	jal	ra,20010fe2 <memset>
F:\HiFive-IoT\Workspace\sifive-hifive1-revb-hello\src/hello.c:294
	*delay0 = (*delay0 & 0xFF00FFFF);
200107b4:	80c1a783          	lw	a5,-2036(gp) # 800007a4 <delay0>
200107b8:	4394                	lw	a3,0(a5)
200107ba:	80c1a783          	lw	a5,-2036(gp) # 800007a4 <delay0>
200107be:	ff010737          	lui	a4,0xff010
200107c2:	177d                	addi	a4,a4,-1
200107c4:	8f75                	and	a4,a4,a3
200107c6:	c398                	sw	a4,0(a5)
F:\HiFive-IoT\Workspace\sifive-hifive1-revb-hello\src/hello.c:295
	*spi_csmode = 2;
200107c8:	8101a783          	lw	a5,-2032(gp) # 800007a8 <spi_csmode>
200107cc:	4709                	li	a4,2
200107ce:	c398                	sw	a4,0(a5)
F:\HiFive-IoT\Workspace\sifive-hifive1-revb-hello\src/hello.c:296
	for(int i = 0; i < 4; i++)
200107d0:	fe042623          	sw	zero,-20(s0)
200107d4:	a849                	j	20010866 <get_esp+0xdc>
F:\HiFive-IoT\Workspace\sifive-hifive1-revb-hello\src/hello.c:298
	{
		*txdata = rec_cmd[i];
200107d6:	fec42783          	lw	a5,-20(s0)
200107da:	ff040713          	addi	a4,s0,-16
200107de:	97ba                	add	a5,a5,a4
200107e0:	f647c703          	lbu	a4,-156(a5)
200107e4:	800007b7          	lui	a5,0x80000
200107e8:	7987a783          	lw	a5,1944(a5) # 80000798 <metal_segment_heap_target_end+0xfffff6cc>
200107ec:	c398                	sw	a4,0(a5)
F:\HiFive-IoT\Workspace\sifive-hifive1-revb-hello\src/hello.c:299
		while (*txdata & METAL_SPI_TXDATA_FULL);
200107ee:	0001                	nop
F:\HiFive-IoT\Workspace\sifive-hifive1-revb-hello\src/hello.c:299 (discriminator 1)
200107f0:	800007b7          	lui	a5,0x80000
200107f4:	7987a783          	lw	a5,1944(a5) # 80000798 <metal_segment_heap_target_end+0xfffff6cc>
200107f8:	439c                	lw	a5,0(a5)
200107fa:	fe07cbe3          	bltz	a5,200107f0 <get_esp+0x66>
F:\HiFive-IoT\Workspace\sifive-hifive1-revb-hello\src/hello.c:300
		rx_buf[i] = (*rxdata);
200107fe:	800007b7          	lui	a5,0x80000
20010802:	79c7a783          	lw	a5,1948(a5) # 8000079c <metal_segment_heap_target_end+0xfffff6d0>
20010806:	4398                	lw	a4,0(a5)
20010808:	fec42783          	lw	a5,-20(s0)
2001080c:	078a                	slli	a5,a5,0x2
2001080e:	ff040693          	addi	a3,s0,-16
20010812:	97b6                	add	a5,a5,a3
20010814:	f6e7a623          	sw	a4,-148(a5)
F:\HiFive-IoT\Workspace\sifive-hifive1-revb-hello\src/hello.c:301
		while (rx_buf[i] & METAL_SPI_TXDATA_FULL)
20010818:	a805                	j	20010848 <get_esp+0xbe>
F:\HiFive-IoT\Workspace\sifive-hifive1-revb-hello\src/hello.c:303
		{
			rx_buf[i] = (*rxdata);
2001081a:	800007b7          	lui	a5,0x80000
2001081e:	79c7a783          	lw	a5,1948(a5) # 8000079c <metal_segment_heap_target_end+0xfffff6d0>
20010822:	4398                	lw	a4,0(a5)
20010824:	fec42783          	lw	a5,-20(s0)
20010828:	078a                	slli	a5,a5,0x2
2001082a:	ff040693          	addi	a3,s0,-16
2001082e:	97b6                	add	a5,a5,a3
20010830:	f6e7a623          	sw	a4,-148(a5)
F:\HiFive-IoT\Workspace\sifive-hifive1-revb-hello\src/hello.c:304
			if(!get_input_val(WF_INT)) *csmode = 0;
20010834:	4529                	li	a0,10
20010836:	2d41                	jal	20010ec6 <get_input_val>
20010838:	87aa                	mv	a5,a0
2001083a:	e799                	bnez	a5,20010848 <get_esp+0xbe>
F:\HiFive-IoT\Workspace\sifive-hifive1-revb-hello\src/hello.c:304 (discriminator 1)
2001083c:	800007b7          	lui	a5,0x80000
20010840:	7a07a783          	lw	a5,1952(a5) # 800007a0 <metal_segment_heap_target_end+0xfffff6d4>
20010844:	0007a023          	sw	zero,0(a5)
F:\HiFive-IoT\Workspace\sifive-hifive1-revb-hello\src/hello.c:301
		while (rx_buf[i] & METAL_SPI_TXDATA_FULL)
20010848:	fec42783          	lw	a5,-20(s0)
2001084c:	078a                	slli	a5,a5,0x2
2001084e:	ff040713          	addi	a4,s0,-16
20010852:	97ba                	add	a5,a5,a4
20010854:	f6c7a783          	lw	a5,-148(a5)
20010858:	fc07c1e3          	bltz	a5,2001081a <get_esp+0x90>
F:\HiFive-IoT\Workspace\sifive-hifive1-revb-hello\src/hello.c:296 (discriminator 2)
	for(int i = 0; i < 4; i++)
2001085c:	fec42783          	lw	a5,-20(s0)
20010860:	0785                	addi	a5,a5,1
20010862:	fef42623          	sw	a5,-20(s0)
F:\HiFive-IoT\Workspace\sifive-hifive1-revb-hello\src/hello.c:296 (discriminator 1)
20010866:	fec42703          	lw	a4,-20(s0)
2001086a:	478d                	li	a5,3
2001086c:	f6e7d5e3          	bge	a5,a4,200107d6 <get_esp+0x4c>
F:\HiFive-IoT\Workspace\sifive-hifive1-revb-hello\src/hello.c:307
		}
	}
	*spi_csmode = 0;
20010870:	8101a783          	lw	a5,-2032(gp) # 800007a8 <spi_csmode>
20010874:	0007a023          	sw	zero,0(a5)
F:\HiFive-IoT\Workspace\sifive-hifive1-revb-hello\src/hello.c:308
	delay(10);
20010878:	4529                	li	a0,10
2001087a:	91fff0ef          	jal	ra,20010198 <delay>
F:\HiFive-IoT\Workspace\sifive-hifive1-revb-hello\src/hello.c:310

	memcpy(rx_buf, rxdata, 4);
2001087e:	800007b7          	lui	a5,0x80000
20010882:	79c7a703          	lw	a4,1948(a5) # 8000079c <metal_segment_heap_target_end+0xfffff6d0>
20010886:	f5c40793          	addi	a5,s0,-164
2001088a:	4611                	li	a2,4
2001088c:	85ba                	mv	a1,a4
2001088e:	853e                	mv	a0,a5
20010890:	2d71                	jal	20010f2c <memcpy>
F:\HiFive-IoT\Workspace\sifive-hifive1-revb-hello\src/hello.c:312

	*delay0 = (*delay0 & 0xFF00FFFF);
20010892:	80c1a783          	lw	a5,-2036(gp) # 800007a4 <delay0>
20010896:	4394                	lw	a3,0(a5)
20010898:	80c1a783          	lw	a5,-2036(gp) # 800007a4 <delay0>
2001089c:	ff010737          	lui	a4,0xff010
200108a0:	177d                	addi	a4,a4,-1
200108a2:	8f75                	and	a4,a4,a3
200108a4:	c398                	sw	a4,0(a5)
F:\HiFive-IoT\Workspace\sifive-hifive1-revb-hello\src/hello.c:313
	*spi_csmode = 2;
200108a6:	8101a783          	lw	a5,-2032(gp) # 800007a8 <spi_csmode>
200108aa:	4709                	li	a4,2
200108ac:	c398                	sw	a4,0(a5)
F:\HiFive-IoT\Workspace\sifive-hifive1-revb-hello\src/hello.c:314
	for(int i = 0; i < 4; i ++)
200108ae:	fe042423          	sw	zero,-24(s0)
200108b2:	a059                	j	20010938 <get_esp+0x1ae>
F:\HiFive-IoT\Workspace\sifive-hifive1-revb-hello\src/hello.c:316
	{
		*txdata = 0x00;
200108b4:	800007b7          	lui	a5,0x80000
200108b8:	7987a783          	lw	a5,1944(a5) # 80000798 <metal_segment_heap_target_end+0xfffff6cc>
200108bc:	0007a023          	sw	zero,0(a5)
F:\HiFive-IoT\Workspace\sifive-hifive1-revb-hello\src/hello.c:317
		while (*txdata & METAL_SPI_TXDATA_FULL);
200108c0:	0001                	nop
F:\HiFive-IoT\Workspace\sifive-hifive1-revb-hello\src/hello.c:317 (discriminator 1)
200108c2:	800007b7          	lui	a5,0x80000
200108c6:	7987a783          	lw	a5,1944(a5) # 80000798 <metal_segment_heap_target_end+0xfffff6cc>
200108ca:	439c                	lw	a5,0(a5)
200108cc:	fe07cbe3          	bltz	a5,200108c2 <get_esp+0x138>
F:\HiFive-IoT\Workspace\sifive-hifive1-revb-hello\src/hello.c:318
		rx_buf[i] = (*rxdata);
200108d0:	800007b7          	lui	a5,0x80000
200108d4:	79c7a783          	lw	a5,1948(a5) # 8000079c <metal_segment_heap_target_end+0xfffff6d0>
200108d8:	4398                	lw	a4,0(a5)
200108da:	fe842783          	lw	a5,-24(s0)
200108de:	078a                	slli	a5,a5,0x2
200108e0:	ff040693          	addi	a3,s0,-16
200108e4:	97b6                	add	a5,a5,a3
200108e6:	f6e7a623          	sw	a4,-148(a5)
F:\HiFive-IoT\Workspace\sifive-hifive1-revb-hello\src/hello.c:319
		while (rx_buf[i] & METAL_SPI_TXDATA_FULL)
200108ea:	a805                	j	2001091a <get_esp+0x190>
F:\HiFive-IoT\Workspace\sifive-hifive1-revb-hello\src/hello.c:321
		{
			rx_buf[i] = (*rxdata);
200108ec:	800007b7          	lui	a5,0x80000
200108f0:	79c7a783          	lw	a5,1948(a5) # 8000079c <metal_segment_heap_target_end+0xfffff6d0>
200108f4:	4398                	lw	a4,0(a5)
200108f6:	fe842783          	lw	a5,-24(s0)
200108fa:	078a                	slli	a5,a5,0x2
200108fc:	ff040693          	addi	a3,s0,-16
20010900:	97b6                	add	a5,a5,a3
20010902:	f6e7a623          	sw	a4,-148(a5)
F:\HiFive-IoT\Workspace\sifive-hifive1-revb-hello\src/hello.c:322
			if(!get_input_val(WF_INT)) *csmode = 0;
20010906:	4529                	li	a0,10
20010908:	2b7d                	jal	20010ec6 <get_input_val>
2001090a:	87aa                	mv	a5,a0
2001090c:	e799                	bnez	a5,2001091a <get_esp+0x190>
F:\HiFive-IoT\Workspace\sifive-hifive1-revb-hello\src/hello.c:322 (discriminator 1)
2001090e:	800007b7          	lui	a5,0x80000
20010912:	7a07a783          	lw	a5,1952(a5) # 800007a0 <metal_segment_heap_target_end+0xfffff6d4>
20010916:	0007a023          	sw	zero,0(a5)
F:\HiFive-IoT\Workspace\sifive-hifive1-revb-hello\src/hello.c:319
		while (rx_buf[i] & METAL_SPI_TXDATA_FULL)
2001091a:	fe842783          	lw	a5,-24(s0)
2001091e:	078a                	slli	a5,a5,0x2
20010920:	ff040713          	addi	a4,s0,-16
20010924:	97ba                	add	a5,a5,a4
20010926:	f6c7a783          	lw	a5,-148(a5)
2001092a:	fc07c1e3          	bltz	a5,200108ec <get_esp+0x162>
F:\HiFive-IoT\Workspace\sifive-hifive1-revb-hello\src/hello.c:314 (discriminator 2)
	for(int i = 0; i < 4; i ++)
2001092e:	fe842783          	lw	a5,-24(s0)
20010932:	0785                	addi	a5,a5,1
20010934:	fef42423          	sw	a5,-24(s0)
F:\HiFive-IoT\Workspace\sifive-hifive1-revb-hello\src/hello.c:314 (discriminator 1)
20010938:	fe842703          	lw	a4,-24(s0)
2001093c:	478d                	li	a5,3
2001093e:	f6e7dbe3          	bge	a5,a4,200108b4 <get_esp+0x12a>
F:\HiFive-IoT\Workspace\sifive-hifive1-revb-hello\src/hello.c:325
		}
	}
	*spi_csmode = 0;
20010942:	8101a783          	lw	a5,-2032(gp) # 800007a8 <spi_csmode>
20010946:	0007a023          	sw	zero,0(a5)
F:\HiFive-IoT\Workspace\sifive-hifive1-revb-hello\src/hello.c:327

	if(rx_buf[3] == 'B')
2001094a:	f6842703          	lw	a4,-152(s0)
2001094e:	04200793          	li	a5,66
20010952:	06f71963          	bne	a4,a5,200109c4 <get_esp+0x23a>
F:\HiFive-IoT\Workspace\sifive-hifive1-revb-hello\src/hello.c:329
	{
		cmd_len = rx_buf[0] + rx_buf[1]*128;
20010956:	f5c42783          	lw	a5,-164(s0)
2001095a:	01079713          	slli	a4,a5,0x10
2001095e:	8341                	srli	a4,a4,0x10
20010960:	f6042783          	lw	a5,-160(s0)
20010964:	07c2                	slli	a5,a5,0x10
20010966:	83c1                	srli	a5,a5,0x10
20010968:	079e                	slli	a5,a5,0x7
2001096a:	07c2                	slli	a5,a5,0x10
2001096c:	83c1                	srli	a5,a5,0x10
2001096e:	97ba                	add	a5,a5,a4
20010970:	07c2                	slli	a5,a5,0x10
20010972:	83c1                	srli	a5,a5,0x10
20010974:	fcf41f23          	sh	a5,-34(s0)
F:\HiFive-IoT\Workspace\sifive-hifive1-revb-hello\src/hello.c:330
		printf("data len: %d\n", cmd_len);
20010978:	fde41783          	lh	a5,-34(s0)
2001097c:	85be                	mv	a1,a5
2001097e:	200167b7          	lui	a5,0x20016
20010982:	50878513          	addi	a0,a5,1288 # 20016508 <_exit+0x186>
20010986:	704000ef          	jal	ra,2001108a <iprintf>
F:\HiFive-IoT\Workspace\sifive-hifive1-revb-hello\src/hello.c:336
	}
	else
	{
		return 0;
	}
	memset(rx_buf, 0, 32);
2001098a:	f5c40793          	addi	a5,s0,-164
2001098e:	02000613          	li	a2,32
20010992:	4581                	li	a1,0
20010994:	853e                	mv	a0,a5
20010996:	25b1                	jal	20010fe2 <memset>
F:\HiFive-IoT\Workspace\sifive-hifive1-revb-hello\src/hello.c:338

	delay(10);
20010998:	4529                	li	a0,10
2001099a:	ffeff0ef          	jal	ra,20010198 <delay>
F:\HiFive-IoT\Workspace\sifive-hifive1-revb-hello\src/hello.c:339
	*delay0 = (*delay0 & 0xFF00FFFF);
2001099e:	80c1a783          	lw	a5,-2036(gp) # 800007a4 <delay0>
200109a2:	4394                	lw	a3,0(a5)
200109a4:	80c1a783          	lw	a5,-2036(gp) # 800007a4 <delay0>
200109a8:	ff010737          	lui	a4,0xff010
200109ac:	177d                	addi	a4,a4,-1
200109ae:	8f75                	and	a4,a4,a3
200109b0:	c398                	sw	a4,0(a5)
F:\HiFive-IoT\Workspace\sifive-hifive1-revb-hello\src/hello.c:340
	*spi_csmode = 2;
200109b2:	8101a783          	lw	a5,-2032(gp) # 800007a8 <spi_csmode>
200109b6:	4709                	li	a4,2
200109b8:	c398                	sw	a4,0(a5)
F:\HiFive-IoT\Workspace\sifive-hifive1-revb-hello\src/hello.c:341
	uint16_t i = 0;
200109ba:	fe041323          	sh	zero,-26(s0)
F:\HiFive-IoT\Workspace\sifive-hifive1-revb-hello\src/hello.c:342
	uint16_t timeout = 0;
200109be:	fe041223          	sh	zero,-28(s0)
F:\HiFive-IoT\Workspace\sifive-hifive1-revb-hello\src/hello.c:344
	uint32_t temp;
	while(get_input_val(WF_INT))
200109c2:	a049                	j	20010a44 <get_esp+0x2ba>
F:\HiFive-IoT\Workspace\sifive-hifive1-revb-hello\src/hello.c:334
		return 0;
200109c4:	4781                	li	a5,0
200109c6:	a849                	j	20010a58 <get_esp+0x2ce>
F:\HiFive-IoT\Workspace\sifive-hifive1-revb-hello\src/hello.c:346
	{
		*txdata = i;
200109c8:	800007b7          	lui	a5,0x80000
200109cc:	7987a783          	lw	a5,1944(a5) # 80000798 <metal_segment_heap_target_end+0xfffff6cc>
200109d0:	fe645703          	lhu	a4,-26(s0)
200109d4:	c398                	sw	a4,0(a5)
F:\HiFive-IoT\Workspace\sifive-hifive1-revb-hello\src/hello.c:348

		timeout = 0;
200109d6:	fe041223          	sh	zero,-28(s0)
F:\HiFive-IoT\Workspace\sifive-hifive1-revb-hello\src/hello.c:350

		temp = (*rxdata);
200109da:	800007b7          	lui	a5,0x80000
200109de:	79c7a783          	lw	a5,1948(a5) # 8000079c <metal_segment_heap_target_end+0xfffff6d0>
200109e2:	439c                	lw	a5,0(a5)
200109e4:	fef42023          	sw	a5,-32(s0)
F:\HiFive-IoT\Workspace\sifive-hifive1-revb-hello\src/hello.c:351
		timeout = 0;
200109e8:	fe041223          	sh	zero,-28(s0)
F:\HiFive-IoT\Workspace\sifive-hifive1-revb-hello\src/hello.c:352
		while ((temp & METAL_SPI_TXDATA_FULL)&&(timeout < 100))
200109ec:	a03d                	j	20010a1a <get_esp+0x290>
F:\HiFive-IoT\Workspace\sifive-hifive1-revb-hello\src/hello.c:354
		{
			temp = (*rxdata);
200109ee:	800007b7          	lui	a5,0x80000
200109f2:	79c7a783          	lw	a5,1948(a5) # 8000079c <metal_segment_heap_target_end+0xfffff6d0>
200109f6:	439c                	lw	a5,0(a5)
200109f8:	fef42023          	sw	a5,-32(s0)
F:\HiFive-IoT\Workspace\sifive-hifive1-revb-hello\src/hello.c:355
			if(!get_input_val(WF_INT)) *csmode = 0;
200109fc:	4529                	li	a0,10
200109fe:	21e1                	jal	20010ec6 <get_input_val>
20010a00:	87aa                	mv	a5,a0
20010a02:	e799                	bnez	a5,20010a10 <get_esp+0x286>
F:\HiFive-IoT\Workspace\sifive-hifive1-revb-hello\src/hello.c:355 (discriminator 1)
20010a04:	800007b7          	lui	a5,0x80000
20010a08:	7a07a783          	lw	a5,1952(a5) # 800007a0 <metal_segment_heap_target_end+0xfffff6d4>
20010a0c:	0007a023          	sw	zero,0(a5)
F:\HiFive-IoT\Workspace\sifive-hifive1-revb-hello\src/hello.c:356
			timeout++;
20010a10:	fe445783          	lhu	a5,-28(s0)
20010a14:	0785                	addi	a5,a5,1
20010a16:	fef41223          	sh	a5,-28(s0)
F:\HiFive-IoT\Workspace\sifive-hifive1-revb-hello\src/hello.c:352
		while ((temp & METAL_SPI_TXDATA_FULL)&&(timeout < 100))
20010a1a:	fe042783          	lw	a5,-32(s0)
20010a1e:	0007d863          	bgez	a5,20010a2e <get_esp+0x2a4>
F:\HiFive-IoT\Workspace\sifive-hifive1-revb-hello\src/hello.c:352 (discriminator 1)
20010a22:	fe445703          	lhu	a4,-28(s0)
20010a26:	06300793          	li	a5,99
20010a2a:	fce7f2e3          	bgeu	a5,a4,200109ee <get_esp+0x264>
F:\HiFive-IoT\Workspace\sifive-hifive1-revb-hello\src/hello.c:358
		}
		i++;
20010a2e:	fe645783          	lhu	a5,-26(s0)
20010a32:	0785                	addi	a5,a5,1
20010a34:	fef41323          	sh	a5,-26(s0)
F:\HiFive-IoT\Workspace\sifive-hifive1-revb-hello\src/hello.c:359
		if(i >= 512)
20010a38:	fe645703          	lhu	a4,-26(s0)
20010a3c:	1ff00793          	li	a5,511
20010a40:	00e7e763          	bltu	a5,a4,20010a4e <get_esp+0x2c4>
F:\HiFive-IoT\Workspace\sifive-hifive1-revb-hello\src/hello.c:344
	while(get_input_val(WF_INT))
20010a44:	4529                	li	a0,10
20010a46:	2141                	jal	20010ec6 <get_input_val>
20010a48:	87aa                	mv	a5,a0
20010a4a:	ffbd                	bnez	a5,200109c8 <get_esp+0x23e>
20010a4c:	a011                	j	20010a50 <get_esp+0x2c6>
F:\HiFive-IoT\Workspace\sifive-hifive1-revb-hello\src/hello.c:360
			break;
20010a4e:	0001                	nop
F:\HiFive-IoT\Workspace\sifive-hifive1-revb-hello\src/hello.c:362 (discriminator 1)
	}
	*spi_csmode = 0;
20010a50:	8101a783          	lw	a5,-2032(gp) # 800007a8 <spi_csmode>
20010a54:	0007a023          	sw	zero,0(a5)
F:\HiFive-IoT\Workspace\sifive-hifive1-revb-hello\src/hello.c:363
}
20010a58:	853e                	mv	a0,a5
20010a5a:	50ba                	lw	ra,172(sp)
20010a5c:	542a                	lw	s0,168(sp)
20010a5e:	614d                	addi	sp,sp,176
20010a60:	8082                	ret

20010a62 <get_data_esp>:
get_data_esp():
F:\HiFive-IoT\Workspace\sifive-hifive1-revb-hello\src/hello.c:365
char get_data_esp()
{
20010a62:	7115                	addi	sp,sp,-224
20010a64:	cf86                	sw	ra,220(sp)
20010a66:	cda2                	sw	s0,216(sp)
20010a68:	cba6                	sw	s1,212(sp)
20010a6a:	c9ca                	sw	s2,208(sp)
20010a6c:	c7ce                	sw	s3,204(sp)
20010a6e:	c5d2                	sw	s4,200(sp)
20010a70:	c3d6                	sw	s5,196(sp)
20010a72:	c1da                	sw	s6,192(sp)
20010a74:	df5e                	sw	s7,188(sp)
20010a76:	dd62                	sw	s8,184(sp)
20010a78:	db66                	sw	s9,180(sp)
20010a7a:	1180                	addi	s0,sp,224
F:\HiFive-IoT\Workspace\sifive-hifive1-revb-hello\src/hello.c:369
	uint32_t rx_buf[32];
	char cmd_len_buf[4];
	int16_t cmd_len;
	char rec_cmd[] = {0x01, 0x00, 0x00, 0x00};
20010a7c:	4785                	li	a5,1
20010a7e:	f2f40623          	sb	a5,-212(s0)
20010a82:	f20406a3          	sb	zero,-211(s0)
20010a86:	f2040723          	sb	zero,-210(s0)
20010a8a:	f20407a3          	sb	zero,-209(s0)
F:\HiFive-IoT\Workspace\sifive-hifive1-revb-hello\src/hello.c:370
	memset(rx_buf, 0, 32);
20010a8e:	f3440793          	addi	a5,s0,-204
20010a92:	02000613          	li	a2,32
20010a96:	4581                	li	a1,0
20010a98:	853e                	mv	a0,a5
20010a9a:	23a1                	jal	20010fe2 <memset>
F:\HiFive-IoT\Workspace\sifive-hifive1-revb-hello\src/hello.c:371
	*delay0 = (*delay0 & 0xFF00FFFF);
20010a9c:	80c1a783          	lw	a5,-2036(gp) # 800007a4 <delay0>
20010aa0:	4394                	lw	a3,0(a5)
20010aa2:	80c1a783          	lw	a5,-2036(gp) # 800007a4 <delay0>
20010aa6:	ff010737          	lui	a4,0xff010
20010aaa:	177d                	addi	a4,a4,-1
20010aac:	8f75                	and	a4,a4,a3
20010aae:	c398                	sw	a4,0(a5)
F:\HiFive-IoT\Workspace\sifive-hifive1-revb-hello\src/hello.c:372
	*spi_csmode = 2;
20010ab0:	8101a783          	lw	a5,-2032(gp) # 800007a8 <spi_csmode>
20010ab4:	4709                	li	a4,2
20010ab6:	c398                	sw	a4,0(a5)
F:\HiFive-IoT\Workspace\sifive-hifive1-revb-hello\src/hello.c:373
	for(int i = 0; i < 4; i++)
20010ab8:	fc042223          	sw	zero,-60(s0)
20010abc:	a849                	j	20010b4e <get_data_esp+0xec>
F:\HiFive-IoT\Workspace\sifive-hifive1-revb-hello\src/hello.c:375
	{
		*txdata = rec_cmd[i];
20010abe:	fc442783          	lw	a5,-60(s0)
20010ac2:	fd040713          	addi	a4,s0,-48
20010ac6:	97ba                	add	a5,a5,a4
20010ac8:	f5c7c703          	lbu	a4,-164(a5)
20010acc:	800007b7          	lui	a5,0x80000
20010ad0:	7987a783          	lw	a5,1944(a5) # 80000798 <metal_segment_heap_target_end+0xfffff6cc>
20010ad4:	c398                	sw	a4,0(a5)
F:\HiFive-IoT\Workspace\sifive-hifive1-revb-hello\src/hello.c:376
		while (*txdata & METAL_SPI_TXDATA_FULL);
20010ad6:	0001                	nop
F:\HiFive-IoT\Workspace\sifive-hifive1-revb-hello\src/hello.c:376 (discriminator 1)
20010ad8:	800007b7          	lui	a5,0x80000
20010adc:	7987a783          	lw	a5,1944(a5) # 80000798 <metal_segment_heap_target_end+0xfffff6cc>
20010ae0:	439c                	lw	a5,0(a5)
20010ae2:	fe07cbe3          	bltz	a5,20010ad8 <get_data_esp+0x76>
F:\HiFive-IoT\Workspace\sifive-hifive1-revb-hello\src/hello.c:377
		rx_buf[i] = (*rxdata);
20010ae6:	800007b7          	lui	a5,0x80000
20010aea:	79c7a783          	lw	a5,1948(a5) # 8000079c <metal_segment_heap_target_end+0xfffff6d0>
20010aee:	4398                	lw	a4,0(a5)
20010af0:	fc442783          	lw	a5,-60(s0)
20010af4:	078a                	slli	a5,a5,0x2
20010af6:	fd040693          	addi	a3,s0,-48
20010afa:	97b6                	add	a5,a5,a3
20010afc:	f6e7a223          	sw	a4,-156(a5)
F:\HiFive-IoT\Workspace\sifive-hifive1-revb-hello\src/hello.c:378
		while (rx_buf[i] & METAL_SPI_TXDATA_FULL)
20010b00:	a805                	j	20010b30 <get_data_esp+0xce>
F:\HiFive-IoT\Workspace\sifive-hifive1-revb-hello\src/hello.c:380
		{
			rx_buf[i] = (*rxdata);
20010b02:	800007b7          	lui	a5,0x80000
20010b06:	79c7a783          	lw	a5,1948(a5) # 8000079c <metal_segment_heap_target_end+0xfffff6d0>
20010b0a:	4398                	lw	a4,0(a5)
20010b0c:	fc442783          	lw	a5,-60(s0)
20010b10:	078a                	slli	a5,a5,0x2
20010b12:	fd040693          	addi	a3,s0,-48
20010b16:	97b6                	add	a5,a5,a3
20010b18:	f6e7a223          	sw	a4,-156(a5)
F:\HiFive-IoT\Workspace\sifive-hifive1-revb-hello\src/hello.c:381
			if(!get_input_val(WF_INT)) *csmode = 0;
20010b1c:	4529                	li	a0,10
20010b1e:	2665                	jal	20010ec6 <get_input_val>
20010b20:	87aa                	mv	a5,a0
20010b22:	e799                	bnez	a5,20010b30 <get_data_esp+0xce>
F:\HiFive-IoT\Workspace\sifive-hifive1-revb-hello\src/hello.c:381 (discriminator 1)
20010b24:	800007b7          	lui	a5,0x80000
20010b28:	7a07a783          	lw	a5,1952(a5) # 800007a0 <metal_segment_heap_target_end+0xfffff6d4>
20010b2c:	0007a023          	sw	zero,0(a5)
F:\HiFive-IoT\Workspace\sifive-hifive1-revb-hello\src/hello.c:378
		while (rx_buf[i] & METAL_SPI_TXDATA_FULL)
20010b30:	fc442783          	lw	a5,-60(s0)
20010b34:	078a                	slli	a5,a5,0x2
20010b36:	fd040713          	addi	a4,s0,-48
20010b3a:	97ba                	add	a5,a5,a4
20010b3c:	f647a783          	lw	a5,-156(a5)
20010b40:	fc07c1e3          	bltz	a5,20010b02 <get_data_esp+0xa0>
F:\HiFive-IoT\Workspace\sifive-hifive1-revb-hello\src/hello.c:373 (discriminator 2)
	for(int i = 0; i < 4; i++)
20010b44:	fc442783          	lw	a5,-60(s0)
20010b48:	0785                	addi	a5,a5,1
20010b4a:	fcf42223          	sw	a5,-60(s0)
F:\HiFive-IoT\Workspace\sifive-hifive1-revb-hello\src/hello.c:373 (discriminator 1)
20010b4e:	fc442703          	lw	a4,-60(s0)
20010b52:	478d                	li	a5,3
20010b54:	f6e7d5e3          	bge	a5,a4,20010abe <get_data_esp+0x5c>
F:\HiFive-IoT\Workspace\sifive-hifive1-revb-hello\src/hello.c:384
		}
	}
	*spi_csmode = 0;
20010b58:	8101a783          	lw	a5,-2032(gp) # 800007a8 <spi_csmode>
20010b5c:	0007a023          	sw	zero,0(a5)
F:\HiFive-IoT\Workspace\sifive-hifive1-revb-hello\src/hello.c:385
	delay(10);
20010b60:	4529                	li	a0,10
20010b62:	e36ff0ef          	jal	ra,20010198 <delay>
F:\HiFive-IoT\Workspace\sifive-hifive1-revb-hello\src/hello.c:387

	memcpy(rx_buf, rxdata, 4);
20010b66:	800007b7          	lui	a5,0x80000
20010b6a:	79c7a703          	lw	a4,1948(a5) # 8000079c <metal_segment_heap_target_end+0xfffff6d0>
20010b6e:	f3440793          	addi	a5,s0,-204
20010b72:	4611                	li	a2,4
20010b74:	85ba                	mv	a1,a4
20010b76:	853e                	mv	a0,a5
20010b78:	2e55                	jal	20010f2c <memcpy>
F:\HiFive-IoT\Workspace\sifive-hifive1-revb-hello\src/hello.c:390
//	printf("[0]: 0x%04x, [1]: 0x%04x, [2]: 0x%04x, [3]: 0x%04x\n", rx_buf[0], rx_buf[1], rx_buf[2], rx_buf[3]);

	*delay0 = (*delay0 & 0xFF00FFFF);
20010b7a:	80c1a783          	lw	a5,-2036(gp) # 800007a4 <delay0>
20010b7e:	4394                	lw	a3,0(a5)
20010b80:	80c1a783          	lw	a5,-2036(gp) # 800007a4 <delay0>
20010b84:	ff010737          	lui	a4,0xff010
20010b88:	177d                	addi	a4,a4,-1
20010b8a:	8f75                	and	a4,a4,a3
20010b8c:	c398                	sw	a4,0(a5)
F:\HiFive-IoT\Workspace\sifive-hifive1-revb-hello\src/hello.c:391
	*spi_csmode = 2;
20010b8e:	8101a783          	lw	a5,-2032(gp) # 800007a8 <spi_csmode>
20010b92:	4709                	li	a4,2
20010b94:	c398                	sw	a4,0(a5)
F:\HiFive-IoT\Workspace\sifive-hifive1-revb-hello\src/hello.c:392
	for(int i = 0; i < 4; i ++)
20010b96:	fc042423          	sw	zero,-56(s0)
20010b9a:	a059                	j	20010c20 <get_data_esp+0x1be>
F:\HiFive-IoT\Workspace\sifive-hifive1-revb-hello\src/hello.c:394
	{
		*txdata = 0x00;
20010b9c:	800007b7          	lui	a5,0x80000
20010ba0:	7987a783          	lw	a5,1944(a5) # 80000798 <metal_segment_heap_target_end+0xfffff6cc>
20010ba4:	0007a023          	sw	zero,0(a5)
F:\HiFive-IoT\Workspace\sifive-hifive1-revb-hello\src/hello.c:395
		while (*txdata & METAL_SPI_TXDATA_FULL);
20010ba8:	0001                	nop
F:\HiFive-IoT\Workspace\sifive-hifive1-revb-hello\src/hello.c:395 (discriminator 1)
20010baa:	800007b7          	lui	a5,0x80000
20010bae:	7987a783          	lw	a5,1944(a5) # 80000798 <metal_segment_heap_target_end+0xfffff6cc>
20010bb2:	439c                	lw	a5,0(a5)
20010bb4:	fe07cbe3          	bltz	a5,20010baa <get_data_esp+0x148>
F:\HiFive-IoT\Workspace\sifive-hifive1-revb-hello\src/hello.c:396
		rx_buf[i] = (*rxdata);
20010bb8:	800007b7          	lui	a5,0x80000
20010bbc:	79c7a783          	lw	a5,1948(a5) # 8000079c <metal_segment_heap_target_end+0xfffff6d0>
20010bc0:	4398                	lw	a4,0(a5)
20010bc2:	fc842783          	lw	a5,-56(s0)
20010bc6:	078a                	slli	a5,a5,0x2
20010bc8:	fd040693          	addi	a3,s0,-48
20010bcc:	97b6                	add	a5,a5,a3
20010bce:	f6e7a223          	sw	a4,-156(a5)
F:\HiFive-IoT\Workspace\sifive-hifive1-revb-hello\src/hello.c:397
		while (rx_buf[i] & METAL_SPI_TXDATA_FULL)
20010bd2:	a805                	j	20010c02 <get_data_esp+0x1a0>
F:\HiFive-IoT\Workspace\sifive-hifive1-revb-hello\src/hello.c:399
		{
			rx_buf[i] = (*rxdata);
20010bd4:	800007b7          	lui	a5,0x80000
20010bd8:	79c7a783          	lw	a5,1948(a5) # 8000079c <metal_segment_heap_target_end+0xfffff6d0>
20010bdc:	4398                	lw	a4,0(a5)
20010bde:	fc842783          	lw	a5,-56(s0)
20010be2:	078a                	slli	a5,a5,0x2
20010be4:	fd040693          	addi	a3,s0,-48
20010be8:	97b6                	add	a5,a5,a3
20010bea:	f6e7a223          	sw	a4,-156(a5)
F:\HiFive-IoT\Workspace\sifive-hifive1-revb-hello\src/hello.c:400
			if(!get_input_val(WF_INT)) *csmode = 0;
20010bee:	4529                	li	a0,10
20010bf0:	2cd9                	jal	20010ec6 <get_input_val>
20010bf2:	87aa                	mv	a5,a0
20010bf4:	e799                	bnez	a5,20010c02 <get_data_esp+0x1a0>
F:\HiFive-IoT\Workspace\sifive-hifive1-revb-hello\src/hello.c:400 (discriminator 1)
20010bf6:	800007b7          	lui	a5,0x80000
20010bfa:	7a07a783          	lw	a5,1952(a5) # 800007a0 <metal_segment_heap_target_end+0xfffff6d4>
20010bfe:	0007a023          	sw	zero,0(a5)
F:\HiFive-IoT\Workspace\sifive-hifive1-revb-hello\src/hello.c:397
		while (rx_buf[i] & METAL_SPI_TXDATA_FULL)
20010c02:	fc842783          	lw	a5,-56(s0)
20010c06:	078a                	slli	a5,a5,0x2
20010c08:	fd040713          	addi	a4,s0,-48
20010c0c:	97ba                	add	a5,a5,a4
20010c0e:	f647a783          	lw	a5,-156(a5)
20010c12:	fc07c1e3          	bltz	a5,20010bd4 <get_data_esp+0x172>
F:\HiFive-IoT\Workspace\sifive-hifive1-revb-hello\src/hello.c:392 (discriminator 2)
	for(int i = 0; i < 4; i ++)
20010c16:	fc842783          	lw	a5,-56(s0)
20010c1a:	0785                	addi	a5,a5,1
20010c1c:	fcf42423          	sw	a5,-56(s0)
F:\HiFive-IoT\Workspace\sifive-hifive1-revb-hello\src/hello.c:392 (discriminator 1)
20010c20:	fc842703          	lw	a4,-56(s0)
20010c24:	478d                	li	a5,3
20010c26:	f6e7dbe3          	bge	a5,a4,20010b9c <get_data_esp+0x13a>
F:\HiFive-IoT\Workspace\sifive-hifive1-revb-hello\src/hello.c:403
		}
	}
	*spi_csmode = 0;
20010c2a:	8101a783          	lw	a5,-2032(gp) # 800007a8 <spi_csmode>
20010c2e:	0007a023          	sw	zero,0(a5)
F:\HiFive-IoT\Workspace\sifive-hifive1-revb-hello\src/hello.c:405

	if(rx_buf[3] == 'B')
20010c32:	f4042703          	lw	a4,-192(s0)
20010c36:	04200793          	li	a5,66
20010c3a:	06f71863          	bne	a4,a5,20010caa <get_data_esp+0x248>
F:\HiFive-IoT\Workspace\sifive-hifive1-revb-hello\src/hello.c:407
	{
		cmd_len = rx_buf[0] + rx_buf[1]*128;
20010c3e:	f3442783          	lw	a5,-204(s0)
20010c42:	01079713          	slli	a4,a5,0x10
20010c46:	8341                	srli	a4,a4,0x10
20010c48:	f3842783          	lw	a5,-200(s0)
20010c4c:	07c2                	slli	a5,a5,0x10
20010c4e:	83c1                	srli	a5,a5,0x10
20010c50:	079e                	slli	a5,a5,0x7
20010c52:	07c2                	slli	a5,a5,0x10
20010c54:	83c1                	srli	a5,a5,0x10
20010c56:	97ba                	add	a5,a5,a4
20010c58:	07c2                	slli	a5,a5,0x10
20010c5a:	83c1                	srli	a5,a5,0x10
20010c5c:	faf41f23          	sh	a5,-66(s0)
F:\HiFive-IoT\Workspace\sifive-hifive1-revb-hello\src/hello.c:408
		printf("data len: %d\n", cmd_len);
20010c60:	fbe41783          	lh	a5,-66(s0)
20010c64:	85be                	mv	a1,a5
20010c66:	200167b7          	lui	a5,0x20016
20010c6a:	50878513          	addi	a0,a5,1288 # 20016508 <_exit+0x186>
20010c6e:	2931                	jal	2001108a <iprintf>
F:\HiFive-IoT\Workspace\sifive-hifive1-revb-hello\src/hello.c:414
	}
	else
	{
		return 0;
	}
	memset(rx_buf, 0, 32);
20010c70:	f3440793          	addi	a5,s0,-204
20010c74:	02000613          	li	a2,32
20010c78:	4581                	li	a1,0
20010c7a:	853e                	mv	a0,a5
20010c7c:	269d                	jal	20010fe2 <memset>
F:\HiFive-IoT\Workspace\sifive-hifive1-revb-hello\src/hello.c:416

	delay(10);
20010c7e:	4529                	li	a0,10
20010c80:	d18ff0ef          	jal	ra,20010198 <delay>
F:\HiFive-IoT\Workspace\sifive-hifive1-revb-hello\src/hello.c:417
	*delay0 = (*delay0 & 0xFF00FFFF);
20010c84:	80c1a783          	lw	a5,-2036(gp) # 800007a4 <delay0>
20010c88:	4394                	lw	a3,0(a5)
20010c8a:	80c1a783          	lw	a5,-2036(gp) # 800007a4 <delay0>
20010c8e:	ff010737          	lui	a4,0xff010
20010c92:	177d                	addi	a4,a4,-1
20010c94:	8f75                	and	a4,a4,a3
20010c96:	c398                	sw	a4,0(a5)
F:\HiFive-IoT\Workspace\sifive-hifive1-revb-hello\src/hello.c:418
	*spi_csmode = 2;
20010c98:	8101a783          	lw	a5,-2032(gp) # 800007a8 <spi_csmode>
20010c9c:	4709                	li	a4,2
20010c9e:	c398                	sw	a4,0(a5)
F:\HiFive-IoT\Workspace\sifive-hifive1-revb-hello\src/hello.c:420

	uint16_t i = 0;
20010ca0:	fc041623          	sh	zero,-52(s0)
F:\HiFive-IoT\Workspace\sifive-hifive1-revb-hello\src/hello.c:421
	uint16_t timeout = 0;
20010ca4:	fc041723          	sh	zero,-50(s0)
F:\HiFive-IoT\Workspace\sifive-hifive1-revb-hello\src/hello.c:423
	uint32_t temp;
	while(get_input_val(WF_INT))
20010ca8:	a0f1                	j	20010d74 <get_data_esp+0x312>
F:\HiFive-IoT\Workspace\sifive-hifive1-revb-hello\src/hello.c:412
		return 0;
20010caa:	4781                	li	a5,0
20010cac:	aa5d                	j	20010e62 <get_data_esp+0x400>
F:\HiFive-IoT\Workspace\sifive-hifive1-revb-hello\src/hello.c:425
	{
		*txdata = i;
20010cae:	800007b7          	lui	a5,0x80000
20010cb2:	7987a783          	lw	a5,1944(a5) # 80000798 <metal_segment_heap_target_end+0xfffff6cc>
20010cb6:	fcc45703          	lhu	a4,-52(s0)
20010cba:	c398                	sw	a4,0(a5)
F:\HiFive-IoT\Workspace\sifive-hifive1-revb-hello\src/hello.c:427
//		memset(txdata, 1, 1);
		timeout = 0;
20010cbc:	fc041723          	sh	zero,-50(s0)
F:\HiFive-IoT\Workspace\sifive-hifive1-revb-hello\src/hello.c:428
		while ((*txdata & METAL_SPI_TXDATA_FULL)&&(timeout < 100))
20010cc0:	a031                	j	20010ccc <get_data_esp+0x26a>
F:\HiFive-IoT\Workspace\sifive-hifive1-revb-hello\src/hello.c:430
		{
			timeout++;
20010cc2:	fce45783          	lhu	a5,-50(s0)
20010cc6:	0785                	addi	a5,a5,1
20010cc8:	fcf41723          	sh	a5,-50(s0)
F:\HiFive-IoT\Workspace\sifive-hifive1-revb-hello\src/hello.c:428
		while ((*txdata & METAL_SPI_TXDATA_FULL)&&(timeout < 100))
20010ccc:	800007b7          	lui	a5,0x80000
20010cd0:	7987a783          	lw	a5,1944(a5) # 80000798 <metal_segment_heap_target_end+0xfffff6cc>
20010cd4:	439c                	lw	a5,0(a5)
20010cd6:	0007d863          	bgez	a5,20010ce6 <get_data_esp+0x284>
F:\HiFive-IoT\Workspace\sifive-hifive1-revb-hello\src/hello.c:428 (discriminator 1)
20010cda:	fce45703          	lhu	a4,-50(s0)
20010cde:	06300793          	li	a5,99
20010ce2:	fee7f0e3          	bgeu	a5,a4,20010cc2 <get_data_esp+0x260>
F:\HiFive-IoT\Workspace\sifive-hifive1-revb-hello\src/hello.c:432
		}
		rx_buf[i] = (*rxdata);
20010ce6:	800007b7          	lui	a5,0x80000
20010cea:	79c7a703          	lw	a4,1948(a5) # 8000079c <metal_segment_heap_target_end+0xfffff6d0>
20010cee:	fcc45783          	lhu	a5,-52(s0)
20010cf2:	4318                	lw	a4,0(a4)
20010cf4:	078a                	slli	a5,a5,0x2
20010cf6:	fd040693          	addi	a3,s0,-48
20010cfa:	97b6                	add	a5,a5,a3
20010cfc:	f6e7a223          	sw	a4,-156(a5)
F:\HiFive-IoT\Workspace\sifive-hifive1-revb-hello\src/hello.c:433
		timeout = 0;
20010d00:	fc041723          	sh	zero,-50(s0)
F:\HiFive-IoT\Workspace\sifive-hifive1-revb-hello\src/hello.c:434
		while ((rx_buf[i] & METAL_SPI_TXDATA_FULL)&&(timeout < 100))
20010d04:	a82d                	j	20010d3e <get_data_esp+0x2dc>
F:\HiFive-IoT\Workspace\sifive-hifive1-revb-hello\src/hello.c:436
		{
			rx_buf[i] = (*rxdata);
20010d06:	800007b7          	lui	a5,0x80000
20010d0a:	79c7a703          	lw	a4,1948(a5) # 8000079c <metal_segment_heap_target_end+0xfffff6d0>
20010d0e:	fcc45783          	lhu	a5,-52(s0)
20010d12:	4318                	lw	a4,0(a4)
20010d14:	078a                	slli	a5,a5,0x2
20010d16:	fd040693          	addi	a3,s0,-48
20010d1a:	97b6                	add	a5,a5,a3
20010d1c:	f6e7a223          	sw	a4,-156(a5)
F:\HiFive-IoT\Workspace\sifive-hifive1-revb-hello\src/hello.c:437
			if(!get_input_val(WF_INT)) *csmode = 0;
20010d20:	4529                	li	a0,10
20010d22:	2255                	jal	20010ec6 <get_input_val>
20010d24:	87aa                	mv	a5,a0
20010d26:	e799                	bnez	a5,20010d34 <get_data_esp+0x2d2>
F:\HiFive-IoT\Workspace\sifive-hifive1-revb-hello\src/hello.c:437 (discriminator 1)
20010d28:	800007b7          	lui	a5,0x80000
20010d2c:	7a07a783          	lw	a5,1952(a5) # 800007a0 <metal_segment_heap_target_end+0xfffff6d4>
20010d30:	0007a023          	sw	zero,0(a5)
F:\HiFive-IoT\Workspace\sifive-hifive1-revb-hello\src/hello.c:438
			timeout++;
20010d34:	fce45783          	lhu	a5,-50(s0)
20010d38:	0785                	addi	a5,a5,1
20010d3a:	fcf41723          	sh	a5,-50(s0)
F:\HiFive-IoT\Workspace\sifive-hifive1-revb-hello\src/hello.c:434
		while ((rx_buf[i] & METAL_SPI_TXDATA_FULL)&&(timeout < 100))
20010d3e:	fcc45783          	lhu	a5,-52(s0)
20010d42:	078a                	slli	a5,a5,0x2
20010d44:	fd040713          	addi	a4,s0,-48
20010d48:	97ba                	add	a5,a5,a4
20010d4a:	f647a783          	lw	a5,-156(a5)
20010d4e:	0007d863          	bgez	a5,20010d5e <get_data_esp+0x2fc>
F:\HiFive-IoT\Workspace\sifive-hifive1-revb-hello\src/hello.c:434 (discriminator 1)
20010d52:	fce45703          	lhu	a4,-50(s0)
20010d56:	06300793          	li	a5,99
20010d5a:	fae7f6e3          	bgeu	a5,a4,20010d06 <get_data_esp+0x2a4>
F:\HiFive-IoT\Workspace\sifive-hifive1-revb-hello\src/hello.c:440
		}
		i++;
20010d5e:	fcc45783          	lhu	a5,-52(s0)
20010d62:	0785                	addi	a5,a5,1
20010d64:	fcf41623          	sh	a5,-52(s0)
F:\HiFive-IoT\Workspace\sifive-hifive1-revb-hello\src/hello.c:441
		if(i >= 512)
20010d68:	fcc45703          	lhu	a4,-52(s0)
20010d6c:	1ff00793          	li	a5,511
20010d70:	00e7e763          	bltu	a5,a4,20010d7e <get_data_esp+0x31c>
F:\HiFive-IoT\Workspace\sifive-hifive1-revb-hello\src/hello.c:423
	while(get_input_val(WF_INT))
20010d74:	4529                	li	a0,10
20010d76:	2a81                	jal	20010ec6 <get_input_val>
20010d78:	87aa                	mv	a5,a0
20010d7a:	fb95                	bnez	a5,20010cae <get_data_esp+0x24c>
20010d7c:	a011                	j	20010d80 <get_data_esp+0x31e>
F:\HiFive-IoT\Workspace\sifive-hifive1-revb-hello\src/hello.c:442
			break;
20010d7e:	0001                	nop
F:\HiFive-IoT\Workspace\sifive-hifive1-revb-hello\src/hello.c:444
	}
	*spi_csmode = 0;
20010d80:	8101a783          	lw	a5,-2032(gp) # 800007a8 <spi_csmode>
20010d84:	0007a023          	sw	zero,0(a5)
F:\HiFive-IoT\Workspace\sifive-hifive1-revb-hello\src/hello.c:446
//	printf("[0]: 0x%04x, [1]: 0x%04x, [2]: 0x%04x, [3]: 0x%04x\n", rx_buf[0], rx_buf[1], rx_buf[2], rx_buf[3]);
	delay(100);
20010d88:	06400513          	li	a0,100
20010d8c:	c0cff0ef          	jal	ra,20010198 <delay>
F:\HiFive-IoT\Workspace\sifive-hifive1-revb-hello\src/hello.c:447
	if((rx_buf[2] == 0x4f)&&(rx_buf[3] == 0x4b))
20010d90:	f3c42703          	lw	a4,-196(s0)
20010d94:	04f00793          	li	a5,79
20010d98:	00f71a63          	bne	a4,a5,20010dac <get_data_esp+0x34a>
F:\HiFive-IoT\Workspace\sifive-hifive1-revb-hello\src/hello.c:447 (discriminator 1)
20010d9c:	f4042703          	lw	a4,-192(s0)
20010da0:	04b00793          	li	a5,75
20010da4:	00f71463          	bne	a4,a5,20010dac <get_data_esp+0x34a>
F:\HiFive-IoT\Workspace\sifive-hifive1-revb-hello\src/hello.c:449
	{
		return 1;
20010da8:	4785                	li	a5,1
20010daa:	a865                	j	20010e62 <get_data_esp+0x400>
F:\HiFive-IoT\Workspace\sifive-hifive1-revb-hello\src/hello.c:452
	}
	else
	{
20010dac:	878a                	mv	a5,sp
20010dae:	84be                	mv	s1,a5
F:\HiFive-IoT\Workspace\sifive-hifive1-revb-hello\src/hello.c:453
		char mess[cmd_len+1];
20010db0:	fbe41783          	lh	a5,-66(s0)
20010db4:	0785                	addi	a5,a5,1
20010db6:	fff78713          	addi	a4,a5,-1
20010dba:	fae42c23          	sw	a4,-72(s0)
20010dbe:	873e                	mv	a4,a5
20010dc0:	8c3a                	mv	s8,a4
20010dc2:	4c81                	li	s9,0
20010dc4:	01dc5713          	srli	a4,s8,0x1d
20010dc8:	003c9a93          	slli	s5,s9,0x3
20010dcc:	01576ab3          	or	s5,a4,s5
20010dd0:	003c1a13          	slli	s4,s8,0x3
20010dd4:	873e                	mv	a4,a5
20010dd6:	8b3a                	mv	s6,a4
20010dd8:	4b81                	li	s7,0
20010dda:	01db5713          	srli	a4,s6,0x1d
20010dde:	003b9993          	slli	s3,s7,0x3
20010de2:	013769b3          	or	s3,a4,s3
20010de6:	003b1913          	slli	s2,s6,0x3
20010dea:	07bd                	addi	a5,a5,15
20010dec:	8391                	srli	a5,a5,0x4
20010dee:	0792                	slli	a5,a5,0x4
20010df0:	40f10133          	sub	sp,sp,a5
20010df4:	878a                	mv	a5,sp
20010df6:	00078793          	mv	a5,a5
20010dfa:	faf42a23          	sw	a5,-76(s0)
F:\HiFive-IoT\Workspace\sifive-hifive1-revb-hello\src/hello.c:454
		memset(mess, 0, cmd_len + 1);
20010dfe:	fb442703          	lw	a4,-76(s0)
20010e02:	fbe41783          	lh	a5,-66(s0)
20010e06:	0785                	addi	a5,a5,1
20010e08:	863e                	mv	a2,a5
20010e0a:	4581                	li	a1,0
20010e0c:	853a                	mv	a0,a4
20010e0e:	2ad1                	jal	20010fe2 <memset>
F:\HiFive-IoT\Workspace\sifive-hifive1-revb-hello\src/hello.c:455
		for(int i = 0; i < cmd_len; i++)
20010e10:	fc042023          	sw	zero,-64(s0)
20010e14:	a03d                	j	20010e42 <get_data_esp+0x3e0>
F:\HiFive-IoT\Workspace\sifive-hifive1-revb-hello\src/hello.c:457 (discriminator 3)
		{
			mess[i] = (char)rx_buf[i];
20010e16:	fc042783          	lw	a5,-64(s0)
20010e1a:	078a                	slli	a5,a5,0x2
20010e1c:	fd040713          	addi	a4,s0,-48
20010e20:	97ba                	add	a5,a5,a4
20010e22:	f647a783          	lw	a5,-156(a5)
20010e26:	0ff7f713          	andi	a4,a5,255
20010e2a:	fb442683          	lw	a3,-76(s0)
20010e2e:	fc042783          	lw	a5,-64(s0)
20010e32:	97b6                	add	a5,a5,a3
20010e34:	00e78023          	sb	a4,0(a5)
F:\HiFive-IoT\Workspace\sifive-hifive1-revb-hello\src/hello.c:455 (discriminator 3)
		for(int i = 0; i < cmd_len; i++)
20010e38:	fc042783          	lw	a5,-64(s0)
20010e3c:	0785                	addi	a5,a5,1
20010e3e:	fcf42023          	sw	a5,-64(s0)
F:\HiFive-IoT\Workspace\sifive-hifive1-revb-hello\src/hello.c:455 (discriminator 1)
20010e42:	fbe41783          	lh	a5,-66(s0)
20010e46:	fc042703          	lw	a4,-64(s0)
20010e4a:	fcf746e3          	blt	a4,a5,20010e16 <get_data_esp+0x3b4>
F:\HiFive-IoT\Workspace\sifive-hifive1-revb-hello\src/hello.c:459
		}
		printf("[message]: %s\n", mess);
20010e4e:	fb442783          	lw	a5,-76(s0)
20010e52:	85be                	mv	a1,a5
20010e54:	200167b7          	lui	a5,0x20016
20010e58:	51878513          	addi	a0,a5,1304 # 20016518 <_exit+0x196>
20010e5c:	243d                	jal	2001108a <iprintf>
F:\HiFive-IoT\Workspace\sifive-hifive1-revb-hello\src/hello.c:460
		return 0;
20010e5e:	4781                	li	a5,0
20010e60:	8126                	mv	sp,s1
F:\HiFive-IoT\Workspace\sifive-hifive1-revb-hello\src/hello.c:462 (discriminator 2)
	}
}
20010e62:	853e                	mv	a0,a5
20010e64:	f2040113          	addi	sp,s0,-224
20010e68:	40fe                	lw	ra,220(sp)
20010e6a:	446e                	lw	s0,216(sp)
20010e6c:	44de                	lw	s1,212(sp)
20010e6e:	494e                	lw	s2,208(sp)
20010e70:	49be                	lw	s3,204(sp)
20010e72:	4a2e                	lw	s4,200(sp)
20010e74:	4a9e                	lw	s5,196(sp)
20010e76:	4b0e                	lw	s6,192(sp)
20010e78:	5bfa                	lw	s7,188(sp)
20010e7a:	5c6a                	lw	s8,184(sp)
20010e7c:	5cda                	lw	s9,180(sp)
20010e7e:	612d                	addi	sp,sp,224
20010e80:	8082                	ret

20010e82 <input_enable>:
input_enable():
F:\HiFive-IoT\Workspace\sifive-hifive1-revb-hello\src/hello.c:464
void input_enable(char pin)
{
20010e82:	1101                	addi	sp,sp,-32
20010e84:	ce06                	sw	ra,28(sp)
20010e86:	cc22                	sw	s0,24(sp)
20010e88:	1000                	addi	s0,sp,32
20010e8a:	87aa                	mv	a5,a0
20010e8c:	fef407a3          	sb	a5,-17(s0)
F:\HiFive-IoT\Workspace\sifive-hifive1-revb-hello\src/hello.c:465
	*gpio_input_en |= 1<<pin;
20010e90:	8141a783          	lw	a5,-2028(gp) # 800007ac <gpio_input_en>
20010e94:	4398                	lw	a4,0(a5)
20010e96:	fef44783          	lbu	a5,-17(s0)
20010e9a:	4685                	li	a3,1
20010e9c:	00f697b3          	sll	a5,a3,a5
20010ea0:	86be                	mv	a3,a5
20010ea2:	8141a783          	lw	a5,-2028(gp) # 800007ac <gpio_input_en>
20010ea6:	8f55                	or	a4,a4,a3
20010ea8:	c398                	sw	a4,0(a5)
F:\HiFive-IoT\Workspace\sifive-hifive1-revb-hello\src/hello.c:466
	printf("input_en register value: 0x%04x\n", *gpio_input_en);
20010eaa:	8141a783          	lw	a5,-2028(gp) # 800007ac <gpio_input_en>
20010eae:	439c                	lw	a5,0(a5)
20010eb0:	85be                	mv	a1,a5
20010eb2:	200167b7          	lui	a5,0x20016
20010eb6:	52878513          	addi	a0,a5,1320 # 20016528 <_exit+0x1a6>
20010eba:	2ac1                	jal	2001108a <iprintf>
F:\HiFive-IoT\Workspace\sifive-hifive1-revb-hello\src/hello.c:467
}
20010ebc:	0001                	nop
20010ebe:	40f2                	lw	ra,28(sp)
20010ec0:	4462                	lw	s0,24(sp)
20010ec2:	6105                	addi	sp,sp,32
20010ec4:	8082                	ret

20010ec6 <get_input_val>:
get_input_val():
F:\HiFive-IoT\Workspace\sifive-hifive1-revb-hello\src/hello.c:469
uint32_t get_input_val(char pin)
{
20010ec6:	7179                	addi	sp,sp,-48
20010ec8:	d622                	sw	s0,44(sp)
20010eca:	1800                	addi	s0,sp,48
20010ecc:	87aa                	mv	a5,a0
20010ece:	fcf40fa3          	sb	a5,-33(s0)
F:\HiFive-IoT\Workspace\sifive-hifive1-revb-hello\src/hello.c:470
	uint32_t mask =  1<<pin;
20010ed2:	fdf44783          	lbu	a5,-33(s0)
20010ed6:	4705                	li	a4,1
20010ed8:	00f717b3          	sll	a5,a4,a5
20010edc:	fef42623          	sw	a5,-20(s0)
F:\HiFive-IoT\Workspace\sifive-hifive1-revb-hello\src/hello.c:471
	uint32_t val = (*gpio_input_val & mask) << pin;
20010ee0:	8181a783          	lw	a5,-2024(gp) # 800007b0 <gpio_input_val>
20010ee4:	4398                	lw	a4,0(a5)
20010ee6:	fec42783          	lw	a5,-20(s0)
20010eea:	8f7d                	and	a4,a4,a5
20010eec:	fdf44783          	lbu	a5,-33(s0)
20010ef0:	00f717b3          	sll	a5,a4,a5
20010ef4:	fef42423          	sw	a5,-24(s0)
F:\HiFive-IoT\Workspace\sifive-hifive1-revb-hello\src/hello.c:472
	return val;
20010ef8:	fe842783          	lw	a5,-24(s0)
F:\HiFive-IoT\Workspace\sifive-hifive1-revb-hello\src/hello.c:473
}
20010efc:	853e                	mv	a0,a5
20010efe:	5432                	lw	s0,44(sp)
20010f00:	6145                	addi	sp,sp,48
20010f02:	8082                	ret

20010f04 <clock>:
clock():
20010f04:	81c18793          	addi	a5,gp,-2020 # 800007b4 <_impure_ptr>
20010f08:	4388                	lw	a0,0(a5)
20010f0a:	1101                	addi	sp,sp,-32
20010f0c:	858a                	mv	a1,sp
20010f0e:	ce06                	sw	ra,28(sp)
20010f10:	2c45                	jal	200111c0 <_times_r>
20010f12:	57fd                	li	a5,-1
20010f14:	00f50963          	beq	a0,a5,20010f26 <clock+0x22>
20010f18:	4792                	lw	a5,4(sp)
20010f1a:	4502                	lw	a0,0(sp)
20010f1c:	953e                	add	a0,a0,a5
20010f1e:	47a2                	lw	a5,8(sp)
20010f20:	953e                	add	a0,a0,a5
20010f22:	47b2                	lw	a5,12(sp)
20010f24:	953e                	add	a0,a0,a5
20010f26:	40f2                	lw	ra,28(sp)
20010f28:	6105                	addi	sp,sp,32
20010f2a:	8082                	ret

20010f2c <memcpy>:
memcpy():
20010f2c:	00a5c7b3          	xor	a5,a1,a0
20010f30:	8b8d                	andi	a5,a5,3
20010f32:	00c50733          	add	a4,a0,a2
20010f36:	e781                	bnez	a5,20010f3e <memcpy+0x12>
20010f38:	478d                	li	a5,3
20010f3a:	00c7ee63          	bltu	a5,a2,20010f56 <memcpy+0x2a>
20010f3e:	87aa                	mv	a5,a0
20010f40:	0ae57063          	bgeu	a0,a4,20010fe0 <memcpy+0xb4>
20010f44:	0005c683          	lbu	a3,0(a1)
20010f48:	0785                	addi	a5,a5,1
20010f4a:	0585                	addi	a1,a1,1
20010f4c:	fed78fa3          	sb	a3,-1(a5)
20010f50:	fee7eae3          	bltu	a5,a4,20010f44 <memcpy+0x18>
20010f54:	8082                	ret
20010f56:	00357693          	andi	a3,a0,3
20010f5a:	87aa                	mv	a5,a0
20010f5c:	ca91                	beqz	a3,20010f70 <memcpy+0x44>
20010f5e:	0005c683          	lbu	a3,0(a1)
20010f62:	0785                	addi	a5,a5,1
20010f64:	0585                	addi	a1,a1,1
20010f66:	fed78fa3          	sb	a3,-1(a5)
20010f6a:	0037f693          	andi	a3,a5,3
20010f6e:	b7fd                	j	20010f5c <memcpy+0x30>
20010f70:	ffc77693          	andi	a3,a4,-4
20010f74:	fe068613          	addi	a2,a3,-32
20010f78:	06c7f063          	bgeu	a5,a2,20010fd8 <memcpy+0xac>
20010f7c:	0005a383          	lw	t2,0(a1)
20010f80:	0045a283          	lw	t0,4(a1)
20010f84:	0085af83          	lw	t6,8(a1)
20010f88:	00c5af03          	lw	t5,12(a1)
20010f8c:	0105ae83          	lw	t4,16(a1)
20010f90:	0145ae03          	lw	t3,20(a1)
20010f94:	0185a303          	lw	t1,24(a1)
20010f98:	01c5a883          	lw	a7,28(a1)
20010f9c:	02458593          	addi	a1,a1,36
20010fa0:	0077a023          	sw	t2,0(a5)
20010fa4:	ffc5a803          	lw	a6,-4(a1)
20010fa8:	0057a223          	sw	t0,4(a5)
20010fac:	01f7a423          	sw	t6,8(a5)
20010fb0:	01e7a623          	sw	t5,12(a5)
20010fb4:	01d7a823          	sw	t4,16(a5)
20010fb8:	01c7aa23          	sw	t3,20(a5)
20010fbc:	0067ac23          	sw	t1,24(a5)
20010fc0:	0117ae23          	sw	a7,28(a5)
20010fc4:	02478793          	addi	a5,a5,36
20010fc8:	ff07ae23          	sw	a6,-4(a5)
20010fcc:	b775                	j	20010f78 <memcpy+0x4c>
20010fce:	4190                	lw	a2,0(a1)
20010fd0:	0791                	addi	a5,a5,4
20010fd2:	0591                	addi	a1,a1,4
20010fd4:	fec7ae23          	sw	a2,-4(a5)
20010fd8:	fed7ebe3          	bltu	a5,a3,20010fce <memcpy+0xa2>
20010fdc:	f6e7e4e3          	bltu	a5,a4,20010f44 <memcpy+0x18>
20010fe0:	8082                	ret

20010fe2 <memset>:
memset():
20010fe2:	433d                	li	t1,15
20010fe4:	872a                	mv	a4,a0
20010fe6:	02c37363          	bgeu	t1,a2,2001100c <memset+0x2a>
20010fea:	00f77793          	andi	a5,a4,15
20010fee:	efbd                	bnez	a5,2001106c <memset+0x8a>
20010ff0:	e5ad                	bnez	a1,2001105a <memset+0x78>
20010ff2:	ff067693          	andi	a3,a2,-16
20010ff6:	8a3d                	andi	a2,a2,15
20010ff8:	96ba                	add	a3,a3,a4
20010ffa:	c30c                	sw	a1,0(a4)
20010ffc:	c34c                	sw	a1,4(a4)
20010ffe:	c70c                	sw	a1,8(a4)
20011000:	c74c                	sw	a1,12(a4)
20011002:	0741                	addi	a4,a4,16
20011004:	fed76be3          	bltu	a4,a3,20010ffa <memset+0x18>
20011008:	e211                	bnez	a2,2001100c <memset+0x2a>
2001100a:	8082                	ret
2001100c:	40c306b3          	sub	a3,t1,a2
20011010:	068a                	slli	a3,a3,0x2
20011012:	00000297          	auipc	t0,0x0
20011016:	9696                	add	a3,a3,t0
20011018:	00a68067          	jr	10(a3)
2001101c:	00b70723          	sb	a1,14(a4) # ff01000e <metal_segment_heap_target_end+0x7f00ef42>
20011020:	00b706a3          	sb	a1,13(a4)
20011024:	00b70623          	sb	a1,12(a4)
20011028:	00b705a3          	sb	a1,11(a4)
2001102c:	00b70523          	sb	a1,10(a4)
20011030:	00b704a3          	sb	a1,9(a4)
20011034:	00b70423          	sb	a1,8(a4)
20011038:	00b703a3          	sb	a1,7(a4)
2001103c:	00b70323          	sb	a1,6(a4)
20011040:	00b702a3          	sb	a1,5(a4)
20011044:	00b70223          	sb	a1,4(a4)
20011048:	00b701a3          	sb	a1,3(a4)
2001104c:	00b70123          	sb	a1,2(a4)
20011050:	00b700a3          	sb	a1,1(a4)
20011054:	00b70023          	sb	a1,0(a4)
20011058:	8082                	ret
2001105a:	0ff5f593          	andi	a1,a1,255
2001105e:	00859693          	slli	a3,a1,0x8
20011062:	8dd5                	or	a1,a1,a3
20011064:	01059693          	slli	a3,a1,0x10
20011068:	8dd5                	or	a1,a1,a3
2001106a:	b761                	j	20010ff2 <memset+0x10>
2001106c:	00279693          	slli	a3,a5,0x2
20011070:	00000297          	auipc	t0,0x0
20011074:	9696                	add	a3,a3,t0
20011076:	8286                	mv	t0,ra
20011078:	fa8680e7          	jalr	-88(a3)
2001107c:	8096                	mv	ra,t0
2001107e:	17c1                	addi	a5,a5,-16
20011080:	8f1d                	sub	a4,a4,a5
20011082:	963e                	add	a2,a2,a5
20011084:	f8c374e3          	bgeu	t1,a2,2001100c <memset+0x2a>
20011088:	b7a5                	j	20010ff0 <memset+0xe>

2001108a <iprintf>:
printf():
2001108a:	7139                	addi	sp,sp,-64
2001108c:	da3e                	sw	a5,52(sp)
2001108e:	d22e                	sw	a1,36(sp)
20011090:	d432                	sw	a2,40(sp)
20011092:	d636                	sw	a3,44(sp)
20011094:	d83a                	sw	a4,48(sp)
20011096:	dc42                	sw	a6,56(sp)
20011098:	de46                	sw	a7,60(sp)
2001109a:	81c18793          	addi	a5,gp,-2020 # 800007b4 <_impure_ptr>
2001109e:	cc22                	sw	s0,24(sp)
200110a0:	4380                	lw	s0,0(a5)
200110a2:	ca26                	sw	s1,20(sp)
200110a4:	ce06                	sw	ra,28(sp)
200110a6:	84aa                	mv	s1,a0
200110a8:	c409                	beqz	s0,200110b2 <iprintf+0x28>
200110aa:	4c1c                	lw	a5,24(s0)
200110ac:	e399                	bnez	a5,200110b2 <iprintf+0x28>
200110ae:	8522                	mv	a0,s0
200110b0:	2b35                	jal	200115ec <__sinit>
200110b2:	440c                	lw	a1,8(s0)
200110b4:	1054                	addi	a3,sp,36
200110b6:	8626                	mv	a2,s1
200110b8:	8522                	mv	a0,s0
200110ba:	c636                	sw	a3,12(sp)
200110bc:	189000ef          	jal	ra,20011a44 <_vfiprintf_r>
200110c0:	40f2                	lw	ra,28(sp)
200110c2:	4462                	lw	s0,24(sp)
200110c4:	44d2                	lw	s1,20(sp)
200110c6:	6121                	addi	sp,sp,64
200110c8:	8082                	ret

200110ca <_puts_r>:
_puts_r():
200110ca:	1101                	addi	sp,sp,-32
200110cc:	ca26                	sw	s1,20(sp)
200110ce:	c84a                	sw	s2,16(sp)
200110d0:	ce06                	sw	ra,28(sp)
200110d2:	cc22                	sw	s0,24(sp)
200110d4:	c64e                	sw	s3,12(sp)
200110d6:	c452                	sw	s4,8(sp)
200110d8:	84aa                	mv	s1,a0
200110da:	892e                	mv	s2,a1
200110dc:	c501                	beqz	a0,200110e4 <_puts_r+0x1a>
200110de:	4d1c                	lw	a5,24(a0)
200110e0:	e391                	bnez	a5,200110e4 <_puts_r+0x1a>
200110e2:	2329                	jal	200115ec <__sinit>
200110e4:	4c9c                	lw	a5,24(s1)
200110e6:	4480                	lw	s0,8(s1)
200110e8:	e399                	bnez	a5,200110ee <_puts_r+0x24>
200110ea:	8526                	mv	a0,s1
200110ec:	2301                	jal	200115ec <__sinit>
200110ee:	00005797          	auipc	a5,0x5
200110f2:	47e78793          	addi	a5,a5,1150 # 2001656c <__sf_fake_stdin>
200110f6:	02f41c63          	bne	s0,a5,2001112e <_puts_r+0x64>
200110fa:	40c0                	lw	s0,4(s1)
200110fc:	00c45783          	lhu	a5,12(s0)
20011100:	8ba1                	andi	a5,a5,8
20011102:	c7b1                	beqz	a5,2001114e <_puts_r+0x84>
20011104:	481c                	lw	a5,16(s0)
20011106:	c7a1                	beqz	a5,2001114e <_puts_r+0x84>
20011108:	59fd                	li	s3,-1
2001110a:	4a29                	li	s4,10
2001110c:	441c                	lw	a5,8(s0)
2001110e:	00094583          	lbu	a1,0(s2)
20011112:	17fd                	addi	a5,a5,-1
20011114:	e9b1                	bnez	a1,20011168 <_puts_r+0x9e>
20011116:	c41c                	sw	a5,8(s0)
20011118:	0607de63          	bgez	a5,20011194 <_puts_r+0xca>
2001111c:	8622                	mv	a2,s0
2001111e:	45a9                	li	a1,10
20011120:	8526                	mv	a0,s1
20011122:	2055                	jal	200111c6 <__swbuf_r>
20011124:	57fd                	li	a5,-1
20011126:	02f50863          	beq	a0,a5,20011156 <_puts_r+0x8c>
2001112a:	4529                	li	a0,10
2001112c:	a035                	j	20011158 <_puts_r+0x8e>
2001112e:	00005797          	auipc	a5,0x5
20011132:	45e78793          	addi	a5,a5,1118 # 2001658c <__sf_fake_stdout>
20011136:	00f41463          	bne	s0,a5,2001113e <_puts_r+0x74>
2001113a:	4480                	lw	s0,8(s1)
2001113c:	b7c1                	j	200110fc <_puts_r+0x32>
2001113e:	00005797          	auipc	a5,0x5
20011142:	40e78793          	addi	a5,a5,1038 # 2001654c <__sf_fake_stderr>
20011146:	faf41be3          	bne	s0,a5,200110fc <_puts_r+0x32>
2001114a:	44c0                	lw	s0,12(s1)
2001114c:	bf45                	j	200110fc <_puts_r+0x32>
2001114e:	85a2                	mv	a1,s0
20011150:	8526                	mv	a0,s1
20011152:	2a15                	jal	20011286 <__swsetup_r>
20011154:	d955                	beqz	a0,20011108 <_puts_r+0x3e>
20011156:	557d                	li	a0,-1
20011158:	40f2                	lw	ra,28(sp)
2001115a:	4462                	lw	s0,24(sp)
2001115c:	44d2                	lw	s1,20(sp)
2001115e:	4942                	lw	s2,16(sp)
20011160:	49b2                	lw	s3,12(sp)
20011162:	4a22                	lw	s4,8(sp)
20011164:	6105                	addi	sp,sp,32
20011166:	8082                	ret
20011168:	c41c                	sw	a5,8(s0)
2001116a:	0905                	addi	s2,s2,1
2001116c:	0007d763          	bgez	a5,2001117a <_puts_r+0xb0>
20011170:	4c18                	lw	a4,24(s0)
20011172:	00e7cb63          	blt	a5,a4,20011188 <_puts_r+0xbe>
20011176:	01458963          	beq	a1,s4,20011188 <_puts_r+0xbe>
2001117a:	401c                	lw	a5,0(s0)
2001117c:	00178713          	addi	a4,a5,1
20011180:	c018                	sw	a4,0(s0)
20011182:	00b78023          	sb	a1,0(a5)
20011186:	b759                	j	2001110c <_puts_r+0x42>
20011188:	8622                	mv	a2,s0
2001118a:	8526                	mv	a0,s1
2001118c:	282d                	jal	200111c6 <__swbuf_r>
2001118e:	f7351fe3          	bne	a0,s3,2001110c <_puts_r+0x42>
20011192:	b7d1                	j	20011156 <_puts_r+0x8c>
20011194:	401c                	lw	a5,0(s0)
20011196:	00178713          	addi	a4,a5,1
2001119a:	c018                	sw	a4,0(s0)
2001119c:	4729                	li	a4,10
2001119e:	00e78023          	sb	a4,0(a5)
200111a2:	b761                	j	2001112a <_puts_r+0x60>

200111a4 <puts>:
puts():
200111a4:	81c18793          	addi	a5,gp,-2020 # 800007b4 <_impure_ptr>
200111a8:	85aa                	mv	a1,a0
200111aa:	4388                	lw	a0,0(a5)
200111ac:	bf39                	j	200110ca <_puts_r>

200111ae <strlen>:
strlen():
200111ae:	87aa                	mv	a5,a0
200111b0:	0785                	addi	a5,a5,1
200111b2:	fff7c703          	lbu	a4,-1(a5)
200111b6:	ff6d                	bnez	a4,200111b0 <strlen+0x2>
200111b8:	40a78533          	sub	a0,a5,a0
200111bc:	157d                	addi	a0,a0,-1
200111be:	8082                	ret

200111c0 <_times_r>:
_times_r():
200111c0:	852e                	mv	a0,a1
200111c2:	4c60406f          	j	20015688 <_times>

200111c6 <__swbuf_r>:
__swbuf_r():
200111c6:	1101                	addi	sp,sp,-32
200111c8:	cc22                	sw	s0,24(sp)
200111ca:	ca26                	sw	s1,20(sp)
200111cc:	c84a                	sw	s2,16(sp)
200111ce:	ce06                	sw	ra,28(sp)
200111d0:	c64e                	sw	s3,12(sp)
200111d2:	84aa                	mv	s1,a0
200111d4:	892e                	mv	s2,a1
200111d6:	8432                	mv	s0,a2
200111d8:	c501                	beqz	a0,200111e0 <__swbuf_r+0x1a>
200111da:	4d1c                	lw	a5,24(a0)
200111dc:	e391                	bnez	a5,200111e0 <__swbuf_r+0x1a>
200111de:	2139                	jal	200115ec <__sinit>
200111e0:	00005797          	auipc	a5,0x5
200111e4:	38c78793          	addi	a5,a5,908 # 2001656c <__sf_fake_stdin>
200111e8:	06f41963          	bne	s0,a5,2001125a <__swbuf_r+0x94>
200111ec:	40c0                	lw	s0,4(s1)
200111ee:	4c1c                	lw	a5,24(s0)
200111f0:	c41c                	sw	a5,8(s0)
200111f2:	00c45783          	lhu	a5,12(s0)
200111f6:	8ba1                	andi	a5,a5,8
200111f8:	c3c9                	beqz	a5,2001127a <__swbuf_r+0xb4>
200111fa:	481c                	lw	a5,16(s0)
200111fc:	cfbd                	beqz	a5,2001127a <__swbuf_r+0xb4>
200111fe:	481c                	lw	a5,16(s0)
20011200:	4008                	lw	a0,0(s0)
20011202:	0ff97993          	andi	s3,s2,255
20011206:	0ff97913          	andi	s2,s2,255
2001120a:	8d1d                	sub	a0,a0,a5
2001120c:	485c                	lw	a5,20(s0)
2001120e:	00f54663          	blt	a0,a5,2001121a <__swbuf_r+0x54>
20011212:	85a2                	mv	a1,s0
20011214:	8526                	mv	a0,s1
20011216:	2c65                	jal	200114ce <_fflush_r>
20011218:	e52d                	bnez	a0,20011282 <__swbuf_r+0xbc>
2001121a:	441c                	lw	a5,8(s0)
2001121c:	0505                	addi	a0,a0,1
2001121e:	17fd                	addi	a5,a5,-1
20011220:	c41c                	sw	a5,8(s0)
20011222:	401c                	lw	a5,0(s0)
20011224:	00178713          	addi	a4,a5,1
20011228:	c018                	sw	a4,0(s0)
2001122a:	01378023          	sb	s3,0(a5)
2001122e:	485c                	lw	a5,20(s0)
20011230:	00a78963          	beq	a5,a0,20011242 <__swbuf_r+0x7c>
20011234:	00c45783          	lhu	a5,12(s0)
20011238:	8b85                	andi	a5,a5,1
2001123a:	cb81                	beqz	a5,2001124a <__swbuf_r+0x84>
2001123c:	47a9                	li	a5,10
2001123e:	00f91663          	bne	s2,a5,2001124a <__swbuf_r+0x84>
20011242:	85a2                	mv	a1,s0
20011244:	8526                	mv	a0,s1
20011246:	2461                	jal	200114ce <_fflush_r>
20011248:	ed0d                	bnez	a0,20011282 <__swbuf_r+0xbc>
2001124a:	40f2                	lw	ra,28(sp)
2001124c:	4462                	lw	s0,24(sp)
2001124e:	854a                	mv	a0,s2
20011250:	44d2                	lw	s1,20(sp)
20011252:	4942                	lw	s2,16(sp)
20011254:	49b2                	lw	s3,12(sp)
20011256:	6105                	addi	sp,sp,32
20011258:	8082                	ret
2001125a:	00005797          	auipc	a5,0x5
2001125e:	33278793          	addi	a5,a5,818 # 2001658c <__sf_fake_stdout>
20011262:	00f41463          	bne	s0,a5,2001126a <__swbuf_r+0xa4>
20011266:	4480                	lw	s0,8(s1)
20011268:	b759                	j	200111ee <__swbuf_r+0x28>
2001126a:	00005797          	auipc	a5,0x5
2001126e:	2e278793          	addi	a5,a5,738 # 2001654c <__sf_fake_stderr>
20011272:	f6f41ee3          	bne	s0,a5,200111ee <__swbuf_r+0x28>
20011276:	44c0                	lw	s0,12(s1)
20011278:	bf9d                	j	200111ee <__swbuf_r+0x28>
2001127a:	85a2                	mv	a1,s0
2001127c:	8526                	mv	a0,s1
2001127e:	2021                	jal	20011286 <__swsetup_r>
20011280:	dd3d                	beqz	a0,200111fe <__swbuf_r+0x38>
20011282:	597d                	li	s2,-1
20011284:	b7d9                	j	2001124a <__swbuf_r+0x84>

20011286 <__swsetup_r>:
__swsetup_r():
20011286:	1141                	addi	sp,sp,-16
20011288:	81c18793          	addi	a5,gp,-2020 # 800007b4 <_impure_ptr>
2001128c:	c226                	sw	s1,4(sp)
2001128e:	4384                	lw	s1,0(a5)
20011290:	c422                	sw	s0,8(sp)
20011292:	c04a                	sw	s2,0(sp)
20011294:	c606                	sw	ra,12(sp)
20011296:	892a                	mv	s2,a0
20011298:	842e                	mv	s0,a1
2001129a:	c489                	beqz	s1,200112a4 <__swsetup_r+0x1e>
2001129c:	4c9c                	lw	a5,24(s1)
2001129e:	e399                	bnez	a5,200112a4 <__swsetup_r+0x1e>
200112a0:	8526                	mv	a0,s1
200112a2:	26a9                	jal	200115ec <__sinit>
200112a4:	00005797          	auipc	a5,0x5
200112a8:	2c878793          	addi	a5,a5,712 # 2001656c <__sf_fake_stdin>
200112ac:	02f41c63          	bne	s0,a5,200112e4 <__swsetup_r+0x5e>
200112b0:	40c0                	lw	s0,4(s1)
200112b2:	00c41703          	lh	a4,12(s0)
200112b6:	01071793          	slli	a5,a4,0x10
200112ba:	83c1                	srli	a5,a5,0x10
200112bc:	0087f693          	andi	a3,a5,8
200112c0:	eeb5                	bnez	a3,2001133c <__swsetup_r+0xb6>
200112c2:	0107f693          	andi	a3,a5,16
200112c6:	ee9d                	bnez	a3,20011304 <__swsetup_r+0x7e>
200112c8:	47a5                	li	a5,9
200112ca:	00f92023          	sw	a5,0(s2)
200112ce:	04076713          	ori	a4,a4,64
200112d2:	00e41623          	sh	a4,12(s0)
200112d6:	557d                	li	a0,-1
200112d8:	40b2                	lw	ra,12(sp)
200112da:	4422                	lw	s0,8(sp)
200112dc:	4492                	lw	s1,4(sp)
200112de:	4902                	lw	s2,0(sp)
200112e0:	0141                	addi	sp,sp,16
200112e2:	8082                	ret
200112e4:	00005797          	auipc	a5,0x5
200112e8:	2a878793          	addi	a5,a5,680 # 2001658c <__sf_fake_stdout>
200112ec:	00f41463          	bne	s0,a5,200112f4 <__swsetup_r+0x6e>
200112f0:	4480                	lw	s0,8(s1)
200112f2:	b7c1                	j	200112b2 <__swsetup_r+0x2c>
200112f4:	00005797          	auipc	a5,0x5
200112f8:	25878793          	addi	a5,a5,600 # 2001654c <__sf_fake_stderr>
200112fc:	faf41be3          	bne	s0,a5,200112b2 <__swsetup_r+0x2c>
20011300:	44c0                	lw	s0,12(s1)
20011302:	bf45                	j	200112b2 <__swsetup_r+0x2c>
20011304:	8b91                	andi	a5,a5,4
20011306:	c78d                	beqz	a5,20011330 <__swsetup_r+0xaa>
20011308:	584c                	lw	a1,52(s0)
2001130a:	c989                	beqz	a1,2001131c <__swsetup_r+0x96>
2001130c:	04440793          	addi	a5,s0,68
20011310:	00f58463          	beq	a1,a5,20011318 <__swsetup_r+0x92>
20011314:	854a                	mv	a0,s2
20011316:	2b25                	jal	2001184e <_free_r>
20011318:	02042a23          	sw	zero,52(s0)
2001131c:	00c45783          	lhu	a5,12(s0)
20011320:	00042223          	sw	zero,4(s0)
20011324:	fdb7f793          	andi	a5,a5,-37
20011328:	00f41623          	sh	a5,12(s0)
2001132c:	481c                	lw	a5,16(s0)
2001132e:	c01c                	sw	a5,0(s0)
20011330:	00c45783          	lhu	a5,12(s0)
20011334:	0087e793          	ori	a5,a5,8
20011338:	00f41623          	sh	a5,12(s0)
2001133c:	481c                	lw	a5,16(s0)
2001133e:	ef81                	bnez	a5,20011356 <__swsetup_r+0xd0>
20011340:	00c45783          	lhu	a5,12(s0)
20011344:	20000713          	li	a4,512
20011348:	2807f793          	andi	a5,a5,640
2001134c:	00e78563          	beq	a5,a4,20011356 <__swsetup_r+0xd0>
20011350:	85a2                	mv	a1,s0
20011352:	854a                	mv	a0,s2
20011354:	29b9                	jal	200117b2 <__smakebuf_r>
20011356:	00c45783          	lhu	a5,12(s0)
2001135a:	0017f713          	andi	a4,a5,1
2001135e:	c705                	beqz	a4,20011386 <__swsetup_r+0x100>
20011360:	485c                	lw	a5,20(s0)
20011362:	00042423          	sw	zero,8(s0)
20011366:	40f007b3          	neg	a5,a5
2001136a:	cc1c                	sw	a5,24(s0)
2001136c:	481c                	lw	a5,16(s0)
2001136e:	4501                	li	a0,0
20011370:	f7a5                	bnez	a5,200112d8 <__swsetup_r+0x52>
20011372:	00c41783          	lh	a5,12(s0)
20011376:	0807f713          	andi	a4,a5,128
2001137a:	df39                	beqz	a4,200112d8 <__swsetup_r+0x52>
2001137c:	0407e793          	ori	a5,a5,64
20011380:	00f41623          	sh	a5,12(s0)
20011384:	bf89                	j	200112d6 <__swsetup_r+0x50>
20011386:	8b89                	andi	a5,a5,2
20011388:	4701                	li	a4,0
2001138a:	e391                	bnez	a5,2001138e <__swsetup_r+0x108>
2001138c:	4858                	lw	a4,20(s0)
2001138e:	c418                	sw	a4,8(s0)
20011390:	bff1                	j	2001136c <__swsetup_r+0xe6>

20011392 <__sflush_r>:
__sflush_r():
20011392:	00c5d783          	lhu	a5,12(a1)
20011396:	1101                	addi	sp,sp,-32
20011398:	cc22                	sw	s0,24(sp)
2001139a:	ca26                	sw	s1,20(sp)
2001139c:	ce06                	sw	ra,28(sp)
2001139e:	c84a                	sw	s2,16(sp)
200113a0:	c64e                	sw	s3,12(sp)
200113a2:	0087f713          	andi	a4,a5,8
200113a6:	84aa                	mv	s1,a0
200113a8:	842e                	mv	s0,a1
200113aa:	ef71                	bnez	a4,20011486 <__sflush_r+0xf4>
200113ac:	41d8                	lw	a4,4(a1)
200113ae:	00e04d63          	bgtz	a4,200113c8 <__sflush_r+0x36>
200113b2:	41b8                	lw	a4,64(a1)
200113b4:	00e04a63          	bgtz	a4,200113c8 <__sflush_r+0x36>
200113b8:	4501                	li	a0,0
200113ba:	40f2                	lw	ra,28(sp)
200113bc:	4462                	lw	s0,24(sp)
200113be:	44d2                	lw	s1,20(sp)
200113c0:	4942                	lw	s2,16(sp)
200113c2:	49b2                	lw	s3,12(sp)
200113c4:	6105                	addi	sp,sp,32
200113c6:	8082                	ret
200113c8:	5458                	lw	a4,44(s0)
200113ca:	d77d                	beqz	a4,200113b8 <__sflush_r+0x26>
200113cc:	0004a903          	lw	s2,0(s1)
200113d0:	01379693          	slli	a3,a5,0x13
200113d4:	0004a023          	sw	zero,0(s1)
200113d8:	0606dd63          	bgez	a3,20011452 <__sflush_r+0xc0>
200113dc:	4870                	lw	a2,84(s0)
200113de:	00c45783          	lhu	a5,12(s0)
200113e2:	8b91                	andi	a5,a5,4
200113e4:	c799                	beqz	a5,200113f2 <__sflush_r+0x60>
200113e6:	405c                	lw	a5,4(s0)
200113e8:	8e1d                	sub	a2,a2,a5
200113ea:	585c                	lw	a5,52(s0)
200113ec:	c399                	beqz	a5,200113f2 <__sflush_r+0x60>
200113ee:	403c                	lw	a5,64(s0)
200113f0:	8e1d                	sub	a2,a2,a5
200113f2:	545c                	lw	a5,44(s0)
200113f4:	500c                	lw	a1,32(s0)
200113f6:	4681                	li	a3,0
200113f8:	8526                	mv	a0,s1
200113fa:	9782                	jalr	a5
200113fc:	57fd                	li	a5,-1
200113fe:	00c45703          	lhu	a4,12(s0)
20011402:	00f51d63          	bne	a0,a5,2001141c <__sflush_r+0x8a>
20011406:	4094                	lw	a3,0(s1)
20011408:	47f5                	li	a5,29
2001140a:	06d7e863          	bltu	a5,a3,2001147a <__sflush_r+0xe8>
2001140e:	204007b7          	lui	a5,0x20400
20011412:	0785                	addi	a5,a5,1
20011414:	00d7d7b3          	srl	a5,a5,a3
20011418:	8b85                	andi	a5,a5,1
2001141a:	c3a5                	beqz	a5,2001147a <__sflush_r+0xe8>
2001141c:	481c                	lw	a5,16(s0)
2001141e:	00042223          	sw	zero,4(s0)
20011422:	c01c                	sw	a5,0(s0)
20011424:	01371793          	slli	a5,a4,0x13
20011428:	0007d863          	bgez	a5,20011438 <__sflush_r+0xa6>
2001142c:	57fd                	li	a5,-1
2001142e:	00f51463          	bne	a0,a5,20011436 <__sflush_r+0xa4>
20011432:	409c                	lw	a5,0(s1)
20011434:	e391                	bnez	a5,20011438 <__sflush_r+0xa6>
20011436:	c868                	sw	a0,84(s0)
20011438:	584c                	lw	a1,52(s0)
2001143a:	0124a023          	sw	s2,0(s1)
2001143e:	ddad                	beqz	a1,200113b8 <__sflush_r+0x26>
20011440:	04440793          	addi	a5,s0,68
20011444:	00f58463          	beq	a1,a5,2001144c <__sflush_r+0xba>
20011448:	8526                	mv	a0,s1
2001144a:	2111                	jal	2001184e <_free_r>
2001144c:	02042a23          	sw	zero,52(s0)
20011450:	b7a5                	j	200113b8 <__sflush_r+0x26>
20011452:	500c                	lw	a1,32(s0)
20011454:	4601                	li	a2,0
20011456:	4685                	li	a3,1
20011458:	8526                	mv	a0,s1
2001145a:	9702                	jalr	a4
2001145c:	57fd                	li	a5,-1
2001145e:	862a                	mv	a2,a0
20011460:	f6f51fe3          	bne	a0,a5,200113de <__sflush_r+0x4c>
20011464:	409c                	lw	a5,0(s1)
20011466:	dfa5                	beqz	a5,200113de <__sflush_r+0x4c>
20011468:	4775                	li	a4,29
2001146a:	00e78563          	beq	a5,a4,20011474 <__sflush_r+0xe2>
2001146e:	4759                	li	a4,22
20011470:	04e79463          	bne	a5,a4,200114b8 <__sflush_r+0x126>
20011474:	0124a023          	sw	s2,0(s1)
20011478:	b781                	j	200113b8 <__sflush_r+0x26>
2001147a:	04076713          	ori	a4,a4,64
2001147e:	00e41623          	sh	a4,12(s0)
20011482:	557d                	li	a0,-1
20011484:	bf1d                	j	200113ba <__sflush_r+0x28>
20011486:	0105a983          	lw	s3,16(a1)
2001148a:	f20987e3          	beqz	s3,200113b8 <__sflush_r+0x26>
2001148e:	0005a903          	lw	s2,0(a1)
20011492:	8b8d                	andi	a5,a5,3
20011494:	0135a023          	sw	s3,0(a1)
20011498:	41390933          	sub	s2,s2,s3
2001149c:	4701                	li	a4,0
2001149e:	e391                	bnez	a5,200114a2 <__sflush_r+0x110>
200114a0:	49d8                	lw	a4,20(a1)
200114a2:	c418                	sw	a4,8(s0)
200114a4:	f1205ae3          	blez	s2,200113b8 <__sflush_r+0x26>
200114a8:	541c                	lw	a5,40(s0)
200114aa:	500c                	lw	a1,32(s0)
200114ac:	86ca                	mv	a3,s2
200114ae:	864e                	mv	a2,s3
200114b0:	8526                	mv	a0,s1
200114b2:	9782                	jalr	a5
200114b4:	00a04963          	bgtz	a0,200114c6 <__sflush_r+0x134>
200114b8:	00c45783          	lhu	a5,12(s0)
200114bc:	0407e793          	ori	a5,a5,64
200114c0:	00f41623          	sh	a5,12(s0)
200114c4:	bf7d                	j	20011482 <__sflush_r+0xf0>
200114c6:	99aa                	add	s3,s3,a0
200114c8:	40a90933          	sub	s2,s2,a0
200114cc:	bfe1                	j	200114a4 <__sflush_r+0x112>

200114ce <_fflush_r>:
_fflush_r():
200114ce:	499c                	lw	a5,16(a1)
200114d0:	cfb9                	beqz	a5,2001152e <_fflush_r+0x60>
200114d2:	1101                	addi	sp,sp,-32
200114d4:	cc22                	sw	s0,24(sp)
200114d6:	ce06                	sw	ra,28(sp)
200114d8:	842a                	mv	s0,a0
200114da:	c511                	beqz	a0,200114e6 <_fflush_r+0x18>
200114dc:	4d1c                	lw	a5,24(a0)
200114de:	e781                	bnez	a5,200114e6 <_fflush_r+0x18>
200114e0:	c62e                	sw	a1,12(sp)
200114e2:	2229                	jal	200115ec <__sinit>
200114e4:	45b2                	lw	a1,12(sp)
200114e6:	00005797          	auipc	a5,0x5
200114ea:	08678793          	addi	a5,a5,134 # 2001656c <__sf_fake_stdin>
200114ee:	00f59b63          	bne	a1,a5,20011504 <_fflush_r+0x36>
200114f2:	404c                	lw	a1,4(s0)
200114f4:	00c59783          	lh	a5,12(a1)
200114f8:	c795                	beqz	a5,20011524 <_fflush_r+0x56>
200114fa:	8522                	mv	a0,s0
200114fc:	4462                	lw	s0,24(sp)
200114fe:	40f2                	lw	ra,28(sp)
20011500:	6105                	addi	sp,sp,32
20011502:	bd41                	j	20011392 <__sflush_r>
20011504:	00005797          	auipc	a5,0x5
20011508:	08878793          	addi	a5,a5,136 # 2001658c <__sf_fake_stdout>
2001150c:	00f59463          	bne	a1,a5,20011514 <_fflush_r+0x46>
20011510:	440c                	lw	a1,8(s0)
20011512:	b7cd                	j	200114f4 <_fflush_r+0x26>
20011514:	00005797          	auipc	a5,0x5
20011518:	03878793          	addi	a5,a5,56 # 2001654c <__sf_fake_stderr>
2001151c:	fcf59ce3          	bne	a1,a5,200114f4 <_fflush_r+0x26>
20011520:	444c                	lw	a1,12(s0)
20011522:	bfc9                	j	200114f4 <_fflush_r+0x26>
20011524:	40f2                	lw	ra,28(sp)
20011526:	4462                	lw	s0,24(sp)
20011528:	4501                	li	a0,0
2001152a:	6105                	addi	sp,sp,32
2001152c:	8082                	ret
2001152e:	4501                	li	a0,0
20011530:	8082                	ret

20011532 <std>:
std():
20011532:	1141                	addi	sp,sp,-16
20011534:	c422                	sw	s0,8(sp)
20011536:	c606                	sw	ra,12(sp)
20011538:	842a                	mv	s0,a0
2001153a:	00b51623          	sh	a1,12(a0)
2001153e:	00c51723          	sh	a2,14(a0)
20011542:	00052023          	sw	zero,0(a0)
20011546:	00052223          	sw	zero,4(a0)
2001154a:	00052423          	sw	zero,8(a0)
2001154e:	06052223          	sw	zero,100(a0)
20011552:	00052823          	sw	zero,16(a0)
20011556:	00052a23          	sw	zero,20(a0)
2001155a:	00052c23          	sw	zero,24(a0)
2001155e:	4621                	li	a2,8
20011560:	4581                	li	a1,0
20011562:	05c50513          	addi	a0,a0,92
20011566:	a7dff0ef          	jal	ra,20010fe2 <memset>
2001156a:	00000797          	auipc	a5,0x0
2001156e:	79e78793          	addi	a5,a5,1950 # 20011d08 <__sread>
20011572:	d05c                	sw	a5,36(s0)
20011574:	00000797          	auipc	a5,0x0
20011578:	7c478793          	addi	a5,a5,1988 # 20011d38 <__swrite>
2001157c:	d41c                	sw	a5,40(s0)
2001157e:	00001797          	auipc	a5,0x1
20011582:	80878793          	addi	a5,a5,-2040 # 20011d86 <__sseek>
20011586:	d45c                	sw	a5,44(s0)
20011588:	00001797          	auipc	a5,0x1
2001158c:	83478793          	addi	a5,a5,-1996 # 20011dbc <__sclose>
20011590:	d000                	sw	s0,32(s0)
20011592:	d81c                	sw	a5,48(s0)
20011594:	40b2                	lw	ra,12(sp)
20011596:	4422                	lw	s0,8(sp)
20011598:	0141                	addi	sp,sp,16
2001159a:	8082                	ret

2001159c <_cleanup_r>:
_cleanup_r():
2001159c:	00000597          	auipc	a1,0x0
200115a0:	f3258593          	addi	a1,a1,-206 # 200114ce <_fflush_r>
200115a4:	a2a9                	j	200116ee <_fwalk_reent>

200115a6 <__sfmoreglue>:
__sfmoreglue():
200115a6:	1141                	addi	sp,sp,-16
200115a8:	c226                	sw	s1,4(sp)
200115aa:	06800613          	li	a2,104
200115ae:	fff58493          	addi	s1,a1,-1
200115b2:	02c484b3          	mul	s1,s1,a2
200115b6:	c04a                	sw	s2,0(sp)
200115b8:	892e                	mv	s2,a1
200115ba:	c422                	sw	s0,8(sp)
200115bc:	c606                	sw	ra,12(sp)
200115be:	07448593          	addi	a1,s1,116
200115c2:	2e25                	jal	200118fa <_malloc_r>
200115c4:	842a                	mv	s0,a0
200115c6:	cd01                	beqz	a0,200115de <__sfmoreglue+0x38>
200115c8:	00052023          	sw	zero,0(a0)
200115cc:	01252223          	sw	s2,4(a0)
200115d0:	0531                	addi	a0,a0,12
200115d2:	c408                	sw	a0,8(s0)
200115d4:	06848613          	addi	a2,s1,104
200115d8:	4581                	li	a1,0
200115da:	a09ff0ef          	jal	ra,20010fe2 <memset>
200115de:	8522                	mv	a0,s0
200115e0:	40b2                	lw	ra,12(sp)
200115e2:	4422                	lw	s0,8(sp)
200115e4:	4492                	lw	s1,4(sp)
200115e6:	4902                	lw	s2,0(sp)
200115e8:	0141                	addi	sp,sp,16
200115ea:	8082                	ret

200115ec <__sinit>:
__sinit():
200115ec:	4d1c                	lw	a5,24(a0)
200115ee:	e3ad                	bnez	a5,20011650 <__sinit+0x64>
200115f0:	1141                	addi	sp,sp,-16
200115f2:	c606                	sw	ra,12(sp)
200115f4:	c422                	sw	s0,8(sp)
200115f6:	00000797          	auipc	a5,0x0
200115fa:	fa678793          	addi	a5,a5,-90 # 2001159c <_cleanup_r>
200115fe:	d51c                	sw	a5,40(a0)
20011600:	82018793          	addi	a5,gp,-2016 # 800007b8 <_global_impure_ptr>
20011604:	439c                	lw	a5,0(a5)
20011606:	04052423          	sw	zero,72(a0)
2001160a:	04052623          	sw	zero,76(a0)
2001160e:	04052823          	sw	zero,80(a0)
20011612:	00f51463          	bne	a0,a5,2001161a <__sinit+0x2e>
20011616:	4785                	li	a5,1
20011618:	cd1c                	sw	a5,24(a0)
2001161a:	842a                	mv	s0,a0
2001161c:	281d                	jal	20011652 <__sfp>
2001161e:	c048                	sw	a0,4(s0)
20011620:	8522                	mv	a0,s0
20011622:	2805                	jal	20011652 <__sfp>
20011624:	c408                	sw	a0,8(s0)
20011626:	8522                	mv	a0,s0
20011628:	202d                	jal	20011652 <__sfp>
2001162a:	c448                	sw	a0,12(s0)
2001162c:	4048                	lw	a0,4(s0)
2001162e:	4601                	li	a2,0
20011630:	4591                	li	a1,4
20011632:	3701                	jal	20011532 <std>
20011634:	4408                	lw	a0,8(s0)
20011636:	4605                	li	a2,1
20011638:	45a5                	li	a1,9
2001163a:	3de5                	jal	20011532 <std>
2001163c:	4448                	lw	a0,12(s0)
2001163e:	4609                	li	a2,2
20011640:	45c9                	li	a1,18
20011642:	3dc5                	jal	20011532 <std>
20011644:	4785                	li	a5,1
20011646:	cc1c                	sw	a5,24(s0)
20011648:	40b2                	lw	ra,12(sp)
2001164a:	4422                	lw	s0,8(sp)
2001164c:	0141                	addi	sp,sp,16
2001164e:	8082                	ret
20011650:	8082                	ret

20011652 <__sfp>:
__sfp():
20011652:	1141                	addi	sp,sp,-16
20011654:	82018793          	addi	a5,gp,-2016 # 800007b8 <_global_impure_ptr>
20011658:	c226                	sw	s1,4(sp)
2001165a:	4384                	lw	s1,0(a5)
2001165c:	c04a                	sw	s2,0(sp)
2001165e:	c606                	sw	ra,12(sp)
20011660:	4c9c                	lw	a5,24(s1)
20011662:	c422                	sw	s0,8(sp)
20011664:	892a                	mv	s2,a0
20011666:	e399                	bnez	a5,2001166c <__sfp+0x1a>
20011668:	8526                	mv	a0,s1
2001166a:	3749                	jal	200115ec <__sinit>
2001166c:	04848493          	addi	s1,s1,72
20011670:	4480                	lw	s0,8(s1)
20011672:	40dc                	lw	a5,4(s1)
20011674:	17fd                	addi	a5,a5,-1
20011676:	0007d663          	bgez	a5,20011682 <__sfp+0x30>
2001167a:	409c                	lw	a5,0(s1)
2001167c:	cfb9                	beqz	a5,200116da <__sfp+0x88>
2001167e:	4084                	lw	s1,0(s1)
20011680:	bfc5                	j	20011670 <__sfp+0x1e>
20011682:	00c41703          	lh	a4,12(s0)
20011686:	e739                	bnez	a4,200116d4 <__sfp+0x82>
20011688:	77c1                	lui	a5,0xffff0
2001168a:	0785                	addi	a5,a5,1
2001168c:	06042223          	sw	zero,100(s0)
20011690:	00042023          	sw	zero,0(s0)
20011694:	00042223          	sw	zero,4(s0)
20011698:	00042423          	sw	zero,8(s0)
2001169c:	c45c                	sw	a5,12(s0)
2001169e:	00042823          	sw	zero,16(s0)
200116a2:	00042a23          	sw	zero,20(s0)
200116a6:	00042c23          	sw	zero,24(s0)
200116aa:	4621                	li	a2,8
200116ac:	4581                	li	a1,0
200116ae:	05c40513          	addi	a0,s0,92
200116b2:	931ff0ef          	jal	ra,20010fe2 <memset>
200116b6:	02042a23          	sw	zero,52(s0)
200116ba:	02042c23          	sw	zero,56(s0)
200116be:	04042423          	sw	zero,72(s0)
200116c2:	04042623          	sw	zero,76(s0)
200116c6:	8522                	mv	a0,s0
200116c8:	40b2                	lw	ra,12(sp)
200116ca:	4422                	lw	s0,8(sp)
200116cc:	4492                	lw	s1,4(sp)
200116ce:	4902                	lw	s2,0(sp)
200116d0:	0141                	addi	sp,sp,16
200116d2:	8082                	ret
200116d4:	06840413          	addi	s0,s0,104
200116d8:	bf71                	j	20011674 <__sfp+0x22>
200116da:	4591                	li	a1,4
200116dc:	854a                	mv	a0,s2
200116de:	35e1                	jal	200115a6 <__sfmoreglue>
200116e0:	c088                	sw	a0,0(s1)
200116e2:	fd51                	bnez	a0,2001167e <__sfp+0x2c>
200116e4:	47b1                	li	a5,12
200116e6:	00f92023          	sw	a5,0(s2)
200116ea:	4401                	li	s0,0
200116ec:	bfe9                	j	200116c6 <__sfp+0x74>

200116ee <_fwalk_reent>:
_fwalk_reent():
200116ee:	7179                	addi	sp,sp,-48
200116f0:	d422                	sw	s0,40(sp)
200116f2:	d04a                	sw	s2,32(sp)
200116f4:	cc52                	sw	s4,24(sp)
200116f6:	ca56                	sw	s5,20(sp)
200116f8:	c85a                	sw	s6,16(sp)
200116fa:	c65e                	sw	s7,12(sp)
200116fc:	d606                	sw	ra,44(sp)
200116fe:	d226                	sw	s1,36(sp)
20011700:	ce4e                	sw	s3,28(sp)
20011702:	8a2a                	mv	s4,a0
20011704:	8aae                	mv	s5,a1
20011706:	04850413          	addi	s0,a0,72
2001170a:	4901                	li	s2,0
2001170c:	4b05                	li	s6,1
2001170e:	5bfd                	li	s7,-1
20011710:	ec09                	bnez	s0,2001172a <_fwalk_reent+0x3c>
20011712:	50b2                	lw	ra,44(sp)
20011714:	5422                	lw	s0,40(sp)
20011716:	854a                	mv	a0,s2
20011718:	5492                	lw	s1,36(sp)
2001171a:	5902                	lw	s2,32(sp)
2001171c:	49f2                	lw	s3,28(sp)
2001171e:	4a62                	lw	s4,24(sp)
20011720:	4ad2                	lw	s5,20(sp)
20011722:	4b42                	lw	s6,16(sp)
20011724:	4bb2                	lw	s7,12(sp)
20011726:	6145                	addi	sp,sp,48
20011728:	8082                	ret
2001172a:	4404                	lw	s1,8(s0)
2001172c:	00442983          	lw	s3,4(s0)
20011730:	19fd                	addi	s3,s3,-1
20011732:	0009d463          	bgez	s3,2001173a <_fwalk_reent+0x4c>
20011736:	4000                	lw	s0,0(s0)
20011738:	bfe1                	j	20011710 <_fwalk_reent+0x22>
2001173a:	00c4d783          	lhu	a5,12(s1)
2001173e:	00fb7b63          	bgeu	s6,a5,20011754 <_fwalk_reent+0x66>
20011742:	00e49783          	lh	a5,14(s1)
20011746:	01778763          	beq	a5,s7,20011754 <_fwalk_reent+0x66>
2001174a:	85a6                	mv	a1,s1
2001174c:	8552                	mv	a0,s4
2001174e:	9a82                	jalr	s5
20011750:	00a96933          	or	s2,s2,a0
20011754:	06848493          	addi	s1,s1,104
20011758:	bfe1                	j	20011730 <_fwalk_reent+0x42>

2001175a <__swhatbuf_r>:
__swhatbuf_r():
2001175a:	7119                	addi	sp,sp,-128
2001175c:	daa6                	sw	s1,116(sp)
2001175e:	84ae                	mv	s1,a1
20011760:	00e59583          	lh	a1,14(a1)
20011764:	dca2                	sw	s0,120(sp)
20011766:	de86                	sw	ra,124(sp)
20011768:	8432                	mv	s0,a2
2001176a:	0005dc63          	bgez	a1,20011782 <__swhatbuf_r+0x28>
2001176e:	00c4d783          	lhu	a5,12(s1)
20011772:	0006a023          	sw	zero,0(a3)
20011776:	0807f793          	andi	a5,a5,128
2001177a:	e39d                	bnez	a5,200117a0 <__swhatbuf_r+0x46>
2001177c:	40000793          	li	a5,1024
20011780:	a015                	j	200117a4 <__swhatbuf_r+0x4a>
20011782:	0830                	addi	a2,sp,24
20011784:	c636                	sw	a3,12(sp)
20011786:	2d51                	jal	20011e1a <_fstat_r>
20011788:	46b2                	lw	a3,12(sp)
2001178a:	fe0542e3          	bltz	a0,2001176e <__swhatbuf_r+0x14>
2001178e:	4772                	lw	a4,28(sp)
20011790:	67bd                	lui	a5,0xf
20011792:	8ff9                	and	a5,a5,a4
20011794:	7779                	lui	a4,0xffffe
20011796:	97ba                	add	a5,a5,a4
20011798:	0017b793          	seqz	a5,a5
2001179c:	c29c                	sw	a5,0(a3)
2001179e:	bff9                	j	2001177c <__swhatbuf_r+0x22>
200117a0:	04000793          	li	a5,64
200117a4:	c01c                	sw	a5,0(s0)
200117a6:	50f6                	lw	ra,124(sp)
200117a8:	5466                	lw	s0,120(sp)
200117aa:	54d6                	lw	s1,116(sp)
200117ac:	4501                	li	a0,0
200117ae:	6109                	addi	sp,sp,128
200117b0:	8082                	ret

200117b2 <__smakebuf_r>:
__smakebuf_r():
200117b2:	00c5d783          	lhu	a5,12(a1)
200117b6:	1101                	addi	sp,sp,-32
200117b8:	cc22                	sw	s0,24(sp)
200117ba:	ce06                	sw	ra,28(sp)
200117bc:	ca26                	sw	s1,20(sp)
200117be:	c84a                	sw	s2,16(sp)
200117c0:	8b89                	andi	a5,a5,2
200117c2:	842e                	mv	s0,a1
200117c4:	cf89                	beqz	a5,200117de <__smakebuf_r+0x2c>
200117c6:	04740793          	addi	a5,s0,71
200117ca:	c01c                	sw	a5,0(s0)
200117cc:	c81c                	sw	a5,16(s0)
200117ce:	4785                	li	a5,1
200117d0:	c85c                	sw	a5,20(s0)
200117d2:	40f2                	lw	ra,28(sp)
200117d4:	4462                	lw	s0,24(sp)
200117d6:	44d2                	lw	s1,20(sp)
200117d8:	4942                	lw	s2,16(sp)
200117da:	6105                	addi	sp,sp,32
200117dc:	8082                	ret
200117de:	0074                	addi	a3,sp,12
200117e0:	0030                	addi	a2,sp,8
200117e2:	84aa                	mv	s1,a0
200117e4:	3f9d                	jal	2001175a <__swhatbuf_r>
200117e6:	45a2                	lw	a1,8(sp)
200117e8:	892a                	mv	s2,a0
200117ea:	8526                	mv	a0,s1
200117ec:	2239                	jal	200118fa <_malloc_r>
200117ee:	ed01                	bnez	a0,20011806 <__smakebuf_r+0x54>
200117f0:	00c41783          	lh	a5,12(s0)
200117f4:	2007f713          	andi	a4,a5,512
200117f8:	ff69                	bnez	a4,200117d2 <__smakebuf_r+0x20>
200117fa:	9bf1                	andi	a5,a5,-4
200117fc:	0027e793          	ori	a5,a5,2
20011800:	00f41623          	sh	a5,12(s0)
20011804:	b7c9                	j	200117c6 <__smakebuf_r+0x14>
20011806:	00000797          	auipc	a5,0x0
2001180a:	d9678793          	addi	a5,a5,-618 # 2001159c <_cleanup_r>
2001180e:	d49c                	sw	a5,40(s1)
20011810:	00c45783          	lhu	a5,12(s0)
20011814:	c008                	sw	a0,0(s0)
20011816:	c808                	sw	a0,16(s0)
20011818:	0807e793          	ori	a5,a5,128
2001181c:	00f41623          	sh	a5,12(s0)
20011820:	47a2                	lw	a5,8(sp)
20011822:	c85c                	sw	a5,20(s0)
20011824:	47b2                	lw	a5,12(sp)
20011826:	cf89                	beqz	a5,20011840 <__smakebuf_r+0x8e>
20011828:	00e41583          	lh	a1,14(s0)
2001182c:	8526                	mv	a0,s1
2001182e:	2d21                	jal	20011e46 <_isatty_r>
20011830:	c901                	beqz	a0,20011840 <__smakebuf_r+0x8e>
20011832:	00c45783          	lhu	a5,12(s0)
20011836:	9bf1                	andi	a5,a5,-4
20011838:	0017e793          	ori	a5,a5,1
2001183c:	00f41623          	sh	a5,12(s0)
20011840:	00c45783          	lhu	a5,12(s0)
20011844:	00f96933          	or	s2,s2,a5
20011848:	01241623          	sh	s2,12(s0)
2001184c:	b759                	j	200117d2 <__smakebuf_r+0x20>

2001184e <_free_r>:
_free_r():
2001184e:	c5cd                	beqz	a1,200118f8 <_free_r+0xaa>
20011850:	ffc5a783          	lw	a5,-4(a1)
20011854:	1141                	addi	sp,sp,-16
20011856:	c422                	sw	s0,8(sp)
20011858:	c606                	sw	ra,12(sp)
2001185a:	c226                	sw	s1,4(sp)
2001185c:	ffc58413          	addi	s0,a1,-4
20011860:	0007d363          	bgez	a5,20011866 <_free_r+0x18>
20011864:	943e                	add	s0,s0,a5
20011866:	84aa                	mv	s1,a0
20011868:	2d81                	jal	20011eb8 <__malloc_lock>
2001186a:	5ffef797          	auipc	a5,0x5ffef
2001186e:	fa678793          	addi	a5,a5,-90 # 80000810 <__malloc_free_list>
20011872:	439c                	lw	a5,0(a5)
20011874:	ef89                	bnez	a5,2001188e <_free_r+0x40>
20011876:	00042223          	sw	zero,4(s0)
2001187a:	5ffef797          	auipc	a5,0x5ffef
2001187e:	f887ab23          	sw	s0,-106(a5) # 80000810 <__malloc_free_list>
20011882:	4422                	lw	s0,8(sp)
20011884:	40b2                	lw	ra,12(sp)
20011886:	8526                	mv	a0,s1
20011888:	4492                	lw	s1,4(sp)
2001188a:	0141                	addi	sp,sp,16
2001188c:	a53d                	j	20011eba <__malloc_unlock>
2001188e:	00f47e63          	bgeu	s0,a5,200118aa <_free_r+0x5c>
20011892:	4014                	lw	a3,0(s0)
20011894:	00d40733          	add	a4,s0,a3
20011898:	00e79663          	bne	a5,a4,200118a4 <_free_r+0x56>
2001189c:	4398                	lw	a4,0(a5)
2001189e:	43dc                	lw	a5,4(a5)
200118a0:	9736                	add	a4,a4,a3
200118a2:	c018                	sw	a4,0(s0)
200118a4:	c05c                	sw	a5,4(s0)
200118a6:	bfd1                	j	2001187a <_free_r+0x2c>
200118a8:	87ba                	mv	a5,a4
200118aa:	43d8                	lw	a4,4(a5)
200118ac:	c319                	beqz	a4,200118b2 <_free_r+0x64>
200118ae:	fee47de3          	bgeu	s0,a4,200118a8 <_free_r+0x5a>
200118b2:	4394                	lw	a3,0(a5)
200118b4:	00d78633          	add	a2,a5,a3
200118b8:	00861f63          	bne	a2,s0,200118d6 <_free_r+0x88>
200118bc:	4010                	lw	a2,0(s0)
200118be:	96b2                	add	a3,a3,a2
200118c0:	c394                	sw	a3,0(a5)
200118c2:	00d78633          	add	a2,a5,a3
200118c6:	fac71ee3          	bne	a4,a2,20011882 <_free_r+0x34>
200118ca:	4310                	lw	a2,0(a4)
200118cc:	4358                	lw	a4,4(a4)
200118ce:	96b2                	add	a3,a3,a2
200118d0:	c394                	sw	a3,0(a5)
200118d2:	c3d8                	sw	a4,4(a5)
200118d4:	b77d                	j	20011882 <_free_r+0x34>
200118d6:	00c47563          	bgeu	s0,a2,200118e0 <_free_r+0x92>
200118da:	47b1                	li	a5,12
200118dc:	c09c                	sw	a5,0(s1)
200118de:	b755                	j	20011882 <_free_r+0x34>
200118e0:	4010                	lw	a2,0(s0)
200118e2:	00c406b3          	add	a3,s0,a2
200118e6:	00d71663          	bne	a4,a3,200118f2 <_free_r+0xa4>
200118ea:	4314                	lw	a3,0(a4)
200118ec:	4358                	lw	a4,4(a4)
200118ee:	96b2                	add	a3,a3,a2
200118f0:	c014                	sw	a3,0(s0)
200118f2:	c058                	sw	a4,4(s0)
200118f4:	c3c0                	sw	s0,4(a5)
200118f6:	b771                	j	20011882 <_free_r+0x34>
200118f8:	8082                	ret

200118fa <_malloc_r>:
_malloc_r():
200118fa:	1101                	addi	sp,sp,-32
200118fc:	ca26                	sw	s1,20(sp)
200118fe:	00358493          	addi	s1,a1,3
20011902:	98f1                	andi	s1,s1,-4
20011904:	ce06                	sw	ra,28(sp)
20011906:	cc22                	sw	s0,24(sp)
20011908:	c84a                	sw	s2,16(sp)
2001190a:	c64e                	sw	s3,12(sp)
2001190c:	04a1                	addi	s1,s1,8
2001190e:	47b1                	li	a5,12
20011910:	04f4f763          	bgeu	s1,a5,2001195e <_malloc_r+0x64>
20011914:	44b1                	li	s1,12
20011916:	04b4e663          	bltu	s1,a1,20011962 <_malloc_r+0x68>
2001191a:	892a                	mv	s2,a0
2001191c:	2b71                	jal	20011eb8 <__malloc_lock>
2001191e:	5ffef797          	auipc	a5,0x5ffef
20011922:	ef278793          	addi	a5,a5,-270 # 80000810 <__malloc_free_list>
20011926:	4398                	lw	a4,0(a5)
20011928:	843a                	mv	s0,a4
2001192a:	e431                	bnez	s0,20011976 <_malloc_r+0x7c>
2001192c:	5ffef797          	auipc	a5,0x5ffef
20011930:	ee878793          	addi	a5,a5,-280 # 80000814 <__malloc_sbrk_start>
20011934:	439c                	lw	a5,0(a5)
20011936:	eb81                	bnez	a5,20011946 <_malloc_r+0x4c>
20011938:	4581                	li	a1,0
2001193a:	854a                	mv	a0,s2
2001193c:	264d                	jal	20011cde <_sbrk_r>
2001193e:	5ffef797          	auipc	a5,0x5ffef
20011942:	eca7ab23          	sw	a0,-298(a5) # 80000814 <__malloc_sbrk_start>
20011946:	85a6                	mv	a1,s1
20011948:	854a                	mv	a0,s2
2001194a:	2e51                	jal	20011cde <_sbrk_r>
2001194c:	59fd                	li	s3,-1
2001194e:	07351963          	bne	a0,s3,200119c0 <_malloc_r+0xc6>
20011952:	47b1                	li	a5,12
20011954:	00f92023          	sw	a5,0(s2)
20011958:	854a                	mv	a0,s2
2001195a:	2385                	jal	20011eba <__malloc_unlock>
2001195c:	a029                	j	20011966 <_malloc_r+0x6c>
2001195e:	fa04dce3          	bgez	s1,20011916 <_malloc_r+0x1c>
20011962:	47b1                	li	a5,12
20011964:	c11c                	sw	a5,0(a0)
20011966:	4501                	li	a0,0
20011968:	40f2                	lw	ra,28(sp)
2001196a:	4462                	lw	s0,24(sp)
2001196c:	44d2                	lw	s1,20(sp)
2001196e:	4942                	lw	s2,16(sp)
20011970:	49b2                	lw	s3,12(sp)
20011972:	6105                	addi	sp,sp,32
20011974:	8082                	ret
20011976:	401c                	lw	a5,0(s0)
20011978:	8f85                	sub	a5,a5,s1
2001197a:	0407c063          	bltz	a5,200119ba <_malloc_r+0xc0>
2001197e:	46ad                	li	a3,11
20011980:	00f6f663          	bgeu	a3,a5,2001198c <_malloc_r+0x92>
20011984:	c01c                	sw	a5,0(s0)
20011986:	943e                	add	s0,s0,a5
20011988:	c004                	sw	s1,0(s0)
2001198a:	a801                	j	2001199a <_malloc_r+0xa0>
2001198c:	405c                	lw	a5,4(s0)
2001198e:	02871463          	bne	a4,s0,200119b6 <_malloc_r+0xbc>
20011992:	5ffef717          	auipc	a4,0x5ffef
20011996:	e6f72f23          	sw	a5,-386(a4) # 80000810 <__malloc_free_list>
2001199a:	854a                	mv	a0,s2
2001199c:	2b39                	jal	20011eba <__malloc_unlock>
2001199e:	00b40513          	addi	a0,s0,11
200119a2:	00440793          	addi	a5,s0,4
200119a6:	9961                	andi	a0,a0,-8
200119a8:	40f50733          	sub	a4,a0,a5
200119ac:	df55                	beqz	a4,20011968 <_malloc_r+0x6e>
200119ae:	943a                	add	s0,s0,a4
200119b0:	8f89                	sub	a5,a5,a0
200119b2:	c01c                	sw	a5,0(s0)
200119b4:	bf55                	j	20011968 <_malloc_r+0x6e>
200119b6:	c35c                	sw	a5,4(a4)
200119b8:	b7cd                	j	2001199a <_malloc_r+0xa0>
200119ba:	8722                	mv	a4,s0
200119bc:	4040                	lw	s0,4(s0)
200119be:	b7b5                	j	2001192a <_malloc_r+0x30>
200119c0:	00350413          	addi	s0,a0,3
200119c4:	9871                	andi	s0,s0,-4
200119c6:	fc8501e3          	beq	a0,s0,20011988 <_malloc_r+0x8e>
200119ca:	40a405b3          	sub	a1,s0,a0
200119ce:	854a                	mv	a0,s2
200119d0:	2639                	jal	20011cde <_sbrk_r>
200119d2:	fb351be3          	bne	a0,s3,20011988 <_malloc_r+0x8e>
200119d6:	bfb5                	j	20011952 <_malloc_r+0x58>

200119d8 <__sfputc_r>:
__sfputc_r():
200119d8:	461c                	lw	a5,8(a2)
200119da:	17fd                	addi	a5,a5,-1
200119dc:	c61c                	sw	a5,8(a2)
200119de:	0007da63          	bgez	a5,200119f2 <__sfputc_r+0x1a>
200119e2:	4e18                	lw	a4,24(a2)
200119e4:	00e7c563          	blt	a5,a4,200119ee <__sfputc_r+0x16>
200119e8:	47a9                	li	a5,10
200119ea:	00f59463          	bne	a1,a5,200119f2 <__sfputc_r+0x1a>
200119ee:	fd8ff06f          	j	200111c6 <__swbuf_r>
200119f2:	421c                	lw	a5,0(a2)
200119f4:	852e                	mv	a0,a1
200119f6:	00178713          	addi	a4,a5,1
200119fa:	c218                	sw	a4,0(a2)
200119fc:	00b78023          	sb	a1,0(a5)
20011a00:	8082                	ret

20011a02 <__sfputs_r>:
__sfputs_r():
20011a02:	1101                	addi	sp,sp,-32
20011a04:	cc22                	sw	s0,24(sp)
20011a06:	ca26                	sw	s1,20(sp)
20011a08:	c84a                	sw	s2,16(sp)
20011a0a:	c64e                	sw	s3,12(sp)
20011a0c:	c452                	sw	s4,8(sp)
20011a0e:	ce06                	sw	ra,28(sp)
20011a10:	892a                	mv	s2,a0
20011a12:	89ae                	mv	s3,a1
20011a14:	8432                	mv	s0,a2
20011a16:	00d604b3          	add	s1,a2,a3
20011a1a:	5a7d                	li	s4,-1
20011a1c:	00941463          	bne	s0,s1,20011a24 <__sfputs_r+0x22>
20011a20:	4501                	li	a0,0
20011a22:	a809                	j	20011a34 <__sfputs_r+0x32>
20011a24:	00044583          	lbu	a1,0(s0)
20011a28:	864e                	mv	a2,s3
20011a2a:	854a                	mv	a0,s2
20011a2c:	3775                	jal	200119d8 <__sfputc_r>
20011a2e:	0405                	addi	s0,s0,1
20011a30:	ff4516e3          	bne	a0,s4,20011a1c <__sfputs_r+0x1a>
20011a34:	40f2                	lw	ra,28(sp)
20011a36:	4462                	lw	s0,24(sp)
20011a38:	44d2                	lw	s1,20(sp)
20011a3a:	4942                	lw	s2,16(sp)
20011a3c:	49b2                	lw	s3,12(sp)
20011a3e:	4a22                	lw	s4,8(sp)
20011a40:	6105                	addi	sp,sp,32
20011a42:	8082                	ret

20011a44 <_vfiprintf_r>:
_vfiprintf_r():
20011a44:	7135                	addi	sp,sp,-160
20011a46:	cd22                	sw	s0,152(sp)
20011a48:	cb26                	sw	s1,148(sp)
20011a4a:	c94a                	sw	s2,144(sp)
20011a4c:	c74e                	sw	s3,140(sp)
20011a4e:	cf06                	sw	ra,156(sp)
20011a50:	c552                	sw	s4,136(sp)
20011a52:	c356                	sw	s5,132(sp)
20011a54:	c15a                	sw	s6,128(sp)
20011a56:	dede                	sw	s7,124(sp)
20011a58:	dce2                	sw	s8,120(sp)
20011a5a:	dae6                	sw	s9,116(sp)
20011a5c:	89aa                	mv	s3,a0
20011a5e:	84ae                	mv	s1,a1
20011a60:	8932                	mv	s2,a2
20011a62:	8436                	mv	s0,a3
20011a64:	c509                	beqz	a0,20011a6e <_vfiprintf_r+0x2a>
20011a66:	4d1c                	lw	a5,24(a0)
20011a68:	e399                	bnez	a5,20011a6e <_vfiprintf_r+0x2a>
20011a6a:	b83ff0ef          	jal	ra,200115ec <__sinit>
20011a6e:	00005797          	auipc	a5,0x5
20011a72:	afe78793          	addi	a5,a5,-1282 # 2001656c <__sf_fake_stdin>
20011a76:	0cf49b63          	bne	s1,a5,20011b4c <_vfiprintf_r+0x108>
20011a7a:	0049a483          	lw	s1,4(s3)
20011a7e:	00c4d783          	lhu	a5,12(s1)
20011a82:	8ba1                	andi	a5,a5,8
20011a84:	c7f5                	beqz	a5,20011b70 <_vfiprintf_r+0x12c>
20011a86:	489c                	lw	a5,16(s1)
20011a88:	c7e5                	beqz	a5,20011b70 <_vfiprintf_r+0x12c>
20011a8a:	02000793          	li	a5,32
20011a8e:	02f104a3          	sb	a5,41(sp)
20011a92:	03000793          	li	a5,48
20011a96:	d202                	sw	zero,36(sp)
20011a98:	02f10523          	sb	a5,42(sp)
20011a9c:	c622                	sw	s0,12(sp)
20011a9e:	02500b93          	li	s7,37
20011aa2:	00005a97          	auipc	s5,0x5
20011aa6:	b0aa8a93          	addi	s5,s5,-1270 # 200165ac <__sf_fake_stdout+0x20>
20011aaa:	4c05                	li	s8,1
20011aac:	4b29                	li	s6,10
20011aae:	844a                	mv	s0,s2
20011ab0:	00044783          	lbu	a5,0(s0)
20011ab4:	c399                	beqz	a5,20011aba <_vfiprintf_r+0x76>
20011ab6:	0f779063          	bne	a5,s7,20011b96 <_vfiprintf_r+0x152>
20011aba:	41240cb3          	sub	s9,s0,s2
20011abe:	000c8d63          	beqz	s9,20011ad8 <_vfiprintf_r+0x94>
20011ac2:	86e6                	mv	a3,s9
20011ac4:	864a                	mv	a2,s2
20011ac6:	85a6                	mv	a1,s1
20011ac8:	854e                	mv	a0,s3
20011aca:	3f25                	jal	20011a02 <__sfputs_r>
20011acc:	57fd                	li	a5,-1
20011ace:	1ef50663          	beq	a0,a5,20011cba <_vfiprintf_r+0x276>
20011ad2:	5692                	lw	a3,36(sp)
20011ad4:	96e6                	add	a3,a3,s9
20011ad6:	d236                	sw	a3,36(sp)
20011ad8:	00044783          	lbu	a5,0(s0)
20011adc:	1c078f63          	beqz	a5,20011cba <_vfiprintf_r+0x276>
20011ae0:	57fd                	li	a5,-1
20011ae2:	00140913          	addi	s2,s0,1
20011ae6:	c802                	sw	zero,16(sp)
20011ae8:	ce02                	sw	zero,28(sp)
20011aea:	ca3e                	sw	a5,20(sp)
20011aec:	cc02                	sw	zero,24(sp)
20011aee:	040109a3          	sb	zero,83(sp)
20011af2:	d482                	sw	zero,104(sp)
20011af4:	00094583          	lbu	a1,0(s2)
20011af8:	4615                	li	a2,5
20011afa:	8556                	mv	a0,s5
20011afc:	264d                	jal	20011e9e <memchr>
20011afe:	00190413          	addi	s0,s2,1
20011b02:	47c2                	lw	a5,16(sp)
20011b04:	e959                	bnez	a0,20011b9a <_vfiprintf_r+0x156>
20011b06:	0107f713          	andi	a4,a5,16
20011b0a:	c709                	beqz	a4,20011b14 <_vfiprintf_r+0xd0>
20011b0c:	02000713          	li	a4,32
20011b10:	04e109a3          	sb	a4,83(sp)
20011b14:	0087f713          	andi	a4,a5,8
20011b18:	c709                	beqz	a4,20011b22 <_vfiprintf_r+0xde>
20011b1a:	02b00713          	li	a4,43
20011b1e:	04e109a3          	sb	a4,83(sp)
20011b22:	00094683          	lbu	a3,0(s2)
20011b26:	02a00713          	li	a4,42
20011b2a:	08e68063          	beq	a3,a4,20011baa <_vfiprintf_r+0x166>
20011b2e:	47f2                	lw	a5,28(sp)
20011b30:	844a                	mv	s0,s2
20011b32:	4681                	li	a3,0
20011b34:	4625                	li	a2,9
20011b36:	00044703          	lbu	a4,0(s0)
20011b3a:	00140593          	addi	a1,s0,1
20011b3e:	fd070713          	addi	a4,a4,-48
20011b42:	0ae67963          	bgeu	a2,a4,20011bf4 <_vfiprintf_r+0x1b0>
20011b46:	cab5                	beqz	a3,20011bba <_vfiprintf_r+0x176>
20011b48:	ce3e                	sw	a5,28(sp)
20011b4a:	a885                	j	20011bba <_vfiprintf_r+0x176>
20011b4c:	00005797          	auipc	a5,0x5
20011b50:	a4078793          	addi	a5,a5,-1472 # 2001658c <__sf_fake_stdout>
20011b54:	00f49563          	bne	s1,a5,20011b5e <_vfiprintf_r+0x11a>
20011b58:	0089a483          	lw	s1,8(s3)
20011b5c:	b70d                	j	20011a7e <_vfiprintf_r+0x3a>
20011b5e:	00005797          	auipc	a5,0x5
20011b62:	9ee78793          	addi	a5,a5,-1554 # 2001654c <__sf_fake_stderr>
20011b66:	f0f49ce3          	bne	s1,a5,20011a7e <_vfiprintf_r+0x3a>
20011b6a:	00c9a483          	lw	s1,12(s3)
20011b6e:	bf01                	j	20011a7e <_vfiprintf_r+0x3a>
20011b70:	85a6                	mv	a1,s1
20011b72:	854e                	mv	a0,s3
20011b74:	f12ff0ef          	jal	ra,20011286 <__swsetup_r>
20011b78:	d909                	beqz	a0,20011a8a <_vfiprintf_r+0x46>
20011b7a:	557d                	li	a0,-1
20011b7c:	40fa                	lw	ra,156(sp)
20011b7e:	446a                	lw	s0,152(sp)
20011b80:	44da                	lw	s1,148(sp)
20011b82:	494a                	lw	s2,144(sp)
20011b84:	49ba                	lw	s3,140(sp)
20011b86:	4a2a                	lw	s4,136(sp)
20011b88:	4a9a                	lw	s5,132(sp)
20011b8a:	4b0a                	lw	s6,128(sp)
20011b8c:	5bf6                	lw	s7,124(sp)
20011b8e:	5c66                	lw	s8,120(sp)
20011b90:	5cd6                	lw	s9,116(sp)
20011b92:	610d                	addi	sp,sp,160
20011b94:	8082                	ret
20011b96:	0405                	addi	s0,s0,1
20011b98:	bf21                	j	20011ab0 <_vfiprintf_r+0x6c>
20011b9a:	41550533          	sub	a0,a0,s5
20011b9e:	00ac1533          	sll	a0,s8,a0
20011ba2:	8fc9                	or	a5,a5,a0
20011ba4:	c83e                	sw	a5,16(sp)
20011ba6:	8922                	mv	s2,s0
20011ba8:	b7b1                	j	20011af4 <_vfiprintf_r+0xb0>
20011baa:	4732                	lw	a4,12(sp)
20011bac:	00470693          	addi	a3,a4,4
20011bb0:	4318                	lw	a4,0(a4)
20011bb2:	c636                	sw	a3,12(sp)
20011bb4:	02074963          	bltz	a4,20011be6 <_vfiprintf_r+0x1a2>
20011bb8:	ce3a                	sw	a4,28(sp)
20011bba:	00044703          	lbu	a4,0(s0)
20011bbe:	02e00793          	li	a5,46
20011bc2:	04f71f63          	bne	a4,a5,20011c20 <_vfiprintf_r+0x1dc>
20011bc6:	00144703          	lbu	a4,1(s0)
20011bca:	02a00793          	li	a5,42
20011bce:	02f71b63          	bne	a4,a5,20011c04 <_vfiprintf_r+0x1c0>
20011bd2:	47b2                	lw	a5,12(sp)
20011bd4:	0409                	addi	s0,s0,2
20011bd6:	00478713          	addi	a4,a5,4
20011bda:	439c                	lw	a5,0(a5)
20011bdc:	c63a                	sw	a4,12(sp)
20011bde:	0207c163          	bltz	a5,20011c00 <_vfiprintf_r+0x1bc>
20011be2:	ca3e                	sw	a5,20(sp)
20011be4:	a835                	j	20011c20 <_vfiprintf_r+0x1dc>
20011be6:	40e00733          	neg	a4,a4
20011bea:	0027e793          	ori	a5,a5,2
20011bee:	ce3a                	sw	a4,28(sp)
20011bf0:	c83e                	sw	a5,16(sp)
20011bf2:	b7e1                	j	20011bba <_vfiprintf_r+0x176>
20011bf4:	036787b3          	mul	a5,a5,s6
20011bf8:	4685                	li	a3,1
20011bfa:	842e                	mv	s0,a1
20011bfc:	97ba                	add	a5,a5,a4
20011bfe:	bf25                	j	20011b36 <_vfiprintf_r+0xf2>
20011c00:	57fd                	li	a5,-1
20011c02:	b7c5                	j	20011be2 <_vfiprintf_r+0x19e>
20011c04:	0405                	addi	s0,s0,1
20011c06:	ca02                	sw	zero,20(sp)
20011c08:	4681                	li	a3,0
20011c0a:	4781                	li	a5,0
20011c0c:	4625                	li	a2,9
20011c0e:	00044703          	lbu	a4,0(s0)
20011c12:	00140593          	addi	a1,s0,1
20011c16:	fd070713          	addi	a4,a4,-48
20011c1a:	06e67663          	bgeu	a2,a4,20011c86 <_vfiprintf_r+0x242>
20011c1e:	f2f1                	bnez	a3,20011be2 <_vfiprintf_r+0x19e>
20011c20:	00044583          	lbu	a1,0(s0)
20011c24:	460d                	li	a2,3
20011c26:	00005517          	auipc	a0,0x5
20011c2a:	98e50513          	addi	a0,a0,-1650 # 200165b4 <__sf_fake_stdout+0x28>
20011c2e:	2c85                	jal	20011e9e <memchr>
20011c30:	cd11                	beqz	a0,20011c4c <_vfiprintf_r+0x208>
20011c32:	00005797          	auipc	a5,0x5
20011c36:	98278793          	addi	a5,a5,-1662 # 200165b4 <__sf_fake_stdout+0x28>
20011c3a:	8d1d                	sub	a0,a0,a5
20011c3c:	04000793          	li	a5,64
20011c40:	00a797b3          	sll	a5,a5,a0
20011c44:	4542                	lw	a0,16(sp)
20011c46:	0405                	addi	s0,s0,1
20011c48:	8d5d                	or	a0,a0,a5
20011c4a:	c82a                	sw	a0,16(sp)
20011c4c:	00044583          	lbu	a1,0(s0)
20011c50:	4619                	li	a2,6
20011c52:	00005517          	auipc	a0,0x5
20011c56:	96650513          	addi	a0,a0,-1690 # 200165b8 <__sf_fake_stdout+0x2c>
20011c5a:	00140913          	addi	s2,s0,1
20011c5e:	02b10423          	sb	a1,40(sp)
20011c62:	2c35                	jal	20011e9e <memchr>
20011c64:	c13d                	beqz	a0,20011cca <_vfiprintf_r+0x286>
20011c66:	dffee797          	auipc	a5,0xdffee
20011c6a:	39a78793          	addi	a5,a5,922 # 0 <__metal_boot_hart>
20011c6e:	e795                	bnez	a5,20011c9a <_vfiprintf_r+0x256>
20011c70:	4742                	lw	a4,16(sp)
20011c72:	47b2                	lw	a5,12(sp)
20011c74:	10077713          	andi	a4,a4,256
20011c78:	cf09                	beqz	a4,20011c92 <_vfiprintf_r+0x24e>
20011c7a:	0791                	addi	a5,a5,4
20011c7c:	c63e                	sw	a5,12(sp)
20011c7e:	5792                	lw	a5,36(sp)
20011c80:	97d2                	add	a5,a5,s4
20011c82:	d23e                	sw	a5,36(sp)
20011c84:	b52d                	j	20011aae <_vfiprintf_r+0x6a>
20011c86:	036787b3          	mul	a5,a5,s6
20011c8a:	4685                	li	a3,1
20011c8c:	842e                	mv	s0,a1
20011c8e:	97ba                	add	a5,a5,a4
20011c90:	bfbd                	j	20011c0e <_vfiprintf_r+0x1ca>
20011c92:	079d                	addi	a5,a5,7
20011c94:	9be1                	andi	a5,a5,-8
20011c96:	07a1                	addi	a5,a5,8
20011c98:	b7d5                	j	20011c7c <_vfiprintf_r+0x238>
20011c9a:	0078                	addi	a4,sp,12
20011c9c:	00000697          	auipc	a3,0x0
20011ca0:	d6668693          	addi	a3,a3,-666 # 20011a02 <__sfputs_r>
20011ca4:	8626                	mv	a2,s1
20011ca6:	080c                	addi	a1,sp,16
20011ca8:	854e                	mv	a0,s3
20011caa:	00000097          	auipc	ra,0x0
20011cae:	000000e7          	jalr	zero # 0 <__metal_boot_hart>
20011cb2:	57fd                	li	a5,-1
20011cb4:	8a2a                	mv	s4,a0
20011cb6:	fcf514e3          	bne	a0,a5,20011c7e <_vfiprintf_r+0x23a>
20011cba:	00c4d783          	lhu	a5,12(s1)
20011cbe:	0407f793          	andi	a5,a5,64
20011cc2:	ea079ce3          	bnez	a5,20011b7a <_vfiprintf_r+0x136>
20011cc6:	5512                	lw	a0,36(sp)
20011cc8:	bd55                	j	20011b7c <_vfiprintf_r+0x138>
20011cca:	0078                	addi	a4,sp,12
20011ccc:	00000697          	auipc	a3,0x0
20011cd0:	d3668693          	addi	a3,a3,-714 # 20011a02 <__sfputs_r>
20011cd4:	8626                	mv	a2,s1
20011cd6:	080c                	addi	a1,sp,16
20011cd8:	854e                	mv	a0,s3
20011cda:	24fd                	jal	20011fc8 <_printf_i>
20011cdc:	bfd9                	j	20011cb2 <_vfiprintf_r+0x26e>

20011cde <_sbrk_r>:
_sbrk_r():
20011cde:	1141                	addi	sp,sp,-16
20011ce0:	c422                	sw	s0,8(sp)
20011ce2:	842a                	mv	s0,a0
20011ce4:	852e                	mv	a0,a1
20011ce6:	9201a823          	sw	zero,-1744(gp) # 800008c8 <errno>
20011cea:	c606                	sw	ra,12(sp)
20011cec:	145030ef          	jal	ra,20015630 <_sbrk>
20011cf0:	57fd                	li	a5,-1
20011cf2:	00f51763          	bne	a0,a5,20011d00 <_sbrk_r+0x22>
20011cf6:	93018793          	addi	a5,gp,-1744 # 800008c8 <errno>
20011cfa:	439c                	lw	a5,0(a5)
20011cfc:	c391                	beqz	a5,20011d00 <_sbrk_r+0x22>
20011cfe:	c01c                	sw	a5,0(s0)
20011d00:	40b2                	lw	ra,12(sp)
20011d02:	4422                	lw	s0,8(sp)
20011d04:	0141                	addi	sp,sp,16
20011d06:	8082                	ret

20011d08 <__sread>:
__sread():
20011d08:	1141                	addi	sp,sp,-16
20011d0a:	c422                	sw	s0,8(sp)
20011d0c:	842e                	mv	s0,a1
20011d0e:	00e59583          	lh	a1,14(a1)
20011d12:	c606                	sw	ra,12(sp)
20011d14:	2b99                	jal	2001226a <_read_r>
20011d16:	00054963          	bltz	a0,20011d28 <__sread+0x20>
20011d1a:	487c                	lw	a5,84(s0)
20011d1c:	97aa                	add	a5,a5,a0
20011d1e:	c87c                	sw	a5,84(s0)
20011d20:	40b2                	lw	ra,12(sp)
20011d22:	4422                	lw	s0,8(sp)
20011d24:	0141                	addi	sp,sp,16
20011d26:	8082                	ret
20011d28:	00c45783          	lhu	a5,12(s0)
20011d2c:	777d                	lui	a4,0xfffff
20011d2e:	177d                	addi	a4,a4,-1
20011d30:	8ff9                	and	a5,a5,a4
20011d32:	00f41623          	sh	a5,12(s0)
20011d36:	b7ed                	j	20011d20 <__sread+0x18>

20011d38 <__swrite>:
__swrite():
20011d38:	00c5d783          	lhu	a5,12(a1)
20011d3c:	1101                	addi	sp,sp,-32
20011d3e:	cc22                	sw	s0,24(sp)
20011d40:	ca26                	sw	s1,20(sp)
20011d42:	c84a                	sw	s2,16(sp)
20011d44:	c64e                	sw	s3,12(sp)
20011d46:	ce06                	sw	ra,28(sp)
20011d48:	1007f793          	andi	a5,a5,256
20011d4c:	84aa                	mv	s1,a0
20011d4e:	842e                	mv	s0,a1
20011d50:	8932                	mv	s2,a2
20011d52:	89b6                	mv	s3,a3
20011d54:	c791                	beqz	a5,20011d60 <__swrite+0x28>
20011d56:	00e59583          	lh	a1,14(a1)
20011d5a:	4689                	li	a3,2
20011d5c:	4601                	li	a2,0
20011d5e:	2a09                	jal	20011e70 <_lseek_r>
20011d60:	00c45783          	lhu	a5,12(s0)
20011d64:	777d                	lui	a4,0xfffff
20011d66:	177d                	addi	a4,a4,-1
20011d68:	8ff9                	and	a5,a5,a4
20011d6a:	00f41623          	sh	a5,12(s0)
20011d6e:	00e41583          	lh	a1,14(s0)
20011d72:	4462                	lw	s0,24(sp)
20011d74:	40f2                	lw	ra,28(sp)
20011d76:	86ce                	mv	a3,s3
20011d78:	864a                	mv	a2,s2
20011d7a:	49b2                	lw	s3,12(sp)
20011d7c:	4942                	lw	s2,16(sp)
20011d7e:	8526                	mv	a0,s1
20011d80:	44d2                	lw	s1,20(sp)
20011d82:	6105                	addi	sp,sp,32
20011d84:	a83d                	j	20011dc2 <_write_r>

20011d86 <__sseek>:
__sseek():
20011d86:	1141                	addi	sp,sp,-16
20011d88:	c422                	sw	s0,8(sp)
20011d8a:	842e                	mv	s0,a1
20011d8c:	00e59583          	lh	a1,14(a1)
20011d90:	c606                	sw	ra,12(sp)
20011d92:	28f9                	jal	20011e70 <_lseek_r>
20011d94:	57fd                	li	a5,-1
20011d96:	00c45703          	lhu	a4,12(s0)
20011d9a:	00f51b63          	bne	a0,a5,20011db0 <__sseek+0x2a>
20011d9e:	77fd                	lui	a5,0xfffff
20011da0:	17fd                	addi	a5,a5,-1
20011da2:	8ff9                	and	a5,a5,a4
20011da4:	00f41623          	sh	a5,12(s0)
20011da8:	40b2                	lw	ra,12(sp)
20011daa:	4422                	lw	s0,8(sp)
20011dac:	0141                	addi	sp,sp,16
20011dae:	8082                	ret
20011db0:	6785                	lui	a5,0x1
20011db2:	8fd9                	or	a5,a5,a4
20011db4:	00f41623          	sh	a5,12(s0)
20011db8:	c868                	sw	a0,84(s0)
20011dba:	b7fd                	j	20011da8 <__sseek+0x22>

20011dbc <__sclose>:
__sclose():
20011dbc:	00e59583          	lh	a1,14(a1)
20011dc0:	a805                	j	20011df0 <_close_r>

20011dc2 <_write_r>:
_write_r():
20011dc2:	1141                	addi	sp,sp,-16
20011dc4:	c422                	sw	s0,8(sp)
20011dc6:	842a                	mv	s0,a0
20011dc8:	852e                	mv	a0,a1
20011dca:	85b2                	mv	a1,a2
20011dcc:	8636                	mv	a2,a3
20011dce:	9201a823          	sw	zero,-1744(gp) # 800008c8 <errno>
20011dd2:	c606                	sw	ra,12(sp)
20011dd4:	223030ef          	jal	ra,200157f6 <_write>
20011dd8:	57fd                	li	a5,-1
20011dda:	00f51763          	bne	a0,a5,20011de8 <_write_r+0x26>
20011dde:	93018793          	addi	a5,gp,-1744 # 800008c8 <errno>
20011de2:	439c                	lw	a5,0(a5)
20011de4:	c391                	beqz	a5,20011de8 <_write_r+0x26>
20011de6:	c01c                	sw	a5,0(s0)
20011de8:	40b2                	lw	ra,12(sp)
20011dea:	4422                	lw	s0,8(sp)
20011dec:	0141                	addi	sp,sp,16
20011dee:	8082                	ret

20011df0 <_close_r>:
_close_r():
20011df0:	1141                	addi	sp,sp,-16
20011df2:	c422                	sw	s0,8(sp)
20011df4:	842a                	mv	s0,a0
20011df6:	852e                	mv	a0,a1
20011df8:	9201a823          	sw	zero,-1744(gp) # 800008c8 <errno>
20011dfc:	c606                	sw	ra,12(sp)
20011dfe:	776030ef          	jal	ra,20015574 <_close>
20011e02:	57fd                	li	a5,-1
20011e04:	00f51763          	bne	a0,a5,20011e12 <_close_r+0x22>
20011e08:	93018793          	addi	a5,gp,-1744 # 800008c8 <errno>
20011e0c:	439c                	lw	a5,0(a5)
20011e0e:	c391                	beqz	a5,20011e12 <_close_r+0x22>
20011e10:	c01c                	sw	a5,0(s0)
20011e12:	40b2                	lw	ra,12(sp)
20011e14:	4422                	lw	s0,8(sp)
20011e16:	0141                	addi	sp,sp,16
20011e18:	8082                	ret

20011e1a <_fstat_r>:
_fstat_r():
20011e1a:	1141                	addi	sp,sp,-16
20011e1c:	c422                	sw	s0,8(sp)
20011e1e:	842a                	mv	s0,a0
20011e20:	852e                	mv	a0,a1
20011e22:	85b2                	mv	a1,a2
20011e24:	9201a823          	sw	zero,-1744(gp) # 800008c8 <errno>
20011e28:	c606                	sw	ra,12(sp)
20011e2a:	76c030ef          	jal	ra,20015596 <_fstat>
20011e2e:	57fd                	li	a5,-1
20011e30:	00f51763          	bne	a0,a5,20011e3e <_fstat_r+0x24>
20011e34:	93018793          	addi	a5,gp,-1744 # 800008c8 <errno>
20011e38:	439c                	lw	a5,0(a5)
20011e3a:	c391                	beqz	a5,20011e3e <_fstat_r+0x24>
20011e3c:	c01c                	sw	a5,0(s0)
20011e3e:	40b2                	lw	ra,12(sp)
20011e40:	4422                	lw	s0,8(sp)
20011e42:	0141                	addi	sp,sp,16
20011e44:	8082                	ret

20011e46 <_isatty_r>:
_isatty_r():
20011e46:	1141                	addi	sp,sp,-16
20011e48:	c422                	sw	s0,8(sp)
20011e4a:	842a                	mv	s0,a0
20011e4c:	852e                	mv	a0,a1
20011e4e:	9201a823          	sw	zero,-1744(gp) # 800008c8 <errno>
20011e52:	c606                	sw	ra,12(sp)
20011e54:	768030ef          	jal	ra,200155bc <_isatty>
20011e58:	57fd                	li	a5,-1
20011e5a:	00f51763          	bne	a0,a5,20011e68 <_isatty_r+0x22>
20011e5e:	93018793          	addi	a5,gp,-1744 # 800008c8 <errno>
20011e62:	439c                	lw	a5,0(a5)
20011e64:	c391                	beqz	a5,20011e68 <_isatty_r+0x22>
20011e66:	c01c                	sw	a5,0(s0)
20011e68:	40b2                	lw	ra,12(sp)
20011e6a:	4422                	lw	s0,8(sp)
20011e6c:	0141                	addi	sp,sp,16
20011e6e:	8082                	ret

20011e70 <_lseek_r>:
_lseek_r():
20011e70:	1141                	addi	sp,sp,-16
20011e72:	c422                	sw	s0,8(sp)
20011e74:	842a                	mv	s0,a0
20011e76:	852e                	mv	a0,a1
20011e78:	85b2                	mv	a1,a2
20011e7a:	8636                	mv	a2,a3
20011e7c:	9201a823          	sw	zero,-1744(gp) # 800008c8 <errno>
20011e80:	c606                	sw	ra,12(sp)
20011e82:	75a030ef          	jal	ra,200155dc <_lseek>
20011e86:	57fd                	li	a5,-1
20011e88:	00f51763          	bne	a0,a5,20011e96 <_lseek_r+0x26>
20011e8c:	93018793          	addi	a5,gp,-1744 # 800008c8 <errno>
20011e90:	439c                	lw	a5,0(a5)
20011e92:	c391                	beqz	a5,20011e96 <_lseek_r+0x26>
20011e94:	c01c                	sw	a5,0(s0)
20011e96:	40b2                	lw	ra,12(sp)
20011e98:	4422                	lw	s0,8(sp)
20011e9a:	0141                	addi	sp,sp,16
20011e9c:	8082                	ret

20011e9e <memchr>:
memchr():
20011e9e:	0ff5f593          	andi	a1,a1,255
20011ea2:	962a                	add	a2,a2,a0
20011ea4:	00c51463          	bne	a0,a2,20011eac <memchr+0xe>
20011ea8:	4501                	li	a0,0
20011eaa:	8082                	ret
20011eac:	00054783          	lbu	a5,0(a0)
20011eb0:	feb78de3          	beq	a5,a1,20011eaa <memchr+0xc>
20011eb4:	0505                	addi	a0,a0,1
20011eb6:	b7fd                	j	20011ea4 <memchr+0x6>

20011eb8 <__malloc_lock>:
__malloc_lock():
20011eb8:	8082                	ret

20011eba <__malloc_unlock>:
__malloc_unlock():
20011eba:	8082                	ret

20011ebc <_printf_common>:
_printf_common():
20011ebc:	7179                	addi	sp,sp,-48
20011ebe:	ca56                	sw	s5,20(sp)
20011ec0:	499c                	lw	a5,16(a1)
20011ec2:	8aba                	mv	s5,a4
20011ec4:	4598                	lw	a4,8(a1)
20011ec6:	d422                	sw	s0,40(sp)
20011ec8:	d226                	sw	s1,36(sp)
20011eca:	ce4e                	sw	s3,28(sp)
20011ecc:	cc52                	sw	s4,24(sp)
20011ece:	d606                	sw	ra,44(sp)
20011ed0:	d04a                	sw	s2,32(sp)
20011ed2:	c85a                	sw	s6,16(sp)
20011ed4:	c65e                	sw	s7,12(sp)
20011ed6:	89aa                	mv	s3,a0
20011ed8:	842e                	mv	s0,a1
20011eda:	84b2                	mv	s1,a2
20011edc:	8a36                	mv	s4,a3
20011ede:	00e7d363          	bge	a5,a4,20011ee4 <_printf_common+0x28>
20011ee2:	87ba                	mv	a5,a4
20011ee4:	c09c                	sw	a5,0(s1)
20011ee6:	04344703          	lbu	a4,67(s0)
20011eea:	c319                	beqz	a4,20011ef0 <_printf_common+0x34>
20011eec:	0785                	addi	a5,a5,1
20011eee:	c09c                	sw	a5,0(s1)
20011ef0:	401c                	lw	a5,0(s0)
20011ef2:	0207f793          	andi	a5,a5,32
20011ef6:	c781                	beqz	a5,20011efe <_printf_common+0x42>
20011ef8:	409c                	lw	a5,0(s1)
20011efa:	0789                	addi	a5,a5,2
20011efc:	c09c                	sw	a5,0(s1)
20011efe:	00042903          	lw	s2,0(s0)
20011f02:	00697913          	andi	s2,s2,6
20011f06:	00091a63          	bnez	s2,20011f1a <_printf_common+0x5e>
20011f0a:	01940b13          	addi	s6,s0,25
20011f0e:	5bfd                	li	s7,-1
20011f10:	445c                	lw	a5,12(s0)
20011f12:	4098                	lw	a4,0(s1)
20011f14:	8f99                	sub	a5,a5,a4
20011f16:	04f94c63          	blt	s2,a5,20011f6e <_printf_common+0xb2>
20011f1a:	401c                	lw	a5,0(s0)
20011f1c:	04344683          	lbu	a3,67(s0)
20011f20:	0207f793          	andi	a5,a5,32
20011f24:	00d036b3          	snez	a3,a3
20011f28:	eba5                	bnez	a5,20011f98 <_printf_common+0xdc>
20011f2a:	04340613          	addi	a2,s0,67
20011f2e:	85d2                	mv	a1,s4
20011f30:	854e                	mv	a0,s3
20011f32:	9a82                	jalr	s5
20011f34:	57fd                	li	a5,-1
20011f36:	04f50363          	beq	a0,a5,20011f7c <_printf_common+0xc0>
20011f3a:	401c                	lw	a5,0(s0)
20011f3c:	4611                	li	a2,4
20011f3e:	4098                	lw	a4,0(s1)
20011f40:	8b99                	andi	a5,a5,6
20011f42:	4454                	lw	a3,12(s0)
20011f44:	4481                	li	s1,0
20011f46:	00c79763          	bne	a5,a2,20011f54 <_printf_common+0x98>
20011f4a:	40e684b3          	sub	s1,a3,a4
20011f4e:	0004d363          	bgez	s1,20011f54 <_printf_common+0x98>
20011f52:	4481                	li	s1,0
20011f54:	441c                	lw	a5,8(s0)
20011f56:	4818                	lw	a4,16(s0)
20011f58:	00f75463          	bge	a4,a5,20011f60 <_printf_common+0xa4>
20011f5c:	8f99                	sub	a5,a5,a4
20011f5e:	94be                	add	s1,s1,a5
20011f60:	4901                	li	s2,0
20011f62:	0469                	addi	s0,s0,26
20011f64:	5b7d                	li	s6,-1
20011f66:	05249863          	bne	s1,s2,20011fb6 <_printf_common+0xfa>
20011f6a:	4501                	li	a0,0
20011f6c:	a809                	j	20011f7e <_printf_common+0xc2>
20011f6e:	4685                	li	a3,1
20011f70:	865a                	mv	a2,s6
20011f72:	85d2                	mv	a1,s4
20011f74:	854e                	mv	a0,s3
20011f76:	9a82                	jalr	s5
20011f78:	01751e63          	bne	a0,s7,20011f94 <_printf_common+0xd8>
20011f7c:	557d                	li	a0,-1
20011f7e:	50b2                	lw	ra,44(sp)
20011f80:	5422                	lw	s0,40(sp)
20011f82:	5492                	lw	s1,36(sp)
20011f84:	5902                	lw	s2,32(sp)
20011f86:	49f2                	lw	s3,28(sp)
20011f88:	4a62                	lw	s4,24(sp)
20011f8a:	4ad2                	lw	s5,20(sp)
20011f8c:	4b42                	lw	s6,16(sp)
20011f8e:	4bb2                	lw	s7,12(sp)
20011f90:	6145                	addi	sp,sp,48
20011f92:	8082                	ret
20011f94:	0905                	addi	s2,s2,1
20011f96:	bfad                	j	20011f10 <_printf_common+0x54>
20011f98:	00d40733          	add	a4,s0,a3
20011f9c:	03000613          	li	a2,48
20011fa0:	04c701a3          	sb	a2,67(a4) # fffff043 <metal_segment_heap_target_end+0x7fffdf77>
20011fa4:	04544703          	lbu	a4,69(s0)
20011fa8:	00168793          	addi	a5,a3,1
20011fac:	97a2                	add	a5,a5,s0
20011fae:	0689                	addi	a3,a3,2
20011fb0:	04e781a3          	sb	a4,67(a5) # 1043 <__heap_size+0xc43>
20011fb4:	bf9d                	j	20011f2a <_printf_common+0x6e>
20011fb6:	4685                	li	a3,1
20011fb8:	8622                	mv	a2,s0
20011fba:	85d2                	mv	a1,s4
20011fbc:	854e                	mv	a0,s3
20011fbe:	9a82                	jalr	s5
20011fc0:	fb650ee3          	beq	a0,s6,20011f7c <_printf_common+0xc0>
20011fc4:	0905                	addi	s2,s2,1
20011fc6:	b745                	j	20011f66 <_printf_common+0xaa>

20011fc8 <_printf_i>:
_printf_i():
20011fc8:	7179                	addi	sp,sp,-48
20011fca:	d422                	sw	s0,40(sp)
20011fcc:	d226                	sw	s1,36(sp)
20011fce:	d04a                	sw	s2,32(sp)
20011fd0:	ce4e                	sw	s3,28(sp)
20011fd2:	d606                	sw	ra,44(sp)
20011fd4:	cc52                	sw	s4,24(sp)
20011fd6:	ca56                	sw	s5,20(sp)
20011fd8:	c85a                	sw	s6,16(sp)
20011fda:	89b6                	mv	s3,a3
20011fdc:	0185c683          	lbu	a3,24(a1)
20011fe0:	06e00793          	li	a5,110
20011fe4:	8932                	mv	s2,a2
20011fe6:	84aa                	mv	s1,a0
20011fe8:	842e                	mv	s0,a1
20011fea:	04358613          	addi	a2,a1,67
20011fee:	1ef68063          	beq	a3,a5,200121ce <_printf_i+0x206>
20011ff2:	06d7e263          	bltu	a5,a3,20012056 <_printf_i+0x8e>
20011ff6:	06300793          	li	a5,99
20011ffa:	0af68263          	beq	a3,a5,2001209e <_printf_i+0xd6>
20011ffe:	00d7ed63          	bltu	a5,a3,20012018 <_printf_i+0x50>
20012002:	1e068a63          	beqz	a3,200121f6 <_printf_i+0x22e>
20012006:	05800793          	li	a5,88
2001200a:	16f68663          	beq	a3,a5,20012176 <_printf_i+0x1ae>
2001200e:	04240a93          	addi	s5,s0,66
20012012:	04d40123          	sb	a3,66(s0)
20012016:	a869                	j	200120b0 <_printf_i+0xe8>
20012018:	06400793          	li	a5,100
2001201c:	00f68663          	beq	a3,a5,20012028 <_printf_i+0x60>
20012020:	06900793          	li	a5,105
20012024:	fef695e3          	bne	a3,a5,2001200e <_printf_i+0x46>
20012028:	401c                	lw	a5,0(s0)
2001202a:	4308                	lw	a0,0(a4)
2001202c:	0807f693          	andi	a3,a5,128
20012030:	00450593          	addi	a1,a0,4
20012034:	c2c1                	beqz	a3,200120b4 <_printf_i+0xec>
20012036:	411c                	lw	a5,0(a0)
20012038:	c30c                	sw	a1,0(a4)
2001203a:	0007d863          	bgez	a5,2001204a <_printf_i+0x82>
2001203e:	02d00713          	li	a4,45
20012042:	40f007b3          	neg	a5,a5
20012046:	04e401a3          	sb	a4,67(s0)
2001204a:	00004697          	auipc	a3,0x4
2001204e:	57668693          	addi	a3,a3,1398 # 200165c0 <__sf_fake_stdout+0x34>
20012052:	4729                	li	a4,10
20012054:	a065                	j	200120fc <_printf_i+0x134>
20012056:	07300793          	li	a5,115
2001205a:	1af68263          	beq	a3,a5,200121fe <_printf_i+0x236>
2001205e:	00d7ef63          	bltu	a5,a3,2001207c <_printf_i+0xb4>
20012062:	06f00793          	li	a5,111
20012066:	04f68f63          	beq	a3,a5,200120c4 <_printf_i+0xfc>
2001206a:	07000793          	li	a5,112
2001206e:	faf690e3          	bne	a3,a5,2001200e <_printf_i+0x46>
20012072:	419c                	lw	a5,0(a1)
20012074:	0207e793          	ori	a5,a5,32
20012078:	c19c                	sw	a5,0(a1)
2001207a:	a809                	j	2001208c <_printf_i+0xc4>
2001207c:	07500793          	li	a5,117
20012080:	04f68263          	beq	a3,a5,200120c4 <_printf_i+0xfc>
20012084:	07800793          	li	a5,120
20012088:	f8f693e3          	bne	a3,a5,2001200e <_printf_i+0x46>
2001208c:	07800793          	li	a5,120
20012090:	04f402a3          	sb	a5,69(s0)
20012094:	00004697          	auipc	a3,0x4
20012098:	54068693          	addi	a3,a3,1344 # 200165d4 <__sf_fake_stdout+0x48>
2001209c:	a0dd                	j	20012182 <_printf_i+0x1ba>
2001209e:	431c                	lw	a5,0(a4)
200120a0:	04258a93          	addi	s5,a1,66
200120a4:	00478693          	addi	a3,a5,4
200120a8:	439c                	lw	a5,0(a5)
200120aa:	c314                	sw	a3,0(a4)
200120ac:	04f58123          	sb	a5,66(a1)
200120b0:	4785                	li	a5,1
200120b2:	a2ad                	j	2001221c <_printf_i+0x254>
200120b4:	0407f693          	andi	a3,a5,64
200120b8:	411c                	lw	a5,0(a0)
200120ba:	c30c                	sw	a1,0(a4)
200120bc:	debd                	beqz	a3,2001203a <_printf_i+0x72>
200120be:	07c2                	slli	a5,a5,0x10
200120c0:	87c1                	srai	a5,a5,0x10
200120c2:	bfa5                	j	2001203a <_printf_i+0x72>
200120c4:	400c                	lw	a1,0(s0)
200120c6:	431c                	lw	a5,0(a4)
200120c8:	0805f813          	andi	a6,a1,128
200120cc:	00478513          	addi	a0,a5,4
200120d0:	00080563          	beqz	a6,200120da <_printf_i+0x112>
200120d4:	c308                	sw	a0,0(a4)
200120d6:	439c                	lw	a5,0(a5)
200120d8:	a039                	j	200120e6 <_printf_i+0x11e>
200120da:	0405f593          	andi	a1,a1,64
200120de:	c308                	sw	a0,0(a4)
200120e0:	d9fd                	beqz	a1,200120d6 <_printf_i+0x10e>
200120e2:	0007d783          	lhu	a5,0(a5)
200120e6:	06f00713          	li	a4,111
200120ea:	0ce68a63          	beq	a3,a4,200121be <_printf_i+0x1f6>
200120ee:	00004697          	auipc	a3,0x4
200120f2:	4d268693          	addi	a3,a3,1234 # 200165c0 <__sf_fake_stdout+0x34>
200120f6:	4729                	li	a4,10
200120f8:	040401a3          	sb	zero,67(s0)
200120fc:	404c                	lw	a1,4(s0)
200120fe:	c40c                	sw	a1,8(s0)
20012100:	0005c563          	bltz	a1,2001210a <_printf_i+0x142>
20012104:	4008                	lw	a0,0(s0)
20012106:	996d                	andi	a0,a0,-5
20012108:	c008                	sw	a0,0(s0)
2001210a:	e399                	bnez	a5,20012110 <_printf_i+0x148>
2001210c:	8ab2                	mv	s5,a2
2001210e:	cd91                	beqz	a1,2001212a <_printf_i+0x162>
20012110:	8ab2                	mv	s5,a2
20012112:	02e7f5b3          	remu	a1,a5,a4
20012116:	1afd                	addi	s5,s5,-1
20012118:	95b6                	add	a1,a1,a3
2001211a:	0005c583          	lbu	a1,0(a1)
2001211e:	00ba8023          	sb	a1,0(s5)
20012122:	02e7d5b3          	divu	a1,a5,a4
20012126:	0ae7f263          	bgeu	a5,a4,200121ca <_printf_i+0x202>
2001212a:	47a1                	li	a5,8
2001212c:	00f71e63          	bne	a4,a5,20012148 <_printf_i+0x180>
20012130:	401c                	lw	a5,0(s0)
20012132:	8b85                	andi	a5,a5,1
20012134:	cb91                	beqz	a5,20012148 <_printf_i+0x180>
20012136:	4058                	lw	a4,4(s0)
20012138:	481c                	lw	a5,16(s0)
2001213a:	00e7c763          	blt	a5,a4,20012148 <_printf_i+0x180>
2001213e:	03000793          	li	a5,48
20012142:	fefa8fa3          	sb	a5,-1(s5)
20012146:	1afd                	addi	s5,s5,-1
20012148:	41560633          	sub	a2,a2,s5
2001214c:	c810                	sw	a2,16(s0)
2001214e:	874e                	mv	a4,s3
20012150:	86ca                	mv	a3,s2
20012152:	0070                	addi	a2,sp,12
20012154:	85a2                	mv	a1,s0
20012156:	8526                	mv	a0,s1
20012158:	3395                	jal	20011ebc <_printf_common>
2001215a:	5a7d                	li	s4,-1
2001215c:	0d451463          	bne	a0,s4,20012224 <_printf_i+0x25c>
20012160:	557d                	li	a0,-1
20012162:	50b2                	lw	ra,44(sp)
20012164:	5422                	lw	s0,40(sp)
20012166:	5492                	lw	s1,36(sp)
20012168:	5902                	lw	s2,32(sp)
2001216a:	49f2                	lw	s3,28(sp)
2001216c:	4a62                	lw	s4,24(sp)
2001216e:	4ad2                	lw	s5,20(sp)
20012170:	4b42                	lw	s6,16(sp)
20012172:	6145                	addi	sp,sp,48
20012174:	8082                	ret
20012176:	04d582a3          	sb	a3,69(a1)
2001217a:	00004697          	auipc	a3,0x4
2001217e:	44668693          	addi	a3,a3,1094 # 200165c0 <__sf_fake_stdout+0x34>
20012182:	400c                	lw	a1,0(s0)
20012184:	4308                	lw	a0,0(a4)
20012186:	0805f813          	andi	a6,a1,128
2001218a:	411c                	lw	a5,0(a0)
2001218c:	0511                	addi	a0,a0,4
2001218e:	02080063          	beqz	a6,200121ae <_printf_i+0x1e6>
20012192:	c308                	sw	a0,0(a4)
20012194:	0015f713          	andi	a4,a1,1
20012198:	c701                	beqz	a4,200121a0 <_printf_i+0x1d8>
2001219a:	0205e593          	ori	a1,a1,32
2001219e:	c00c                	sw	a1,0(s0)
200121a0:	4741                	li	a4,16
200121a2:	fbb9                	bnez	a5,200120f8 <_printf_i+0x130>
200121a4:	400c                	lw	a1,0(s0)
200121a6:	fdf5f593          	andi	a1,a1,-33
200121aa:	c00c                	sw	a1,0(s0)
200121ac:	b7b1                	j	200120f8 <_printf_i+0x130>
200121ae:	0405f813          	andi	a6,a1,64
200121b2:	c308                	sw	a0,0(a4)
200121b4:	fe0800e3          	beqz	a6,20012194 <_printf_i+0x1cc>
200121b8:	07c2                	slli	a5,a5,0x10
200121ba:	83c1                	srli	a5,a5,0x10
200121bc:	bfe1                	j	20012194 <_printf_i+0x1cc>
200121be:	00004697          	auipc	a3,0x4
200121c2:	40268693          	addi	a3,a3,1026 # 200165c0 <__sf_fake_stdout+0x34>
200121c6:	4721                	li	a4,8
200121c8:	bf05                	j	200120f8 <_printf_i+0x130>
200121ca:	87ae                	mv	a5,a1
200121cc:	b799                	j	20012112 <_printf_i+0x14a>
200121ce:	4194                	lw	a3,0(a1)
200121d0:	431c                	lw	a5,0(a4)
200121d2:	49cc                	lw	a1,20(a1)
200121d4:	0806f813          	andi	a6,a3,128
200121d8:	00478513          	addi	a0,a5,4
200121dc:	00080663          	beqz	a6,200121e8 <_printf_i+0x220>
200121e0:	c308                	sw	a0,0(a4)
200121e2:	439c                	lw	a5,0(a5)
200121e4:	c38c                	sw	a1,0(a5)
200121e6:	a801                	j	200121f6 <_printf_i+0x22e>
200121e8:	c308                	sw	a0,0(a4)
200121ea:	0406f693          	andi	a3,a3,64
200121ee:	439c                	lw	a5,0(a5)
200121f0:	daf5                	beqz	a3,200121e4 <_printf_i+0x21c>
200121f2:	00b79023          	sh	a1,0(a5)
200121f6:	00042823          	sw	zero,16(s0)
200121fa:	8ab2                	mv	s5,a2
200121fc:	bf89                	j	2001214e <_printf_i+0x186>
200121fe:	431c                	lw	a5,0(a4)
20012200:	41d0                	lw	a2,4(a1)
20012202:	4581                	li	a1,0
20012204:	00478693          	addi	a3,a5,4
20012208:	c314                	sw	a3,0(a4)
2001220a:	0007aa83          	lw	s5,0(a5)
2001220e:	8556                	mv	a0,s5
20012210:	3179                	jal	20011e9e <memchr>
20012212:	c501                	beqz	a0,2001221a <_printf_i+0x252>
20012214:	41550533          	sub	a0,a0,s5
20012218:	c048                	sw	a0,4(s0)
2001221a:	405c                	lw	a5,4(s0)
2001221c:	c81c                	sw	a5,16(s0)
2001221e:	040401a3          	sb	zero,67(s0)
20012222:	b735                	j	2001214e <_printf_i+0x186>
20012224:	4814                	lw	a3,16(s0)
20012226:	8656                	mv	a2,s5
20012228:	85ca                	mv	a1,s2
2001222a:	8526                	mv	a0,s1
2001222c:	9982                	jalr	s3
2001222e:	f34509e3          	beq	a0,s4,20012160 <_printf_i+0x198>
20012232:	401c                	lw	a5,0(s0)
20012234:	8b89                	andi	a5,a5,2
20012236:	e78d                	bnez	a5,20012260 <_printf_i+0x298>
20012238:	47b2                	lw	a5,12(sp)
2001223a:	4448                	lw	a0,12(s0)
2001223c:	f2f553e3          	bge	a0,a5,20012162 <_printf_i+0x19a>
20012240:	853e                	mv	a0,a5
20012242:	b705                	j	20012162 <_printf_i+0x19a>
20012244:	4685                	li	a3,1
20012246:	8656                	mv	a2,s5
20012248:	85ca                	mv	a1,s2
2001224a:	8526                	mv	a0,s1
2001224c:	9982                	jalr	s3
2001224e:	f16509e3          	beq	a0,s6,20012160 <_printf_i+0x198>
20012252:	0a05                	addi	s4,s4,1
20012254:	445c                	lw	a5,12(s0)
20012256:	4732                	lw	a4,12(sp)
20012258:	8f99                	sub	a5,a5,a4
2001225a:	fefa45e3          	blt	s4,a5,20012244 <_printf_i+0x27c>
2001225e:	bfe9                	j	20012238 <_printf_i+0x270>
20012260:	4a01                	li	s4,0
20012262:	01940a93          	addi	s5,s0,25
20012266:	5b7d                	li	s6,-1
20012268:	b7f5                	j	20012254 <_printf_i+0x28c>

2001226a <_read_r>:
_read_r():
2001226a:	1141                	addi	sp,sp,-16
2001226c:	c422                	sw	s0,8(sp)
2001226e:	842a                	mv	s0,a0
20012270:	852e                	mv	a0,a1
20012272:	85b2                	mv	a1,a2
20012274:	8636                	mv	a2,a3
20012276:	9201a823          	sw	zero,-1744(gp) # 800008c8 <errno>
2001227a:	c606                	sw	ra,12(sp)
2001227c:	38a030ef          	jal	ra,20015606 <_read>
20012280:	57fd                	li	a5,-1
20012282:	00f51763          	bne	a0,a5,20012290 <_read_r+0x26>
20012286:	93018793          	addi	a5,gp,-1744 # 800008c8 <errno>
2001228a:	439c                	lw	a5,0(a5)
2001228c:	c391                	beqz	a5,20012290 <_read_r+0x26>
2001228e:	c01c                	sw	a5,0(s0)
20012290:	40b2                	lw	ra,12(sp)
20012292:	4422                	lw	s0,8(sp)
20012294:	0141                	addi	sp,sp,16
20012296:	8082                	ret

20012298 <early_trap_vector>:
early_trap_vector():
F:/HiFive-IoT/Workspace/sifive-hifive1-revb-hello/freedom-metal/src/entry.S:89
 * you end up here then there's a bug in the early boot code somewhere. */
.section .text.metal.init.trapvec
.align 2
early_trap_vector:
    .cfi_startproc
    csrr t0, mcause
20012298:	342022f3          	csrr	t0,mcause
F:/HiFive-IoT/Workspace/sifive-hifive1-revb-hello/freedom-metal/src/entry.S:90
    csrr t1, mepc
2001229c:	34102373          	csrr	t1,mepc
F:/HiFive-IoT/Workspace/sifive-hifive1-revb-hello/freedom-metal/src/entry.S:91
    csrr t2, mtval
200122a0:	343023f3          	csrr	t2,mtval
F:/HiFive-IoT/Workspace/sifive-hifive1-revb-hello/freedom-metal/src/entry.S:92
    j early_trap_vector
200122a4:	bfd5                	j	20012298 <early_trap_vector>

200122a6 <metal_gpio_enable_output>:
metal_gpio_enable_output():
F:/HiFive-IoT/Workspace/sifive-hifive1-revb-hello/freedom-metal/metal/gpio.h:61
 * @brief Enable output on a pin
 * @param gpio The handle for the GPIO interface
 * @param pin The pin number indexed from 0
 * @return 0 if the output is successfully enabled
 */
inline int metal_gpio_enable_output(struct metal_gpio *gpio, int pin) {
200122a6:	1101                	addi	sp,sp,-32
200122a8:	ce06                	sw	ra,28(sp)
200122aa:	cc22                	sw	s0,24(sp)
200122ac:	1000                	addi	s0,sp,32
200122ae:	fea42623          	sw	a0,-20(s0)
200122b2:	feb42423          	sw	a1,-24(s0)
F:/HiFive-IoT/Workspace/sifive-hifive1-revb-hello/freedom-metal/metal/gpio.h:62
    if(!gpio) {
200122b6:	fec42783          	lw	a5,-20(s0)
200122ba:	e399                	bnez	a5,200122c0 <metal_gpio_enable_output+0x1a>
F:/HiFive-IoT/Workspace/sifive-hifive1-revb-hello/freedom-metal/metal/gpio.h:63
	return 1;
200122bc:	4785                	li	a5,1
200122be:	a839                	j	200122dc <metal_gpio_enable_output+0x36>
F:/HiFive-IoT/Workspace/sifive-hifive1-revb-hello/freedom-metal/metal/gpio.h:66
    }

    return gpio->vtable->enable_output(gpio, (1 << pin));
200122c0:	fec42783          	lw	a5,-20(s0)
200122c4:	439c                	lw	a5,0(a5)
200122c6:	4794                	lw	a3,8(a5)
200122c8:	fe842783          	lw	a5,-24(s0)
200122cc:	4705                	li	a4,1
200122ce:	00f717b3          	sll	a5,a4,a5
200122d2:	85be                	mv	a1,a5
200122d4:	fec42503          	lw	a0,-20(s0)
200122d8:	9682                	jalr	a3
200122da:	87aa                	mv	a5,a0
F:/HiFive-IoT/Workspace/sifive-hifive1-revb-hello/freedom-metal/metal/gpio.h:67
}
200122dc:	853e                	mv	a0,a5
200122de:	40f2                	lw	ra,28(sp)
200122e0:	4462                	lw	s0,24(sp)
200122e2:	6105                	addi	sp,sp,32
200122e4:	8082                	ret

200122e6 <metal_gpio_set_pin>:
metal_gpio_set_pin():
F:/HiFive-IoT/Workspace/sifive-hifive1-revb-hello/freedom-metal/metal/gpio.h:76
 * @param gpio The handle for the GPIO interface
 * @param pin The pin number indexed from 0
 * @param value The value to set the pin to
 * @return 0 if the output is successfully set
 */
inline int metal_gpio_set_pin(struct metal_gpio *gpio, int pin, int value) {
200122e6:	1101                	addi	sp,sp,-32
200122e8:	ce06                	sw	ra,28(sp)
200122ea:	cc22                	sw	s0,24(sp)
200122ec:	1000                	addi	s0,sp,32
200122ee:	fea42623          	sw	a0,-20(s0)
200122f2:	feb42423          	sw	a1,-24(s0)
200122f6:	fec42223          	sw	a2,-28(s0)
F:/HiFive-IoT/Workspace/sifive-hifive1-revb-hello/freedom-metal/metal/gpio.h:77
    if(!gpio) {
200122fa:	fec42783          	lw	a5,-20(s0)
200122fe:	e399                	bnez	a5,20012304 <metal_gpio_set_pin+0x1e>
F:/HiFive-IoT/Workspace/sifive-hifive1-revb-hello/freedom-metal/metal/gpio.h:78
	return 1;
20012300:	4785                	li	a5,1
20012302:	a089                	j	20012344 <metal_gpio_set_pin+0x5e>
F:/HiFive-IoT/Workspace/sifive-hifive1-revb-hello/freedom-metal/metal/gpio.h:81
    }

    if(value == 0) {
20012304:	fe442783          	lw	a5,-28(s0)
20012308:	e385                	bnez	a5,20012328 <metal_gpio_set_pin+0x42>
F:/HiFive-IoT/Workspace/sifive-hifive1-revb-hello/freedom-metal/metal/gpio.h:82
	return gpio->vtable->output_clear(gpio, (1 << pin));
2001230a:	fec42783          	lw	a5,-20(s0)
2001230e:	439c                	lw	a5,0(a5)
20012310:	4b94                	lw	a3,16(a5)
20012312:	fe842783          	lw	a5,-24(s0)
20012316:	4705                	li	a4,1
20012318:	00f717b3          	sll	a5,a4,a5
2001231c:	85be                	mv	a1,a5
2001231e:	fec42503          	lw	a0,-20(s0)
20012322:	9682                	jalr	a3
20012324:	87aa                	mv	a5,a0
20012326:	a839                	j	20012344 <metal_gpio_set_pin+0x5e>
F:/HiFive-IoT/Workspace/sifive-hifive1-revb-hello/freedom-metal/metal/gpio.h:84
    } else {
	return gpio->vtable->output_set(gpio, (1 << pin));
20012328:	fec42783          	lw	a5,-20(s0)
2001232c:	439c                	lw	a5,0(a5)
2001232e:	47d4                	lw	a3,12(a5)
20012330:	fe842783          	lw	a5,-24(s0)
20012334:	4705                	li	a4,1
20012336:	00f717b3          	sll	a5,a4,a5
2001233a:	85be                	mv	a1,a5
2001233c:	fec42503          	lw	a0,-20(s0)
20012340:	9682                	jalr	a3
20012342:	87aa                	mv	a5,a0
F:/HiFive-IoT/Workspace/sifive-hifive1-revb-hello/freedom-metal/metal/gpio.h:86
    }
}
20012344:	853e                	mv	a0,a5
20012346:	40f2                	lw	ra,28(sp)
20012348:	4462                	lw	s0,24(sp)
2001234a:	6105                	addi	sp,sp,32
2001234c:	8082                	ret

2001234e <metal_gpio_get_device>:
metal_gpio_get_device():
F:/HiFive-IoT/Workspace/sifive-hifive1-revb-hello/freedom-metal/src/gpio.c:16
extern inline int metal_gpio_clear_pin(struct metal_gpio *, int pin);
extern inline int metal_gpio_toggle_pin(struct metal_gpio *, int pin);
extern inline int metal_gpio_enable_pinmux(struct metal_gpio *, int pin, int io_function);

struct metal_gpio *metal_gpio_get_device(int device_num)
{
2001234e:	1101                	addi	sp,sp,-32
20012350:	ce22                	sw	s0,28(sp)
20012352:	1000                	addi	s0,sp,32
20012354:	fea42623          	sw	a0,-20(s0)
F:/HiFive-IoT/Workspace/sifive-hifive1-revb-hello/freedom-metal/src/gpio.c:17
    if(device_num > __MEE_DT_MAX_GPIOS) {
20012358:	fec42703          	lw	a4,-20(s0)
2001235c:	4785                	li	a5,1
2001235e:	00e7d463          	bge	a5,a4,20012366 <metal_gpio_get_device+0x18>
F:/HiFive-IoT/Workspace/sifive-hifive1-revb-hello/freedom-metal/src/gpio.c:18
	return NULL;
20012362:	4781                	li	a5,0
20012364:	a801                	j	20012374 <metal_gpio_get_device+0x26>
F:/HiFive-IoT/Workspace/sifive-hifive1-revb-hello/freedom-metal/src/gpio.c:21
    }

    return (struct metal_gpio *) __metal_gpio_table[device_num];
20012366:	fec42703          	lw	a4,-20(s0)
2001236a:	070a                	slli	a4,a4,0x2
2001236c:	82818793          	addi	a5,gp,-2008 # 800007c0 <__metal_gpio_table>
20012370:	97ba                	add	a5,a5,a4
20012372:	439c                	lw	a5,0(a5)
F:/HiFive-IoT/Workspace/sifive-hifive1-revb-hello/freedom-metal/src/gpio.c:22
}
20012374:	853e                	mv	a0,a5
20012376:	4472                	lw	s0,28(sp)
20012378:	6105                	addi	sp,sp,32
2001237a:	8082                	ret

2001237c <metal_spi_init>:
metal_spi_init():
F:/HiFive-IoT/Workspace/sifive-hifive1-revb-hello/freedom-metal/metal/spi.h:51

/*! @brief Initialize a SPI device with a certain baud rate
 * @param spi The handle for the SPI device to initialize
 * @param baud_rate The baud rate to set the SPI device to
 */
inline void metal_spi_init(struct metal_spi *spi, int baud_rate) { spi->vtable->init(spi, baud_rate); }
2001237c:	1101                	addi	sp,sp,-32
2001237e:	ce06                	sw	ra,28(sp)
20012380:	cc22                	sw	s0,24(sp)
20012382:	1000                	addi	s0,sp,32
20012384:	fea42623          	sw	a0,-20(s0)
20012388:	feb42423          	sw	a1,-24(s0)
2001238c:	fec42783          	lw	a5,-20(s0)
20012390:	439c                	lw	a5,0(a5)
20012392:	439c                	lw	a5,0(a5)
20012394:	fe842583          	lw	a1,-24(s0)
20012398:	fec42503          	lw	a0,-20(s0)
2001239c:	9782                	jalr	a5
2001239e:	0001                	nop
200123a0:	40f2                	lw	ra,28(sp)
200123a2:	4462                	lw	s0,24(sp)
200123a4:	6105                	addi	sp,sp,32
200123a6:	8082                	ret

200123a8 <metal_spi_set_baud_rate>:
metal_spi_set_baud_rate():
F:/HiFive-IoT/Workspace/sifive-hifive1-revb-hello/freedom-metal/metal/spi.h:76
/*! @brief Set the current baud rate of the SPI device
 * @param spi The handle for the SPI device
 * @param baud_rate The desired baud rate of the SPI device
 * @return 0 if the baud rate is successfully changed
 */
inline int metal_spi_set_baud_rate(struct metal_spi *spi, int baud_rate) { return spi->vtable->set_baud_rate(spi, baud_rate); }
200123a8:	1101                	addi	sp,sp,-32
200123aa:	ce06                	sw	ra,28(sp)
200123ac:	cc22                	sw	s0,24(sp)
200123ae:	1000                	addi	s0,sp,32
200123b0:	fea42623          	sw	a0,-20(s0)
200123b4:	feb42423          	sw	a1,-24(s0)
200123b8:	fec42783          	lw	a5,-20(s0)
200123bc:	439c                	lw	a5,0(a5)
200123be:	47dc                	lw	a5,12(a5)
200123c0:	fe842583          	lw	a1,-24(s0)
200123c4:	fec42503          	lw	a0,-20(s0)
200123c8:	9782                	jalr	a5
200123ca:	87aa                	mv	a5,a0
200123cc:	853e                	mv	a0,a5
200123ce:	40f2                	lw	ra,28(sp)
200123d0:	4462                	lw	s0,24(sp)
200123d2:	6105                	addi	sp,sp,32
200123d4:	8082                	ret

200123d6 <metal_spi_get_device>:
metal_spi_get_device():
F:/HiFive-IoT/Workspace/sifive-hifive1-revb-hello/freedom-metal/src/spi.c:13
extern inline int metal_spi_transfer(struct metal_spi *spi, struct metal_spi_config *config, size_t len, char *tx_buf, char *rx_buf);
extern inline int metal_spi_get_baud_rate(struct metal_spi *spi);
extern inline int metal_spi_set_baud_rate(struct metal_spi *spi, int baud_rate);

struct metal_spi *metal_spi_get_device(int device_num)
{
200123d6:	1101                	addi	sp,sp,-32
200123d8:	ce22                	sw	s0,28(sp)
200123da:	1000                	addi	s0,sp,32
200123dc:	fea42623          	sw	a0,-20(s0)
F:/HiFive-IoT/Workspace/sifive-hifive1-revb-hello/freedom-metal/src/spi.c:14
    if(device_num >= __METAL_DT_MAX_SPIS) {
200123e0:	fec42783          	lw	a5,-20(s0)
200123e4:	00f05463          	blez	a5,200123ec <metal_spi_get_device+0x16>
F:/HiFive-IoT/Workspace/sifive-hifive1-revb-hello/freedom-metal/src/spi.c:15
        return NULL;
200123e8:	4781                	li	a5,0
200123ea:	a801                	j	200123fa <metal_spi_get_device+0x24>
F:/HiFive-IoT/Workspace/sifive-hifive1-revb-hello/freedom-metal/src/spi.c:18
    }

    return (struct metal_spi *) __metal_spi_table[device_num];
200123ec:	fec42703          	lw	a4,-20(s0)
200123f0:	070a                	slli	a4,a4,0x2
200123f2:	82c18793          	addi	a5,gp,-2004 # 800007c4 <__metal_spi_table>
200123f6:	97ba                	add	a5,a5,a4
200123f8:	439c                	lw	a5,0(a5)
F:/HiFive-IoT/Workspace/sifive-hifive1-revb-hello/freedom-metal/src/spi.c:19
}
200123fa:	853e                	mv	a0,a5
200123fc:	4472                	lw	s0,28(sp)
200123fe:	6105                	addi	sp,sp,32
20012400:	8082                	ret

20012402 <__metal_driver_sifive_clint0_control_base>:
__metal_driver_sifive_clint0_control_base():
F:\HiFive-IoT\Workspace\sifive-hifive1-revb-hello\bsp\build\debug/./metal/machine.h:174
/* --------------------- fixed_factor_clock ------------ */


/* --------------------- sifive_clint0 ------------ */
static inline unsigned long __metal_driver_sifive_clint0_control_base(struct metal_interrupt *controller)
{
20012402:	1101                	addi	sp,sp,-32
20012404:	ce22                	sw	s0,28(sp)
20012406:	1000                	addi	s0,sp,32
20012408:	fea42623          	sw	a0,-20(s0)
F:\HiFive-IoT\Workspace\sifive-hifive1-revb-hello\bsp\build\debug/./metal/machine.h:175
	if ((uintptr_t)controller == (uintptr_t)&__metal_dt_clint_2000000) {
2001240c:	fec42703          	lw	a4,-20(s0)
20012410:	83018793          	addi	a5,gp,-2000 # 800007c8 <__metal_dt_clint_2000000>
20012414:	00f71563          	bne	a4,a5,2001241e <__metal_driver_sifive_clint0_control_base+0x1c>
F:\HiFive-IoT\Workspace\sifive-hifive1-revb-hello\bsp\build\debug/./metal/machine.h:176
		return METAL_RISCV_CLINT0_2000000_BASE_ADDRESS;
20012418:	020007b7          	lui	a5,0x2000
2001241c:	a011                	j	20012420 <__metal_driver_sifive_clint0_control_base+0x1e>
F:\HiFive-IoT\Workspace\sifive-hifive1-revb-hello\bsp\build\debug/./metal/machine.h:179
	}
	else {
		return 0;
2001241e:	4781                	li	a5,0
F:\HiFive-IoT\Workspace\sifive-hifive1-revb-hello\bsp\build\debug/./metal/machine.h:181
	}
}
20012420:	853e                	mv	a0,a5
20012422:	4472                	lw	s0,28(sp)
20012424:	6105                	addi	sp,sp,32
20012426:	8082                	ret

20012428 <__metal_driver_sifive_clint0_num_interrupts>:
__metal_driver_sifive_clint0_num_interrupts():
F:\HiFive-IoT\Workspace\sifive-hifive1-revb-hello\bsp\build\debug/./metal/machine.h:194
		return 0;
	}
}

static inline int __metal_driver_sifive_clint0_num_interrupts(struct metal_interrupt *controller)
{
20012428:	1101                	addi	sp,sp,-32
2001242a:	ce22                	sw	s0,28(sp)
2001242c:	1000                	addi	s0,sp,32
2001242e:	fea42623          	sw	a0,-20(s0)
F:\HiFive-IoT\Workspace\sifive-hifive1-revb-hello\bsp\build\debug/./metal/machine.h:195
	if ((uintptr_t)controller == (uintptr_t)&__metal_dt_clint_2000000) {
20012432:	fec42703          	lw	a4,-20(s0)
20012436:	83018793          	addi	a5,gp,-2000 # 800007c8 <__metal_dt_clint_2000000>
2001243a:	00f71463          	bne	a4,a5,20012442 <__metal_driver_sifive_clint0_num_interrupts+0x1a>
F:\HiFive-IoT\Workspace\sifive-hifive1-revb-hello\bsp\build\debug/./metal/machine.h:196
		return METAL_MAX_CLINT_INTERRUPTS;
2001243e:	4789                	li	a5,2
20012440:	a011                	j	20012444 <__metal_driver_sifive_clint0_num_interrupts+0x1c>
F:\HiFive-IoT\Workspace\sifive-hifive1-revb-hello\bsp\build\debug/./metal/machine.h:199
	}
	else {
		return 0;
20012442:	4781                	li	a5,0
F:\HiFive-IoT\Workspace\sifive-hifive1-revb-hello\bsp\build\debug/./metal/machine.h:201
	}
}
20012444:	853e                	mv	a0,a5
20012446:	4472                	lw	s0,28(sp)
20012448:	6105                	addi	sp,sp,32
2001244a:	8082                	ret

2001244c <__metal_driver_sifive_clint0_interrupt_parents>:
__metal_driver_sifive_clint0_interrupt_parents():
F:\HiFive-IoT\Workspace\sifive-hifive1-revb-hello\bsp\build\debug/./metal/machine.h:204

static inline struct metal_interrupt * __metal_driver_sifive_clint0_interrupt_parents(struct metal_interrupt *controller, int idx)
{
2001244c:	1101                	addi	sp,sp,-32
2001244e:	ce22                	sw	s0,28(sp)
20012450:	1000                	addi	s0,sp,32
20012452:	fea42623          	sw	a0,-20(s0)
20012456:	feb42423          	sw	a1,-24(s0)
F:\HiFive-IoT\Workspace\sifive-hifive1-revb-hello\bsp\build\debug/./metal/machine.h:205
	if (idx == 0) {
2001245a:	fe842783          	lw	a5,-24(s0)
2001245e:	e791                	bnez	a5,2001246a <__metal_driver_sifive_clint0_interrupt_parents+0x1e>
F:\HiFive-IoT\Workspace\sifive-hifive1-revb-hello\bsp\build\debug/./metal/machine.h:206
		return (struct metal_interrupt *)&__metal_dt_cpu_0_interrupt_controller.controller;
20012460:	800007b7          	lui	a5,0x80000
20012464:	0a078793          	addi	a5,a5,160 # 800000a0 <metal_segment_heap_target_end+0xffffefd4>
20012468:	a821                	j	20012480 <__metal_driver_sifive_clint0_interrupt_parents+0x34>
F:\HiFive-IoT\Workspace\sifive-hifive1-revb-hello\bsp\build\debug/./metal/machine.h:208
	}
	else if (idx == 1) {
2001246a:	fe842703          	lw	a4,-24(s0)
2001246e:	4785                	li	a5,1
20012470:	00f71763          	bne	a4,a5,2001247e <__metal_driver_sifive_clint0_interrupt_parents+0x32>
F:\HiFive-IoT\Workspace\sifive-hifive1-revb-hello\bsp\build\debug/./metal/machine.h:209
		return (struct metal_interrupt *)&__metal_dt_cpu_0_interrupt_controller.controller;
20012474:	800007b7          	lui	a5,0x80000
20012478:	0a078793          	addi	a5,a5,160 # 800000a0 <metal_segment_heap_target_end+0xffffefd4>
2001247c:	a011                	j	20012480 <__metal_driver_sifive_clint0_interrupt_parents+0x34>
F:\HiFive-IoT\Workspace\sifive-hifive1-revb-hello\bsp\build\debug/./metal/machine.h:212
	}
	else {
		return NULL;
2001247e:	4781                	li	a5,0
F:\HiFive-IoT\Workspace\sifive-hifive1-revb-hello\bsp\build\debug/./metal/machine.h:214
	}
}
20012480:	853e                	mv	a0,a5
20012482:	4472                	lw	s0,28(sp)
20012484:	6105                	addi	sp,sp,32
20012486:	8082                	ret

20012488 <__metal_driver_sifive_clint0_interrupt_lines>:
__metal_driver_sifive_clint0_interrupt_lines():
F:\HiFive-IoT\Workspace\sifive-hifive1-revb-hello\bsp\build\debug/./metal/machine.h:217

static inline int __metal_driver_sifive_clint0_interrupt_lines(struct metal_interrupt *controller, int idx)
{
20012488:	1101                	addi	sp,sp,-32
2001248a:	ce22                	sw	s0,28(sp)
2001248c:	1000                	addi	s0,sp,32
2001248e:	fea42623          	sw	a0,-20(s0)
20012492:	feb42423          	sw	a1,-24(s0)
F:\HiFive-IoT\Workspace\sifive-hifive1-revb-hello\bsp\build\debug/./metal/machine.h:218
	if (idx == 0) {
20012496:	fe842783          	lw	a5,-24(s0)
2001249a:	e399                	bnez	a5,200124a0 <__metal_driver_sifive_clint0_interrupt_lines+0x18>
F:\HiFive-IoT\Workspace\sifive-hifive1-revb-hello\bsp\build\debug/./metal/machine.h:219
		return 3;
2001249c:	478d                	li	a5,3
2001249e:	a809                	j	200124b0 <__metal_driver_sifive_clint0_interrupt_lines+0x28>
F:\HiFive-IoT\Workspace\sifive-hifive1-revb-hello\bsp\build\debug/./metal/machine.h:221
	}
	else if (idx == 1) {
200124a0:	fe842703          	lw	a4,-24(s0)
200124a4:	4785                	li	a5,1
200124a6:	00f71463          	bne	a4,a5,200124ae <__metal_driver_sifive_clint0_interrupt_lines+0x26>
F:\HiFive-IoT\Workspace\sifive-hifive1-revb-hello\bsp\build\debug/./metal/machine.h:222
		return 7;
200124aa:	479d                	li	a5,7
200124ac:	a011                	j	200124b0 <__metal_driver_sifive_clint0_interrupt_lines+0x28>
F:\HiFive-IoT\Workspace\sifive-hifive1-revb-hello\bsp\build\debug/./metal/machine.h:225
	}
	else {
		return 0;
200124ae:	4781                	li	a5,0
F:\HiFive-IoT\Workspace\sifive-hifive1-revb-hello\bsp\build\debug/./metal/machine.h:227
	}
}
200124b0:	853e                	mv	a0,a5
200124b2:	4472                	lw	s0,28(sp)
200124b4:	6105                	addi	sp,sp,32
200124b6:	8082                	ret

200124b8 <__metal_clint0_mtime_get>:
__metal_clint0_mtime_get():
F:/HiFive-IoT/Workspace/sifive-hifive1-revb-hello/freedom-metal/src/drivers/riscv_clint0.c:14
#include <metal/cpu.h>
#include <metal/drivers/riscv_clint0.h>
#include <metal/machine.h>

unsigned long long __metal_clint0_mtime_get (struct __metal_driver_riscv_clint0 *clint)
{
200124b8:	715d                	addi	sp,sp,-80
200124ba:	c686                	sw	ra,76(sp)
200124bc:	c4a2                	sw	s0,72(sp)
200124be:	c2ca                	sw	s2,68(sp)
200124c0:	c0ce                	sw	s3,64(sp)
200124c2:	de52                	sw	s4,60(sp)
200124c4:	dc56                	sw	s5,56(sp)
200124c6:	da5a                	sw	s6,52(sp)
200124c8:	d85e                	sw	s7,48(sp)
200124ca:	d662                	sw	s8,44(sp)
200124cc:	d466                	sw	s9,40(sp)
200124ce:	0880                	addi	s0,sp,80
200124d0:	faa42e23          	sw	a0,-68(s0)
F:/HiFive-IoT/Workspace/sifive-hifive1-revb-hello/freedom-metal/src/drivers/riscv_clint0.c:16
    __metal_io_u32 lo, hi;
    unsigned long control_base = __metal_driver_sifive_clint0_control_base(&clint->controller);
200124d4:	fbc42783          	lw	a5,-68(s0)
200124d8:	853e                	mv	a0,a5
200124da:	3725                	jal	20012402 <__metal_driver_sifive_clint0_control_base>
200124dc:	fca42623          	sw	a0,-52(s0)
F:/HiFive-IoT/Workspace/sifive-hifive1-revb-hello/freedom-metal/src/drivers/riscv_clint0.c:20 (discriminator 1)

    /* Guard against rollover when reading */
    do {
	hi = __METAL_ACCESS_ONCE((__metal_io_u32 *)(control_base + METAL_RISCV_CLINT0_MTIME + 4));
200124e0:	fcc42703          	lw	a4,-52(s0)
200124e4:	67b1                	lui	a5,0xc
200124e6:	17f1                	addi	a5,a5,-4
200124e8:	97ba                	add	a5,a5,a4
200124ea:	439c                	lw	a5,0(a5)
200124ec:	fcf42423          	sw	a5,-56(s0)
F:/HiFive-IoT/Workspace/sifive-hifive1-revb-hello/freedom-metal/src/drivers/riscv_clint0.c:21 (discriminator 1)
	lo = __METAL_ACCESS_ONCE((__metal_io_u32 *)(control_base + METAL_RISCV_CLINT0_MTIME));
200124f0:	fcc42703          	lw	a4,-52(s0)
200124f4:	67b1                	lui	a5,0xc
200124f6:	17e1                	addi	a5,a5,-8
200124f8:	97ba                	add	a5,a5,a4
200124fa:	439c                	lw	a5,0(a5)
200124fc:	fcf42223          	sw	a5,-60(s0)
F:/HiFive-IoT/Workspace/sifive-hifive1-revb-hello/freedom-metal/src/drivers/riscv_clint0.c:22 (discriminator 1)
    } while (__METAL_ACCESS_ONCE((__metal_io_u32 *)(control_base + METAL_RISCV_CLINT0_MTIME + 4)) != hi);
20012500:	fcc42703          	lw	a4,-52(s0)
20012504:	67b1                	lui	a5,0xc
20012506:	17f1                	addi	a5,a5,-4
20012508:	97ba                	add	a5,a5,a4
2001250a:	439c                	lw	a5,0(a5)
2001250c:	fc842703          	lw	a4,-56(s0)
20012510:	fcf718e3          	bne	a4,a5,200124e0 <__metal_clint0_mtime_get+0x28>
F:/HiFive-IoT/Workspace/sifive-hifive1-revb-hello/freedom-metal/src/drivers/riscv_clint0.c:24

    return (((unsigned long long)hi) << 32) | lo;
20012514:	fc842783          	lw	a5,-56(s0)
20012518:	8c3e                	mv	s8,a5
2001251a:	4c81                	li	s9,0
2001251c:	000c1993          	slli	s3,s8,0x0
20012520:	4901                	li	s2,0
20012522:	fc442783          	lw	a5,-60(s0)
20012526:	8a3e                	mv	s4,a5
20012528:	4a81                	li	s5,0
2001252a:	01496b33          	or	s6,s2,s4
2001252e:	0159ebb3          	or	s7,s3,s5
20012532:	87da                	mv	a5,s6
20012534:	885e                	mv	a6,s7
F:/HiFive-IoT/Workspace/sifive-hifive1-revb-hello/freedom-metal/src/drivers/riscv_clint0.c:25
}
20012536:	853e                	mv	a0,a5
20012538:	85c2                	mv	a1,a6
2001253a:	40b6                	lw	ra,76(sp)
2001253c:	4426                	lw	s0,72(sp)
2001253e:	4916                	lw	s2,68(sp)
20012540:	4986                	lw	s3,64(sp)
20012542:	5a72                	lw	s4,60(sp)
20012544:	5ae2                	lw	s5,56(sp)
20012546:	5b52                	lw	s6,52(sp)
20012548:	5bc2                	lw	s7,48(sp)
2001254a:	5c32                	lw	s8,44(sp)
2001254c:	5ca2                	lw	s9,40(sp)
2001254e:	6161                	addi	sp,sp,80
20012550:	8082                	ret

20012552 <__metal_driver_riscv_clint0_mtimecmp_set>:
__metal_driver_riscv_clint0_mtimecmp_set():
F:/HiFive-IoT/Workspace/sifive-hifive1-revb-hello/freedom-metal/src/drivers/riscv_clint0.c:30

int __metal_driver_riscv_clint0_mtimecmp_set(struct metal_interrupt *controller,
                                             int hartid,
                                             unsigned long long time)
{   
20012552:	7179                	addi	sp,sp,-48
20012554:	d606                	sw	ra,44(sp)
20012556:	d422                	sw	s0,40(sp)
20012558:	d24a                	sw	s2,36(sp)
2001255a:	d04e                	sw	s3,32(sp)
2001255c:	1800                	addi	s0,sp,48
2001255e:	fca42e23          	sw	a0,-36(s0)
20012562:	fcb42c23          	sw	a1,-40(s0)
20012566:	fcc42823          	sw	a2,-48(s0)
2001256a:	fcd42a23          	sw	a3,-44(s0)
F:/HiFive-IoT/Workspace/sifive-hifive1-revb-hello/freedom-metal/src/drivers/riscv_clint0.c:31
    struct __metal_driver_riscv_clint0 *clint =
2001256e:	fdc42783          	lw	a5,-36(s0)
20012572:	fef42623          	sw	a5,-20(s0)
F:/HiFive-IoT/Workspace/sifive-hifive1-revb-hello/freedom-metal/src/drivers/riscv_clint0.c:33
                              (struct __metal_driver_riscv_clint0 *)(controller);
    unsigned long control_base = __metal_driver_sifive_clint0_control_base(&clint->controller);
20012576:	fec42783          	lw	a5,-20(s0)
2001257a:	853e                	mv	a0,a5
2001257c:	3559                	jal	20012402 <__metal_driver_sifive_clint0_control_base>
2001257e:	fea42423          	sw	a0,-24(s0)
F:/HiFive-IoT/Workspace/sifive-hifive1-revb-hello/freedom-metal/src/drivers/riscv_clint0.c:40
     * and are NOT internally latched for multiword transfers.
     * Need to be careful about sequencing to avoid triggering
     * spurious interrupts: For that set the high word to a max
     * value first.
     */
    __METAL_ACCESS_ONCE((__metal_io_u32 *)(control_base + (8 * hartid) + METAL_RISCV_CLINT0_MTIMECMP_BASE + 4)) = 0xFFFFFFFF;
20012582:	fd842783          	lw	a5,-40(s0)
20012586:	078e                	slli	a5,a5,0x3
20012588:	873e                	mv	a4,a5
2001258a:	fe842783          	lw	a5,-24(s0)
2001258e:	973e                	add	a4,a4,a5
20012590:	6791                	lui	a5,0x4
20012592:	0791                	addi	a5,a5,4
20012594:	97ba                	add	a5,a5,a4
20012596:	873e                	mv	a4,a5
20012598:	57fd                	li	a5,-1
2001259a:	c31c                	sw	a5,0(a4)
F:/HiFive-IoT/Workspace/sifive-hifive1-revb-hello/freedom-metal/src/drivers/riscv_clint0.c:41
    __METAL_ACCESS_ONCE((__metal_io_u32 *)(control_base + (8 * hartid) + METAL_RISCV_CLINT0_MTIMECMP_BASE)) = (__metal_io_u32)time;
2001259c:	fd842783          	lw	a5,-40(s0)
200125a0:	078e                	slli	a5,a5,0x3
200125a2:	873e                	mv	a4,a5
200125a4:	fe842783          	lw	a5,-24(s0)
200125a8:	973e                	add	a4,a4,a5
200125aa:	6791                	lui	a5,0x4
200125ac:	97ba                	add	a5,a5,a4
200125ae:	873e                	mv	a4,a5
200125b0:	fd042783          	lw	a5,-48(s0)
200125b4:	c31c                	sw	a5,0(a4)
F:/HiFive-IoT/Workspace/sifive-hifive1-revb-hello/freedom-metal/src/drivers/riscv_clint0.c:42
    __METAL_ACCESS_ONCE((__metal_io_u32 *)(control_base + (8 * hartid) + METAL_RISCV_CLINT0_MTIMECMP_BASE + 4)) = (__metal_io_u32)(time >> 32);
200125b6:	fd442783          	lw	a5,-44(s0)
200125ba:	0007d913          	srli	s2,a5,0x0
200125be:	4981                	li	s3,0
200125c0:	fd842783          	lw	a5,-40(s0)
200125c4:	078e                	slli	a5,a5,0x3
200125c6:	873e                	mv	a4,a5
200125c8:	fe842783          	lw	a5,-24(s0)
200125cc:	973e                	add	a4,a4,a5
200125ce:	6791                	lui	a5,0x4
200125d0:	0791                	addi	a5,a5,4
200125d2:	97ba                	add	a5,a5,a4
200125d4:	874a                	mv	a4,s2
200125d6:	c398                	sw	a4,0(a5)
F:/HiFive-IoT/Workspace/sifive-hifive1-revb-hello/freedom-metal/src/drivers/riscv_clint0.c:43
    return 0;
200125d8:	4781                	li	a5,0
F:/HiFive-IoT/Workspace/sifive-hifive1-revb-hello/freedom-metal/src/drivers/riscv_clint0.c:44
}
200125da:	853e                	mv	a0,a5
200125dc:	50b2                	lw	ra,44(sp)
200125de:	5422                	lw	s0,40(sp)
200125e0:	5912                	lw	s2,36(sp)
200125e2:	5982                	lw	s3,32(sp)
200125e4:	6145                	addi	sp,sp,48
200125e6:	8082                	ret

200125e8 <_get_cpu_intc>:
_get_cpu_intc():
F:/HiFive-IoT/Workspace/sifive-hifive1-revb-hello/freedom-metal/src/drivers/riscv_clint0.c:47

static struct metal_interrupt *_get_cpu_intc()
{
200125e8:	1101                	addi	sp,sp,-32
200125ea:	ce06                	sw	ra,28(sp)
200125ec:	cc22                	sw	s0,24(sp)
200125ee:	1000                	addi	s0,sp,32
F:/HiFive-IoT/Workspace/sifive-hifive1-revb-hello/freedom-metal/src/drivers/riscv_clint0.c:48
    int hartid = 0;
200125f0:	fe042623          	sw	zero,-20(s0)
F:/HiFive-IoT/Workspace/sifive-hifive1-revb-hello/freedom-metal/src/drivers/riscv_clint0.c:49
    __asm__ volatile("csrr %[hartid], mhartid"
200125f4:	f14027f3          	csrr	a5,mhartid
200125f8:	fef42623          	sw	a5,-20(s0)
F:/HiFive-IoT/Workspace/sifive-hifive1-revb-hello/freedom-metal/src/drivers/riscv_clint0.c:52
                     : [hartid] "=r" (hartid) :: "memory");

    struct metal_cpu *cpu = metal_cpu_get(hartid);
200125fc:	fec42503          	lw	a0,-20(s0)
20012600:	5ff020ef          	jal	ra,200153fe <metal_cpu_get>
20012604:	fea42423          	sw	a0,-24(s0)
F:/HiFive-IoT/Workspace/sifive-hifive1-revb-hello/freedom-metal/src/drivers/riscv_clint0.c:54

    return metal_cpu_interrupt_controller(cpu);
20012608:	fe842503          	lw	a0,-24(s0)
2001260c:	5cd020ef          	jal	ra,200153d8 <metal_cpu_interrupt_controller>
20012610:	87aa                	mv	a5,a0
F:/HiFive-IoT/Workspace/sifive-hifive1-revb-hello/freedom-metal/src/drivers/riscv_clint0.c:55
}
20012612:	853e                	mv	a0,a5
20012614:	40f2                	lw	ra,28(sp)
20012616:	4462                	lw	s0,24(sp)
20012618:	6105                	addi	sp,sp,32
2001261a:	8082                	ret

2001261c <__metal_driver_riscv_clint0_init>:
__metal_driver_riscv_clint0_init():
F:/HiFive-IoT/Workspace/sifive-hifive1-revb-hello/freedom-metal/src/drivers/riscv_clint0.c:58

void __metal_driver_riscv_clint0_init (struct metal_interrupt *controller)
{
2001261c:	7139                	addi	sp,sp,-64
2001261e:	de06                	sw	ra,60(sp)
20012620:	dc22                	sw	s0,56(sp)
20012622:	0080                	addi	s0,sp,64
20012624:	fca42623          	sw	a0,-52(s0)
F:/HiFive-IoT/Workspace/sifive-hifive1-revb-hello/freedom-metal/src/drivers/riscv_clint0.c:59
    int num_interrupts = __metal_driver_sifive_clint0_num_interrupts(controller);
20012628:	fcc42503          	lw	a0,-52(s0)
2001262c:	3bf5                	jal	20012428 <__metal_driver_sifive_clint0_num_interrupts>
2001262e:	fea42423          	sw	a0,-24(s0)
F:/HiFive-IoT/Workspace/sifive-hifive1-revb-hello/freedom-metal/src/drivers/riscv_clint0.c:60
    struct __metal_driver_riscv_clint0 *clint =
20012632:	fcc42783          	lw	a5,-52(s0)
20012636:	fef42223          	sw	a5,-28(s0)
F:/HiFive-IoT/Workspace/sifive-hifive1-revb-hello/freedom-metal/src/drivers/riscv_clint0.c:63
                              (struct __metal_driver_riscv_clint0 *)(controller);

    if ( !clint->init_done ) {
2001263a:	fe442783          	lw	a5,-28(s0)
2001263e:	43dc                	lw	a5,4(a5)
20012640:	efa9                	bnez	a5,2001269a <__metal_driver_riscv_clint0_init+0x7e>
F:/HiFive-IoT/Workspace/sifive-hifive1-revb-hello/freedom-metal/src/drivers/riscv_clint0.c:65
	/* Register its interrupts with with parent controller, aka sw and timerto its default isr */
        for (int i = 0; i < num_interrupts; i++) {
20012642:	fe042623          	sw	zero,-20(s0)
20012646:	a081                	j	20012686 <__metal_driver_riscv_clint0_init+0x6a>
F:/HiFive-IoT/Workspace/sifive-hifive1-revb-hello/freedom-metal/src/drivers/riscv_clint0.c:66 (discriminator 3)
	  struct metal_interrupt *intc = __metal_driver_sifive_clint0_interrupt_parents(controller, i);
20012648:	fec42583          	lw	a1,-20(s0)
2001264c:	fcc42503          	lw	a0,-52(s0)
20012650:	3bf5                	jal	2001244c <__metal_driver_sifive_clint0_interrupt_parents>
20012652:	fea42023          	sw	a0,-32(s0)
F:/HiFive-IoT/Workspace/sifive-hifive1-revb-hello/freedom-metal/src/drivers/riscv_clint0.c:67 (discriminator 3)
	  int line = __metal_driver_sifive_clint0_interrupt_lines(controller, i);
20012656:	fec42583          	lw	a1,-20(s0)
2001265a:	fcc42503          	lw	a0,-52(s0)
2001265e:	352d                	jal	20012488 <__metal_driver_sifive_clint0_interrupt_lines>
20012660:	fca42e23          	sw	a0,-36(s0)
F:/HiFive-IoT/Workspace/sifive-hifive1-revb-hello/freedom-metal/src/drivers/riscv_clint0.c:68 (discriminator 3)
            intc->vtable->interrupt_register(intc, line, NULL, controller);
20012664:	fe042783          	lw	a5,-32(s0)
20012668:	439c                	lw	a5,0(a5)
2001266a:	43dc                	lw	a5,4(a5)
2001266c:	fcc42683          	lw	a3,-52(s0)
20012670:	4601                	li	a2,0
20012672:	fdc42583          	lw	a1,-36(s0)
20012676:	fe042503          	lw	a0,-32(s0)
2001267a:	9782                	jalr	a5
F:/HiFive-IoT/Workspace/sifive-hifive1-revb-hello/freedom-metal/src/drivers/riscv_clint0.c:65 (discriminator 3)
        for (int i = 0; i < num_interrupts; i++) {
2001267c:	fec42783          	lw	a5,-20(s0)
20012680:	0785                	addi	a5,a5,1
20012682:	fef42623          	sw	a5,-20(s0)
F:/HiFive-IoT/Workspace/sifive-hifive1-revb-hello/freedom-metal/src/drivers/riscv_clint0.c:65 (discriminator 1)
20012686:	fec42703          	lw	a4,-20(s0)
2001268a:	fe842783          	lw	a5,-24(s0)
2001268e:	faf74de3          	blt	a4,a5,20012648 <__metal_driver_riscv_clint0_init+0x2c>
F:/HiFive-IoT/Workspace/sifive-hifive1-revb-hello/freedom-metal/src/drivers/riscv_clint0.c:70
	}
	clint->init_done = 1;
20012692:	fe442783          	lw	a5,-28(s0)
20012696:	4705                	li	a4,1
20012698:	c3d8                	sw	a4,4(a5)
F:/HiFive-IoT/Workspace/sifive-hifive1-revb-hello/freedom-metal/src/drivers/riscv_clint0.c:72
    }	
}
2001269a:	0001                	nop
2001269c:	50f2                	lw	ra,60(sp)
2001269e:	5462                	lw	s0,56(sp)
200126a0:	6121                	addi	sp,sp,64
200126a2:	8082                	ret

200126a4 <__metal_driver_riscv_clint0_register>:
__metal_driver_riscv_clint0_register():
F:/HiFive-IoT/Workspace/sifive-hifive1-revb-hello/freedom-metal/src/drivers/riscv_clint0.c:77

int __metal_driver_riscv_clint0_register (struct metal_interrupt *controller,
                                        int id, metal_interrupt_handler_t isr,
                                        void *priv)
{
200126a4:	7139                	addi	sp,sp,-64
200126a6:	de06                	sw	ra,60(sp)
200126a8:	dc22                	sw	s0,56(sp)
200126aa:	0080                	addi	s0,sp,64
200126ac:	fca42623          	sw	a0,-52(s0)
200126b0:	fcb42423          	sw	a1,-56(s0)
200126b4:	fcc42223          	sw	a2,-60(s0)
200126b8:	fcd42023          	sw	a3,-64(s0)
F:/HiFive-IoT/Workspace/sifive-hifive1-revb-hello/freedom-metal/src/drivers/riscv_clint0.c:78
    int rc = -1;
200126bc:	57fd                	li	a5,-1
200126be:	fef42623          	sw	a5,-20(s0)
F:/HiFive-IoT/Workspace/sifive-hifive1-revb-hello/freedom-metal/src/drivers/riscv_clint0.c:80

    struct metal_interrupt *intc = NULL;
200126c2:	fe042423          	sw	zero,-24(s0)
F:/HiFive-IoT/Workspace/sifive-hifive1-revb-hello/freedom-metal/src/drivers/riscv_clint0.c:81
    struct metal_interrupt *cpu_intc = _get_cpu_intc();
200126c6:	370d                	jal	200125e8 <_get_cpu_intc>
200126c8:	fea42023          	sw	a0,-32(s0)
F:/HiFive-IoT/Workspace/sifive-hifive1-revb-hello/freedom-metal/src/drivers/riscv_clint0.c:82
    int num_interrupts = __metal_driver_sifive_clint0_num_interrupts(controller);
200126cc:	fcc42503          	lw	a0,-52(s0)
200126d0:	3ba1                	jal	20012428 <__metal_driver_sifive_clint0_num_interrupts>
200126d2:	fca42e23          	sw	a0,-36(s0)
F:/HiFive-IoT/Workspace/sifive-hifive1-revb-hello/freedom-metal/src/drivers/riscv_clint0.c:84

    for(int i = 0; i < num_interrupts; i++) {
200126d6:	fe042223          	sw	zero,-28(s0)
200126da:	a091                	j	2001271e <__metal_driver_riscv_clint0_register+0x7a>
F:/HiFive-IoT/Workspace/sifive-hifive1-revb-hello/freedom-metal/src/drivers/riscv_clint0.c:85
	int line = __metal_driver_sifive_clint0_interrupt_lines(controller, i);
200126dc:	fe442583          	lw	a1,-28(s0)
200126e0:	fcc42503          	lw	a0,-52(s0)
200126e4:	3355                	jal	20012488 <__metal_driver_sifive_clint0_interrupt_lines>
200126e6:	fca42c23          	sw	a0,-40(s0)
F:/HiFive-IoT/Workspace/sifive-hifive1-revb-hello/freedom-metal/src/drivers/riscv_clint0.c:86
        intc = __metal_driver_sifive_clint0_interrupt_parents(controller, i);
200126ea:	fe442583          	lw	a1,-28(s0)
200126ee:	fcc42503          	lw	a0,-52(s0)
200126f2:	3ba9                	jal	2001244c <__metal_driver_sifive_clint0_interrupt_parents>
200126f4:	fea42423          	sw	a0,-24(s0)
F:/HiFive-IoT/Workspace/sifive-hifive1-revb-hello/freedom-metal/src/drivers/riscv_clint0.c:87
        if (cpu_intc == intc && id == line) {
200126f8:	fe042703          	lw	a4,-32(s0)
200126fc:	fe842783          	lw	a5,-24(s0)
20012700:	00f71863          	bne	a4,a5,20012710 <__metal_driver_riscv_clint0_register+0x6c>
F:/HiFive-IoT/Workspace/sifive-hifive1-revb-hello/freedom-metal/src/drivers/riscv_clint0.c:87 (discriminator 1)
20012704:	fc842703          	lw	a4,-56(s0)
20012708:	fd842783          	lw	a5,-40(s0)
2001270c:	02f70063          	beq	a4,a5,2001272c <__metal_driver_riscv_clint0_register+0x88>
F:/HiFive-IoT/Workspace/sifive-hifive1-revb-hello/freedom-metal/src/drivers/riscv_clint0.c:90 (discriminator 2)
            break;
        }
	intc = NULL;
20012710:	fe042423          	sw	zero,-24(s0)
F:/HiFive-IoT/Workspace/sifive-hifive1-revb-hello/freedom-metal/src/drivers/riscv_clint0.c:84 (discriminator 2)
    for(int i = 0; i < num_interrupts; i++) {
20012714:	fe442783          	lw	a5,-28(s0)
20012718:	0785                	addi	a5,a5,1
2001271a:	fef42223          	sw	a5,-28(s0)
F:/HiFive-IoT/Workspace/sifive-hifive1-revb-hello/freedom-metal/src/drivers/riscv_clint0.c:84 (discriminator 1)
2001271e:	fe442703          	lw	a4,-28(s0)
20012722:	fdc42783          	lw	a5,-36(s0)
20012726:	faf74be3          	blt	a4,a5,200126dc <__metal_driver_riscv_clint0_register+0x38>
2001272a:	a011                	j	2001272e <__metal_driver_riscv_clint0_register+0x8a>
F:/HiFive-IoT/Workspace/sifive-hifive1-revb-hello/freedom-metal/src/drivers/riscv_clint0.c:88
            break;
2001272c:	0001                	nop
F:/HiFive-IoT/Workspace/sifive-hifive1-revb-hello/freedom-metal/src/drivers/riscv_clint0.c:94
    }

    /* Register its interrupts with parent controller */
    if (intc) {
2001272e:	fe842783          	lw	a5,-24(s0)
20012732:	c385                	beqz	a5,20012752 <__metal_driver_riscv_clint0_register+0xae>
F:/HiFive-IoT/Workspace/sifive-hifive1-revb-hello/freedom-metal/src/drivers/riscv_clint0.c:95
        rc = intc->vtable->interrupt_register(intc, id, isr, priv);
20012734:	fe842783          	lw	a5,-24(s0)
20012738:	439c                	lw	a5,0(a5)
2001273a:	43dc                	lw	a5,4(a5)
2001273c:	fc042683          	lw	a3,-64(s0)
20012740:	fc442603          	lw	a2,-60(s0)
20012744:	fc842583          	lw	a1,-56(s0)
20012748:	fe842503          	lw	a0,-24(s0)
2001274c:	9782                	jalr	a5
2001274e:	fea42623          	sw	a0,-20(s0)
F:/HiFive-IoT/Workspace/sifive-hifive1-revb-hello/freedom-metal/src/drivers/riscv_clint0.c:97
    }
    return rc;
20012752:	fec42783          	lw	a5,-20(s0)
F:/HiFive-IoT/Workspace/sifive-hifive1-revb-hello/freedom-metal/src/drivers/riscv_clint0.c:98
}
20012756:	853e                	mv	a0,a5
20012758:	50f2                	lw	ra,60(sp)
2001275a:	5462                	lw	s0,56(sp)
2001275c:	6121                	addi	sp,sp,64
2001275e:	8082                	ret

20012760 <__metal_driver_riscv_clint0_enable>:
__metal_driver_riscv_clint0_enable():
F:/HiFive-IoT/Workspace/sifive-hifive1-revb-hello/freedom-metal/src/drivers/riscv_clint0.c:101

int __metal_driver_riscv_clint0_enable (struct metal_interrupt *controller, int id)
{
20012760:	7139                	addi	sp,sp,-64
20012762:	de06                	sw	ra,60(sp)
20012764:	dc22                	sw	s0,56(sp)
20012766:	0080                	addi	s0,sp,64
20012768:	fca42623          	sw	a0,-52(s0)
2001276c:	fcb42423          	sw	a1,-56(s0)
F:/HiFive-IoT/Workspace/sifive-hifive1-revb-hello/freedom-metal/src/drivers/riscv_clint0.c:102
    int rc = -1;
20012770:	57fd                	li	a5,-1
20012772:	fef42223          	sw	a5,-28(s0)
F:/HiFive-IoT/Workspace/sifive-hifive1-revb-hello/freedom-metal/src/drivers/riscv_clint0.c:104

    if ( id ) {
20012776:	fc842783          	lw	a5,-56(s0)
2001277a:	c7c9                	beqz	a5,20012804 <__metal_driver_riscv_clint0_enable+0xa4>
F:/HiFive-IoT/Workspace/sifive-hifive1-revb-hello/freedom-metal/src/drivers/riscv_clint0.c:105
        struct metal_interrupt *intc = NULL;
2001277c:	fe042623          	sw	zero,-20(s0)
F:/HiFive-IoT/Workspace/sifive-hifive1-revb-hello/freedom-metal/src/drivers/riscv_clint0.c:106
        struct metal_interrupt *cpu_intc = _get_cpu_intc();
20012780:	35a5                	jal	200125e8 <_get_cpu_intc>
20012782:	fea42023          	sw	a0,-32(s0)
F:/HiFive-IoT/Workspace/sifive-hifive1-revb-hello/freedom-metal/src/drivers/riscv_clint0.c:107
	int num_interrupts = __metal_driver_sifive_clint0_num_interrupts(controller);
20012786:	fcc42503          	lw	a0,-52(s0)
2001278a:	3979                	jal	20012428 <__metal_driver_sifive_clint0_num_interrupts>
2001278c:	fca42e23          	sw	a0,-36(s0)
F:/HiFive-IoT/Workspace/sifive-hifive1-revb-hello/freedom-metal/src/drivers/riscv_clint0.c:109

        for(int i = 0; i < num_interrupts; i++) {
20012790:	fe042423          	sw	zero,-24(s0)
20012794:	a091                	j	200127d8 <__metal_driver_riscv_clint0_enable+0x78>
F:/HiFive-IoT/Workspace/sifive-hifive1-revb-hello/freedom-metal/src/drivers/riscv_clint0.c:110
	    int line = __metal_driver_sifive_clint0_interrupt_lines(controller, i);
20012796:	fe842583          	lw	a1,-24(s0)
2001279a:	fcc42503          	lw	a0,-52(s0)
2001279e:	31ed                	jal	20012488 <__metal_driver_sifive_clint0_interrupt_lines>
200127a0:	fca42c23          	sw	a0,-40(s0)
F:/HiFive-IoT/Workspace/sifive-hifive1-revb-hello/freedom-metal/src/drivers/riscv_clint0.c:111
	    intc = __metal_driver_sifive_clint0_interrupt_parents(controller, i);
200127a4:	fe842583          	lw	a1,-24(s0)
200127a8:	fcc42503          	lw	a0,-52(s0)
200127ac:	3145                	jal	2001244c <__metal_driver_sifive_clint0_interrupt_parents>
200127ae:	fea42623          	sw	a0,-20(s0)
F:/HiFive-IoT/Workspace/sifive-hifive1-revb-hello/freedom-metal/src/drivers/riscv_clint0.c:112
            if(cpu_intc == intc && id == line) {
200127b2:	fe042703          	lw	a4,-32(s0)
200127b6:	fec42783          	lw	a5,-20(s0)
200127ba:	00f71863          	bne	a4,a5,200127ca <__metal_driver_riscv_clint0_enable+0x6a>
F:/HiFive-IoT/Workspace/sifive-hifive1-revb-hello/freedom-metal/src/drivers/riscv_clint0.c:112 (discriminator 1)
200127be:	fc842703          	lw	a4,-56(s0)
200127c2:	fd842783          	lw	a5,-40(s0)
200127c6:	02f70063          	beq	a4,a5,200127e6 <__metal_driver_riscv_clint0_enable+0x86>
F:/HiFive-IoT/Workspace/sifive-hifive1-revb-hello/freedom-metal/src/drivers/riscv_clint0.c:115 (discriminator 2)
                break;
            }
	    intc = NULL;
200127ca:	fe042623          	sw	zero,-20(s0)
F:/HiFive-IoT/Workspace/sifive-hifive1-revb-hello/freedom-metal/src/drivers/riscv_clint0.c:109 (discriminator 2)
        for(int i = 0; i < num_interrupts; i++) {
200127ce:	fe842783          	lw	a5,-24(s0)
200127d2:	0785                	addi	a5,a5,1
200127d4:	fef42423          	sw	a5,-24(s0)
F:/HiFive-IoT/Workspace/sifive-hifive1-revb-hello/freedom-metal/src/drivers/riscv_clint0.c:109 (discriminator 1)
200127d8:	fe842703          	lw	a4,-24(s0)
200127dc:	fdc42783          	lw	a5,-36(s0)
200127e0:	faf74be3          	blt	a4,a5,20012796 <__metal_driver_riscv_clint0_enable+0x36>
200127e4:	a011                	j	200127e8 <__metal_driver_riscv_clint0_enable+0x88>
F:/HiFive-IoT/Workspace/sifive-hifive1-revb-hello/freedom-metal/src/drivers/riscv_clint0.c:113
                break;
200127e6:	0001                	nop
F:/HiFive-IoT/Workspace/sifive-hifive1-revb-hello/freedom-metal/src/drivers/riscv_clint0.c:119
        }
        
        /* Enable its interrupts with parent controller */
        if (intc) {
200127e8:	fec42783          	lw	a5,-20(s0)
200127ec:	cf81                	beqz	a5,20012804 <__metal_driver_riscv_clint0_enable+0xa4>
F:/HiFive-IoT/Workspace/sifive-hifive1-revb-hello/freedom-metal/src/drivers/riscv_clint0.c:120
            rc = intc->vtable->interrupt_enable(intc, id);
200127ee:	fec42783          	lw	a5,-20(s0)
200127f2:	439c                	lw	a5,0(a5)
200127f4:	479c                	lw	a5,8(a5)
200127f6:	fc842583          	lw	a1,-56(s0)
200127fa:	fec42503          	lw	a0,-20(s0)
200127fe:	9782                	jalr	a5
20012800:	fea42223          	sw	a0,-28(s0)
F:/HiFive-IoT/Workspace/sifive-hifive1-revb-hello/freedom-metal/src/drivers/riscv_clint0.c:123
        }
    }
}
20012804:	0001                	nop
20012806:	853e                	mv	a0,a5
20012808:	50f2                	lw	ra,60(sp)
2001280a:	5462                	lw	s0,56(sp)
2001280c:	6121                	addi	sp,sp,64
2001280e:	8082                	ret

20012810 <__metal_driver_riscv_clint0_disable>:
__metal_driver_riscv_clint0_disable():
F:/HiFive-IoT/Workspace/sifive-hifive1-revb-hello/freedom-metal/src/drivers/riscv_clint0.c:126

int __metal_driver_riscv_clint0_disable (struct metal_interrupt *controller, int id)
{
20012810:	7139                	addi	sp,sp,-64
20012812:	de06                	sw	ra,60(sp)
20012814:	dc22                	sw	s0,56(sp)
20012816:	0080                	addi	s0,sp,64
20012818:	fca42623          	sw	a0,-52(s0)
2001281c:	fcb42423          	sw	a1,-56(s0)
F:/HiFive-IoT/Workspace/sifive-hifive1-revb-hello/freedom-metal/src/drivers/riscv_clint0.c:127
    int rc = -1;
20012820:	57fd                	li	a5,-1
20012822:	fef42223          	sw	a5,-28(s0)
F:/HiFive-IoT/Workspace/sifive-hifive1-revb-hello/freedom-metal/src/drivers/riscv_clint0.c:129

    if ( id ) {
20012826:	fc842783          	lw	a5,-56(s0)
2001282a:	cbc1                	beqz	a5,200128ba <__metal_driver_riscv_clint0_disable+0xaa>
F:/HiFive-IoT/Workspace/sifive-hifive1-revb-hello/freedom-metal/src/drivers/riscv_clint0.c:130
        struct metal_interrupt *intc = NULL;
2001282c:	fe042623          	sw	zero,-20(s0)
F:/HiFive-IoT/Workspace/sifive-hifive1-revb-hello/freedom-metal/src/drivers/riscv_clint0.c:131
        struct metal_interrupt *cpu_intc = _get_cpu_intc();
20012830:	3b65                	jal	200125e8 <_get_cpu_intc>
20012832:	fea42023          	sw	a0,-32(s0)
F:/HiFive-IoT/Workspace/sifive-hifive1-revb-hello/freedom-metal/src/drivers/riscv_clint0.c:132
	int num_interrupts = __metal_driver_sifive_clint0_num_interrupts(controller);
20012836:	fcc42503          	lw	a0,-52(s0)
2001283a:	befff0ef          	jal	ra,20012428 <__metal_driver_sifive_clint0_num_interrupts>
2001283e:	fca42e23          	sw	a0,-36(s0)
F:/HiFive-IoT/Workspace/sifive-hifive1-revb-hello/freedom-metal/src/drivers/riscv_clint0.c:134

        for(int i = 0; i < num_interrupts; i++) {
20012842:	fe042423          	sw	zero,-24(s0)
20012846:	a0a1                	j	2001288e <__metal_driver_riscv_clint0_disable+0x7e>
F:/HiFive-IoT/Workspace/sifive-hifive1-revb-hello/freedom-metal/src/drivers/riscv_clint0.c:135
	    int line = __metal_driver_sifive_clint0_interrupt_lines(controller, i);
20012848:	fe842583          	lw	a1,-24(s0)
2001284c:	fcc42503          	lw	a0,-52(s0)
20012850:	c39ff0ef          	jal	ra,20012488 <__metal_driver_sifive_clint0_interrupt_lines>
20012854:	fca42c23          	sw	a0,-40(s0)
F:/HiFive-IoT/Workspace/sifive-hifive1-revb-hello/freedom-metal/src/drivers/riscv_clint0.c:136
	    intc = __metal_driver_sifive_clint0_interrupt_parents(controller, i);
20012858:	fe842583          	lw	a1,-24(s0)
2001285c:	fcc42503          	lw	a0,-52(s0)
20012860:	bedff0ef          	jal	ra,2001244c <__metal_driver_sifive_clint0_interrupt_parents>
20012864:	fea42623          	sw	a0,-20(s0)
F:/HiFive-IoT/Workspace/sifive-hifive1-revb-hello/freedom-metal/src/drivers/riscv_clint0.c:137
            if(cpu_intc == intc && id == line) {
20012868:	fe042703          	lw	a4,-32(s0)
2001286c:	fec42783          	lw	a5,-20(s0)
20012870:	00f71863          	bne	a4,a5,20012880 <__metal_driver_riscv_clint0_disable+0x70>
F:/HiFive-IoT/Workspace/sifive-hifive1-revb-hello/freedom-metal/src/drivers/riscv_clint0.c:137 (discriminator 1)
20012874:	fc842703          	lw	a4,-56(s0)
20012878:	fd842783          	lw	a5,-40(s0)
2001287c:	02f70063          	beq	a4,a5,2001289c <__metal_driver_riscv_clint0_disable+0x8c>
F:/HiFive-IoT/Workspace/sifive-hifive1-revb-hello/freedom-metal/src/drivers/riscv_clint0.c:140 (discriminator 2)
                break;
            }
	    intc = NULL;
20012880:	fe042623          	sw	zero,-20(s0)
F:/HiFive-IoT/Workspace/sifive-hifive1-revb-hello/freedom-metal/src/drivers/riscv_clint0.c:134 (discriminator 2)
        for(int i = 0; i < num_interrupts; i++) {
20012884:	fe842783          	lw	a5,-24(s0)
20012888:	0785                	addi	a5,a5,1
2001288a:	fef42423          	sw	a5,-24(s0)
F:/HiFive-IoT/Workspace/sifive-hifive1-revb-hello/freedom-metal/src/drivers/riscv_clint0.c:134 (discriminator 1)
2001288e:	fe842703          	lw	a4,-24(s0)
20012892:	fdc42783          	lw	a5,-36(s0)
20012896:	faf749e3          	blt	a4,a5,20012848 <__metal_driver_riscv_clint0_disable+0x38>
2001289a:	a011                	j	2001289e <__metal_driver_riscv_clint0_disable+0x8e>
F:/HiFive-IoT/Workspace/sifive-hifive1-revb-hello/freedom-metal/src/drivers/riscv_clint0.c:138
                break;
2001289c:	0001                	nop
F:/HiFive-IoT/Workspace/sifive-hifive1-revb-hello/freedom-metal/src/drivers/riscv_clint0.c:144
        }
        
        /* Disable its interrupts with parent controller */
        if (intc) {
2001289e:	fec42783          	lw	a5,-20(s0)
200128a2:	cf81                	beqz	a5,200128ba <__metal_driver_riscv_clint0_disable+0xaa>
F:/HiFive-IoT/Workspace/sifive-hifive1-revb-hello/freedom-metal/src/drivers/riscv_clint0.c:145
            rc = intc->vtable->interrupt_disable(intc, id);
200128a4:	fec42783          	lw	a5,-20(s0)
200128a8:	439c                	lw	a5,0(a5)
200128aa:	47dc                	lw	a5,12(a5)
200128ac:	fc842583          	lw	a1,-56(s0)
200128b0:	fec42503          	lw	a0,-20(s0)
200128b4:	9782                	jalr	a5
200128b6:	fea42223          	sw	a0,-28(s0)
F:/HiFive-IoT/Workspace/sifive-hifive1-revb-hello/freedom-metal/src/drivers/riscv_clint0.c:148
        }
    }
}
200128ba:	0001                	nop
200128bc:	853e                	mv	a0,a5
200128be:	50f2                	lw	ra,60(sp)
200128c0:	5462                	lw	s0,56(sp)
200128c2:	6121                	addi	sp,sp,64
200128c4:	8082                	ret

200128c6 <__metal_driver_riscv_clint0_command_request>:
__metal_driver_riscv_clint0_command_request():
F:/HiFive-IoT/Workspace/sifive-hifive1-revb-hello/freedom-metal/src/drivers/riscv_clint0.c:152

int __metal_driver_riscv_clint0_command_request (struct metal_interrupt *controller,
                                               int command, void *data)
{
200128c6:	7179                	addi	sp,sp,-48
200128c8:	d606                	sw	ra,44(sp)
200128ca:	d422                	sw	s0,40(sp)
200128cc:	1800                	addi	s0,sp,48
200128ce:	fca42e23          	sw	a0,-36(s0)
200128d2:	fcb42c23          	sw	a1,-40(s0)
200128d6:	fcc42a23          	sw	a2,-44(s0)
F:/HiFive-IoT/Workspace/sifive-hifive1-revb-hello/freedom-metal/src/drivers/riscv_clint0.c:154
    int hartid;
    int rc = -1;
200128da:	57fd                	li	a5,-1
200128dc:	fef42623          	sw	a5,-20(s0)
F:/HiFive-IoT/Workspace/sifive-hifive1-revb-hello/freedom-metal/src/drivers/riscv_clint0.c:155
    struct __metal_driver_riscv_clint0 *clint =
200128e0:	fdc42783          	lw	a5,-36(s0)
200128e4:	fef42423          	sw	a5,-24(s0)
F:/HiFive-IoT/Workspace/sifive-hifive1-revb-hello/freedom-metal/src/drivers/riscv_clint0.c:157
                              (struct __metal_driver_riscv_clint0 *)(controller);
    unsigned long control_base = __metal_driver_sifive_clint0_control_base(controller);
200128e8:	fdc42503          	lw	a0,-36(s0)
200128ec:	b17ff0ef          	jal	ra,20012402 <__metal_driver_sifive_clint0_control_base>
200128f0:	fea42223          	sw	a0,-28(s0)
200128f4:	fd842703          	lw	a4,-40(s0)
200128f8:	4789                	li	a5,2
200128fa:	04f70963          	beq	a4,a5,2001294c <__metal_driver_riscv_clint0_command_request+0x86>
200128fe:	fd842703          	lw	a4,-40(s0)
20012902:	4789                	li	a5,2
20012904:	00e7c863          	blt	a5,a4,20012914 <__metal_driver_riscv_clint0_command_request+0x4e>
20012908:	fd842703          	lw	a4,-40(s0)
2001290c:	4785                	li	a5,1
2001290e:	00f70e63          	beq	a4,a5,2001292a <__metal_driver_riscv_clint0_command_request+0x64>
F:/HiFive-IoT/Workspace/sifive-hifive1-revb-hello/freedom-metal/src/drivers/riscv_clint0.c:203
            rc = __METAL_ACCESS_ONCE((__metal_io_u32 *)(control_base +
						    (hartid * 4)));
        }
        break;
    default:
	break;
20012912:	a8f1                	j	200129ee <__metal_driver_riscv_clint0_command_request+0x128>
20012914:	fd842703          	lw	a4,-40(s0)
20012918:	478d                	li	a5,3
2001291a:	04f70d63          	beq	a4,a5,20012974 <__metal_driver_riscv_clint0_command_request+0xae>
2001291e:	fd842703          	lw	a4,-40(s0)
20012922:	4791                	li	a5,4
20012924:	08f70963          	beq	a4,a5,200129b6 <__metal_driver_riscv_clint0_command_request+0xf0>
20012928:	a0d9                	j	200129ee <__metal_driver_riscv_clint0_command_request+0x128>
F:/HiFive-IoT/Workspace/sifive-hifive1-revb-hello/freedom-metal/src/drivers/riscv_clint0.c:161
        if (data) {
2001292a:	fd442783          	lw	a5,-44(s0)
2001292e:	cbcd                	beqz	a5,200129e0 <__metal_driver_riscv_clint0_command_request+0x11a>
F:/HiFive-IoT/Workspace/sifive-hifive1-revb-hello/freedom-metal/src/drivers/riscv_clint0.c:162
	    *(unsigned long long *)data = __metal_clint0_mtime_get(clint);
20012930:	fe842503          	lw	a0,-24(s0)
20012934:	b85ff0ef          	jal	ra,200124b8 <__metal_clint0_mtime_get>
20012938:	87aa                	mv	a5,a0
2001293a:	882e                	mv	a6,a1
2001293c:	fd442703          	lw	a4,-44(s0)
20012940:	c31c                	sw	a5,0(a4)
20012942:	01072223          	sw	a6,4(a4)
F:/HiFive-IoT/Workspace/sifive-hifive1-revb-hello/freedom-metal/src/drivers/riscv_clint0.c:163
            rc = 0;
20012946:	fe042623          	sw	zero,-20(s0)
F:/HiFive-IoT/Workspace/sifive-hifive1-revb-hello/freedom-metal/src/drivers/riscv_clint0.c:165
        break;
2001294a:	a859                	j	200129e0 <__metal_driver_riscv_clint0_command_request+0x11a>
F:/HiFive-IoT/Workspace/sifive-hifive1-revb-hello/freedom-metal/src/drivers/riscv_clint0.c:167
	if (data) {
2001294c:	fd442783          	lw	a5,-44(s0)
20012950:	cbd1                	beqz	a5,200129e4 <__metal_driver_riscv_clint0_command_request+0x11e>
F:/HiFive-IoT/Workspace/sifive-hifive1-revb-hello/freedom-metal/src/drivers/riscv_clint0.c:168
	    hartid = *(int *)data;
20012952:	fd442783          	lw	a5,-44(s0)
20012956:	439c                	lw	a5,0(a5)
20012958:	fef42023          	sw	a5,-32(s0)
F:/HiFive-IoT/Workspace/sifive-hifive1-revb-hello/freedom-metal/src/drivers/riscv_clint0.c:169
            __METAL_ACCESS_ONCE((__metal_io_u32 *)(control_base +
2001295c:	fe042783          	lw	a5,-32(s0)
20012960:	078a                	slli	a5,a5,0x2
20012962:	873e                	mv	a4,a5
20012964:	fe442783          	lw	a5,-28(s0)
20012968:	97ba                	add	a5,a5,a4
F:/HiFive-IoT/Workspace/sifive-hifive1-revb-hello/freedom-metal/src/drivers/riscv_clint0.c:170
					       (hartid * 4))) = METAL_DISABLE;
2001296a:	0007a023          	sw	zero,0(a5) # 4000 <__heap_size+0x3c00>
F:/HiFive-IoT/Workspace/sifive-hifive1-revb-hello/freedom-metal/src/drivers/riscv_clint0.c:171
            rc = 0;
2001296e:	fe042623          	sw	zero,-20(s0)
F:/HiFive-IoT/Workspace/sifive-hifive1-revb-hello/freedom-metal/src/drivers/riscv_clint0.c:173
        break;
20012972:	a88d                	j	200129e4 <__metal_driver_riscv_clint0_command_request+0x11e>
F:/HiFive-IoT/Workspace/sifive-hifive1-revb-hello/freedom-metal/src/drivers/riscv_clint0.c:175
	if (data) {
20012974:	fd442783          	lw	a5,-44(s0)
20012978:	cba5                	beqz	a5,200129e8 <__metal_driver_riscv_clint0_command_request+0x122>
F:/HiFive-IoT/Workspace/sifive-hifive1-revb-hello/freedom-metal/src/drivers/riscv_clint0.c:176
	    hartid = *(int *)data;
2001297a:	fd442783          	lw	a5,-44(s0)
2001297e:	439c                	lw	a5,0(a5)
20012980:	fef42023          	sw	a5,-32(s0)
F:/HiFive-IoT/Workspace/sifive-hifive1-revb-hello/freedom-metal/src/drivers/riscv_clint0.c:177
            __METAL_ACCESS_ONCE((__metal_io_u32 *)(control_base +
20012984:	fe042783          	lw	a5,-32(s0)
20012988:	078a                	slli	a5,a5,0x2
2001298a:	873e                	mv	a4,a5
2001298c:	fe442783          	lw	a5,-28(s0)
20012990:	97ba                	add	a5,a5,a4
20012992:	873e                	mv	a4,a5
F:/HiFive-IoT/Workspace/sifive-hifive1-revb-hello/freedom-metal/src/drivers/riscv_clint0.c:178
					       (hartid * 4))) = METAL_ENABLE;
20012994:	4785                	li	a5,1
20012996:	c31c                	sw	a5,0(a4)
F:/HiFive-IoT/Workspace/sifive-hifive1-revb-hello/freedom-metal/src/drivers/riscv_clint0.c:188
	    __METAL_IO_FENCE(o,i);
20012998:	0480000f          	fence	o,i
F:/HiFive-IoT/Workspace/sifive-hifive1-revb-hello/freedom-metal/src/drivers/riscv_clint0.c:189
            rc = __METAL_ACCESS_ONCE((__metal_io_u32 *)(control_base +
2001299c:	fe042783          	lw	a5,-32(s0)
200129a0:	078a                	slli	a5,a5,0x2
200129a2:	873e                	mv	a4,a5
200129a4:	fe442783          	lw	a5,-28(s0)
200129a8:	97ba                	add	a5,a5,a4
200129aa:	439c                	lw	a5,0(a5)
200129ac:	fef42623          	sw	a5,-20(s0)
F:/HiFive-IoT/Workspace/sifive-hifive1-revb-hello/freedom-metal/src/drivers/riscv_clint0.c:191
            rc = 0;
200129b0:	fe042623          	sw	zero,-20(s0)
F:/HiFive-IoT/Workspace/sifive-hifive1-revb-hello/freedom-metal/src/drivers/riscv_clint0.c:193
        break;
200129b4:	a815                	j	200129e8 <__metal_driver_riscv_clint0_command_request+0x122>
F:/HiFive-IoT/Workspace/sifive-hifive1-revb-hello/freedom-metal/src/drivers/riscv_clint0.c:195
        rc = 0;
200129b6:	fe042623          	sw	zero,-20(s0)
F:/HiFive-IoT/Workspace/sifive-hifive1-revb-hello/freedom-metal/src/drivers/riscv_clint0.c:196
	if (data) {
200129ba:	fd442783          	lw	a5,-44(s0)
200129be:	c79d                	beqz	a5,200129ec <__metal_driver_riscv_clint0_command_request+0x126>
F:/HiFive-IoT/Workspace/sifive-hifive1-revb-hello/freedom-metal/src/drivers/riscv_clint0.c:197
	    hartid = *(int *)data;
200129c0:	fd442783          	lw	a5,-44(s0)
200129c4:	439c                	lw	a5,0(a5)
200129c6:	fef42023          	sw	a5,-32(s0)
F:/HiFive-IoT/Workspace/sifive-hifive1-revb-hello/freedom-metal/src/drivers/riscv_clint0.c:198
            rc = __METAL_ACCESS_ONCE((__metal_io_u32 *)(control_base +
200129ca:	fe042783          	lw	a5,-32(s0)
200129ce:	078a                	slli	a5,a5,0x2
200129d0:	873e                	mv	a4,a5
200129d2:	fe442783          	lw	a5,-28(s0)
200129d6:	97ba                	add	a5,a5,a4
200129d8:	439c                	lw	a5,0(a5)
200129da:	fef42623          	sw	a5,-20(s0)
F:/HiFive-IoT/Workspace/sifive-hifive1-revb-hello/freedom-metal/src/drivers/riscv_clint0.c:201
        break;
200129de:	a039                	j	200129ec <__metal_driver_riscv_clint0_command_request+0x126>
F:/HiFive-IoT/Workspace/sifive-hifive1-revb-hello/freedom-metal/src/drivers/riscv_clint0.c:165
        break;
200129e0:	0001                	nop
200129e2:	a031                	j	200129ee <__metal_driver_riscv_clint0_command_request+0x128>
F:/HiFive-IoT/Workspace/sifive-hifive1-revb-hello/freedom-metal/src/drivers/riscv_clint0.c:173
        break;
200129e4:	0001                	nop
200129e6:	a021                	j	200129ee <__metal_driver_riscv_clint0_command_request+0x128>
F:/HiFive-IoT/Workspace/sifive-hifive1-revb-hello/freedom-metal/src/drivers/riscv_clint0.c:193
        break;
200129e8:	0001                	nop
200129ea:	a011                	j	200129ee <__metal_driver_riscv_clint0_command_request+0x128>
F:/HiFive-IoT/Workspace/sifive-hifive1-revb-hello/freedom-metal/src/drivers/riscv_clint0.c:201
        break;
200129ec:	0001                	nop
F:/HiFive-IoT/Workspace/sifive-hifive1-revb-hello/freedom-metal/src/drivers/riscv_clint0.c:206
    }

    return rc;
200129ee:	fec42783          	lw	a5,-20(s0)
F:/HiFive-IoT/Workspace/sifive-hifive1-revb-hello/freedom-metal/src/drivers/riscv_clint0.c:207
}
200129f2:	853e                	mv	a0,a5
200129f4:	50b2                	lw	ra,44(sp)
200129f6:	5422                	lw	s0,40(sp)
200129f8:	6145                	addi	sp,sp,48
200129fa:	8082                	ret

200129fc <__metal_driver_cpu_hartid>:
__metal_driver_cpu_hartid():
F:\HiFive-IoT\Workspace\sifive-hifive1-revb-hello\bsp\build\debug/./metal/machine.h:233



/* --------------------- cpu ------------ */
static inline int __metal_driver_cpu_hartid(struct metal_cpu *cpu)
{
200129fc:	1101                	addi	sp,sp,-32
200129fe:	ce22                	sw	s0,28(sp)
20012a00:	1000                	addi	s0,sp,32
20012a02:	fea42623          	sw	a0,-20(s0)
F:\HiFive-IoT\Workspace\sifive-hifive1-revb-hello\bsp\build\debug/./metal/machine.h:234
	if ((uintptr_t)cpu == (uintptr_t)&__metal_dt_cpu_0) {
20012a06:	fec42703          	lw	a4,-20(s0)
20012a0a:	83818793          	addi	a5,gp,-1992 # 800007d0 <__metal_dt_cpu_0>
20012a0e:	00f71463          	bne	a4,a5,20012a16 <__metal_driver_cpu_hartid+0x1a>
F:\HiFive-IoT\Workspace\sifive-hifive1-revb-hello\bsp\build\debug/./metal/machine.h:235
		return 0;
20012a12:	4781                	li	a5,0
20012a14:	a011                	j	20012a18 <__metal_driver_cpu_hartid+0x1c>
F:\HiFive-IoT\Workspace\sifive-hifive1-revb-hello\bsp\build\debug/./metal/machine.h:238
	}
	else {
		return -1;
20012a16:	57fd                	li	a5,-1
F:\HiFive-IoT\Workspace\sifive-hifive1-revb-hello\bsp\build\debug/./metal/machine.h:240
	}
}
20012a18:	853e                	mv	a0,a5
20012a1a:	4472                	lw	s0,28(sp)
20012a1c:	6105                	addi	sp,sp,32
20012a1e:	8082                	ret

20012a20 <__metal_driver_cpu_timebase>:
__metal_driver_cpu_timebase():
F:\HiFive-IoT\Workspace\sifive-hifive1-revb-hello\bsp\build\debug/./metal/machine.h:243

static inline int __metal_driver_cpu_timebase(struct metal_cpu *cpu)
{
20012a20:	1101                	addi	sp,sp,-32
20012a22:	ce22                	sw	s0,28(sp)
20012a24:	1000                	addi	s0,sp,32
20012a26:	fea42623          	sw	a0,-20(s0)
F:\HiFive-IoT\Workspace\sifive-hifive1-revb-hello\bsp\build\debug/./metal/machine.h:244
	if ((uintptr_t)cpu == (uintptr_t)&__metal_dt_cpu_0) {
20012a2a:	fec42703          	lw	a4,-20(s0)
20012a2e:	83818793          	addi	a5,gp,-1992 # 800007d0 <__metal_dt_cpu_0>
20012a32:	00f71763          	bne	a4,a5,20012a40 <__metal_driver_cpu_timebase+0x20>
F:\HiFive-IoT\Workspace\sifive-hifive1-revb-hello\bsp\build\debug/./metal/machine.h:245
		return 1000000;
20012a36:	000f47b7          	lui	a5,0xf4
20012a3a:	24078793          	addi	a5,a5,576 # f4240 <__heap_size+0xf3e40>
20012a3e:	a011                	j	20012a42 <__metal_driver_cpu_timebase+0x22>
F:\HiFive-IoT\Workspace\sifive-hifive1-revb-hello\bsp\build\debug/./metal/machine.h:248
	}
	else {
		return 0;
20012a40:	4781                	li	a5,0
F:\HiFive-IoT\Workspace\sifive-hifive1-revb-hello\bsp\build\debug/./metal/machine.h:250
	}
}
20012a42:	853e                	mv	a0,a5
20012a44:	4472                	lw	s0,28(sp)
20012a46:	6105                	addi	sp,sp,32
20012a48:	8082                	ret

20012a4a <__metal_driver_cpu_interrupt_controller>:
__metal_driver_cpu_interrupt_controller():
F:\HiFive-IoT\Workspace\sifive-hifive1-revb-hello\bsp\build\debug/./metal/machine.h:253

static inline struct metal_interrupt * __metal_driver_cpu_interrupt_controller(struct metal_cpu *cpu)
{
20012a4a:	1101                	addi	sp,sp,-32
20012a4c:	ce22                	sw	s0,28(sp)
20012a4e:	1000                	addi	s0,sp,32
20012a50:	fea42623          	sw	a0,-20(s0)
F:\HiFive-IoT\Workspace\sifive-hifive1-revb-hello\bsp\build\debug/./metal/machine.h:254
	if ((uintptr_t)cpu == (uintptr_t)&__metal_dt_cpu_0) {
20012a54:	fec42703          	lw	a4,-20(s0)
20012a58:	83818793          	addi	a5,gp,-1992 # 800007d0 <__metal_dt_cpu_0>
20012a5c:	00f71763          	bne	a4,a5,20012a6a <__metal_driver_cpu_interrupt_controller+0x20>
F:\HiFive-IoT\Workspace\sifive-hifive1-revb-hello\bsp\build\debug/./metal/machine.h:255
		return &__metal_dt_cpu_0_interrupt_controller.controller;
20012a60:	800007b7          	lui	a5,0x80000
20012a64:	0a078793          	addi	a5,a5,160 # 800000a0 <metal_segment_heap_target_end+0xffffefd4>
20012a68:	a011                	j	20012a6c <__metal_driver_cpu_interrupt_controller+0x22>
F:\HiFive-IoT\Workspace\sifive-hifive1-revb-hello\bsp\build\debug/./metal/machine.h:258
	}
	else {
		return NULL;
20012a6a:	4781                	li	a5,0
F:\HiFive-IoT\Workspace\sifive-hifive1-revb-hello\bsp\build\debug/./metal/machine.h:260
	}
}
20012a6c:	853e                	mv	a0,a5
20012a6e:	4472                	lw	s0,28(sp)
20012a70:	6105                	addi	sp,sp,32
20012a72:	8082                	ret

20012a74 <__metal_driver_cpu_get>:
__metal_driver_cpu_get():
F:/HiFive-IoT/Workspace/sifive-hifive1-revb-hello/freedom-metal/src/drivers/riscv_cpu.c:13

unsigned long long __metal_driver_cpu_mtime_get(struct metal_cpu *cpu);
int __metal_driver_cpu_mtimecmp_set(struct metal_cpu *cpu, unsigned long long time);

struct metal_cpu *__metal_driver_cpu_get(int hartid)
{
20012a74:	1101                	addi	sp,sp,-32
20012a76:	ce22                	sw	s0,28(sp)
20012a78:	1000                	addi	s0,sp,32
20012a7a:	fea42623          	sw	a0,-20(s0)
F:/HiFive-IoT/Workspace/sifive-hifive1-revb-hello/freedom-metal/src/drivers/riscv_cpu.c:14
    if (hartid < __METAL_DT_MAX_HARTS) {
20012a7e:	fec42783          	lw	a5,-20(s0)
20012a82:	00f04a63          	bgtz	a5,20012a96 <__metal_driver_cpu_get+0x22>
F:/HiFive-IoT/Workspace/sifive-hifive1-revb-hello/freedom-metal/src/drivers/riscv_cpu.c:15
        return &(__metal_cpu_table[hartid]->cpu);
20012a86:	fec42703          	lw	a4,-20(s0)
20012a8a:	070a                	slli	a4,a4,0x2
20012a8c:	82418793          	addi	a5,gp,-2012 # 800007bc <__metal_cpu_table>
20012a90:	97ba                	add	a5,a5,a4
20012a92:	439c                	lw	a5,0(a5)
20012a94:	a011                	j	20012a98 <__metal_driver_cpu_get+0x24>
F:/HiFive-IoT/Workspace/sifive-hifive1-revb-hello/freedom-metal/src/drivers/riscv_cpu.c:17
    }
    return (struct metal_cpu *)NULL;
20012a96:	4781                	li	a5,0
F:/HiFive-IoT/Workspace/sifive-hifive1-revb-hello/freedom-metal/src/drivers/riscv_cpu.c:18
}
20012a98:	853e                	mv	a0,a5
20012a9a:	4472                	lw	s0,28(sp)
20012a9c:	6105                	addi	sp,sp,32
20012a9e:	8082                	ret

20012aa0 <__metal_myhart_id>:
__metal_myhart_id():
F:/HiFive-IoT/Workspace/sifive-hifive1-revb-hello/freedom-metal/src/drivers/riscv_cpu.c:21

uintptr_t __metal_myhart_id (void)
{
20012aa0:	1101                	addi	sp,sp,-32
20012aa2:	ce22                	sw	s0,28(sp)
20012aa4:	1000                	addi	s0,sp,32
F:/HiFive-IoT/Workspace/sifive-hifive1-revb-hello/freedom-metal/src/drivers/riscv_cpu.c:23
    uintptr_t myhart;
    asm volatile ("csrr %0, mhartid" : "=r"(myhart));
20012aa6:	f14027f3          	csrr	a5,mhartid
20012aaa:	fef42623          	sw	a5,-20(s0)
F:/HiFive-IoT/Workspace/sifive-hifive1-revb-hello/freedom-metal/src/drivers/riscv_cpu.c:24
    return myhart;
20012aae:	fec42783          	lw	a5,-20(s0)
F:/HiFive-IoT/Workspace/sifive-hifive1-revb-hello/freedom-metal/src/drivers/riscv_cpu.c:25
}
20012ab2:	853e                	mv	a0,a5
20012ab4:	4472                	lw	s0,28(sp)
20012ab6:	6105                	addi	sp,sp,32
20012ab8:	8082                	ret

20012aba <__metal_interrupt_global_enable>:
__metal_interrupt_global_enable():
F:/HiFive-IoT/Workspace/sifive-hifive1-revb-hello/freedom-metal/src/drivers/riscv_cpu.c:35
    for (ptr = base; ptr < (base + size); ptr++){
        *ptr = 0;
    }
}

void __metal_interrupt_global_enable (void) {
20012aba:	1101                	addi	sp,sp,-32
20012abc:	ce22                	sw	s0,28(sp)
20012abe:	1000                	addi	s0,sp,32
F:/HiFive-IoT/Workspace/sifive-hifive1-revb-hello/freedom-metal/src/drivers/riscv_cpu.c:37
    uintptr_t m;
    asm volatile ("csrrs %0, mstatus, %1" : "=r"(m) : "r"(METAL_MIE_INTERRUPT));
20012ac0:	47a1                	li	a5,8
20012ac2:	3007a7f3          	csrrs	a5,mstatus,a5
20012ac6:	fef42623          	sw	a5,-20(s0)
F:/HiFive-IoT/Workspace/sifive-hifive1-revb-hello/freedom-metal/src/drivers/riscv_cpu.c:38
}
20012aca:	0001                	nop
20012acc:	4472                	lw	s0,28(sp)
20012ace:	6105                	addi	sp,sp,32
20012ad0:	8082                	ret

20012ad2 <__metal_interrupt_global_disable>:
__metal_interrupt_global_disable():
F:/HiFive-IoT/Workspace/sifive-hifive1-revb-hello/freedom-metal/src/drivers/riscv_cpu.c:40

void __metal_interrupt_global_disable (void) {
20012ad2:	1101                	addi	sp,sp,-32
20012ad4:	ce22                	sw	s0,28(sp)
20012ad6:	1000                	addi	s0,sp,32
F:/HiFive-IoT/Workspace/sifive-hifive1-revb-hello/freedom-metal/src/drivers/riscv_cpu.c:42
    uintptr_t m;
    asm volatile ("csrrc %0, mstatus, %1" : "=r"(m) : "r"(METAL_MIE_INTERRUPT));
20012ad8:	47a1                	li	a5,8
20012ada:	3007b7f3          	csrrc	a5,mstatus,a5
20012ade:	fef42623          	sw	a5,-20(s0)
F:/HiFive-IoT/Workspace/sifive-hifive1-revb-hello/freedom-metal/src/drivers/riscv_cpu.c:43
}
20012ae2:	0001                	nop
20012ae4:	4472                	lw	s0,28(sp)
20012ae6:	6105                	addi	sp,sp,32
20012ae8:	8082                	ret

20012aea <__metal_interrupt_software_enable>:
__metal_interrupt_software_enable():
F:/HiFive-IoT/Workspace/sifive-hifive1-revb-hello/freedom-metal/src/drivers/riscv_cpu.c:45

void __metal_interrupt_software_enable (void) {
20012aea:	1101                	addi	sp,sp,-32
20012aec:	ce22                	sw	s0,28(sp)
20012aee:	1000                	addi	s0,sp,32
F:/HiFive-IoT/Workspace/sifive-hifive1-revb-hello/freedom-metal/src/drivers/riscv_cpu.c:47
    uintptr_t m;
    asm volatile ("csrrs %0, mie, %1" : "=r"(m) : "r"(METAL_LOCAL_INTERRUPT_SW));
20012af0:	47a1                	li	a5,8
20012af2:	3047a7f3          	csrrs	a5,mie,a5
20012af6:	fef42623          	sw	a5,-20(s0)
F:/HiFive-IoT/Workspace/sifive-hifive1-revb-hello/freedom-metal/src/drivers/riscv_cpu.c:48
}
20012afa:	0001                	nop
20012afc:	4472                	lw	s0,28(sp)
20012afe:	6105                	addi	sp,sp,32
20012b00:	8082                	ret

20012b02 <__metal_interrupt_software_disable>:
__metal_interrupt_software_disable():
F:/HiFive-IoT/Workspace/sifive-hifive1-revb-hello/freedom-metal/src/drivers/riscv_cpu.c:50

void __metal_interrupt_software_disable (void) {
20012b02:	1101                	addi	sp,sp,-32
20012b04:	ce22                	sw	s0,28(sp)
20012b06:	1000                	addi	s0,sp,32
F:/HiFive-IoT/Workspace/sifive-hifive1-revb-hello/freedom-metal/src/drivers/riscv_cpu.c:52
    uintptr_t m;
    asm volatile ("csrrc %0, mie, %1" : "=r"(m) : "r"(METAL_LOCAL_INTERRUPT_SW));
20012b08:	47a1                	li	a5,8
20012b0a:	3047b7f3          	csrrc	a5,mie,a5
20012b0e:	fef42623          	sw	a5,-20(s0)
F:/HiFive-IoT/Workspace/sifive-hifive1-revb-hello/freedom-metal/src/drivers/riscv_cpu.c:53
}
20012b12:	0001                	nop
20012b14:	4472                	lw	s0,28(sp)
20012b16:	6105                	addi	sp,sp,32
20012b18:	8082                	ret

20012b1a <__metal_interrupt_timer_enable>:
__metal_interrupt_timer_enable():
F:/HiFive-IoT/Workspace/sifive-hifive1-revb-hello/freedom-metal/src/drivers/riscv_cpu.c:55

void __metal_interrupt_timer_enable (void) {
20012b1a:	1101                	addi	sp,sp,-32
20012b1c:	ce22                	sw	s0,28(sp)
20012b1e:	1000                	addi	s0,sp,32
F:/HiFive-IoT/Workspace/sifive-hifive1-revb-hello/freedom-metal/src/drivers/riscv_cpu.c:57
    uintptr_t m;
    asm volatile ("csrrs %0, mie, %1" : "=r"(m) : "r"(METAL_LOCAL_INTERRUPT_TMR));
20012b20:	08000793          	li	a5,128
20012b24:	3047a7f3          	csrrs	a5,mie,a5
20012b28:	fef42623          	sw	a5,-20(s0)
F:/HiFive-IoT/Workspace/sifive-hifive1-revb-hello/freedom-metal/src/drivers/riscv_cpu.c:58
}
20012b2c:	0001                	nop
20012b2e:	4472                	lw	s0,28(sp)
20012b30:	6105                	addi	sp,sp,32
20012b32:	8082                	ret

20012b34 <__metal_interrupt_timer_disable>:
__metal_interrupt_timer_disable():
F:/HiFive-IoT/Workspace/sifive-hifive1-revb-hello/freedom-metal/src/drivers/riscv_cpu.c:60

void __metal_interrupt_timer_disable (void) {
20012b34:	1101                	addi	sp,sp,-32
20012b36:	ce22                	sw	s0,28(sp)
20012b38:	1000                	addi	s0,sp,32
F:/HiFive-IoT/Workspace/sifive-hifive1-revb-hello/freedom-metal/src/drivers/riscv_cpu.c:62
    uintptr_t m;
    asm volatile ("csrrc %0, mie, %1" : "=r"(m) : "r"(METAL_LOCAL_INTERRUPT_TMR));
20012b3a:	08000793          	li	a5,128
20012b3e:	3047b7f3          	csrrc	a5,mie,a5
20012b42:	fef42623          	sw	a5,-20(s0)
F:/HiFive-IoT/Workspace/sifive-hifive1-revb-hello/freedom-metal/src/drivers/riscv_cpu.c:63
}
20012b46:	0001                	nop
20012b48:	4472                	lw	s0,28(sp)
20012b4a:	6105                	addi	sp,sp,32
20012b4c:	8082                	ret

20012b4e <__metal_interrupt_external_enable>:
__metal_interrupt_external_enable():
F:/HiFive-IoT/Workspace/sifive-hifive1-revb-hello/freedom-metal/src/drivers/riscv_cpu.c:65

void __metal_interrupt_external_enable (void) {
20012b4e:	1101                	addi	sp,sp,-32
20012b50:	ce22                	sw	s0,28(sp)
20012b52:	1000                	addi	s0,sp,32
F:/HiFive-IoT/Workspace/sifive-hifive1-revb-hello/freedom-metal/src/drivers/riscv_cpu.c:67
    uintptr_t m;
    asm volatile ("csrrs %0, mie, %1" : "=r"(m) : "r"(METAL_LOCAL_INTERRUPT_EXT));
20012b54:	6785                	lui	a5,0x1
20012b56:	80078793          	addi	a5,a5,-2048 # 800 <__heap_size+0x400>
20012b5a:	3047a7f3          	csrrs	a5,mie,a5
20012b5e:	fef42623          	sw	a5,-20(s0)
F:/HiFive-IoT/Workspace/sifive-hifive1-revb-hello/freedom-metal/src/drivers/riscv_cpu.c:68
}
20012b62:	0001                	nop
20012b64:	4472                	lw	s0,28(sp)
20012b66:	6105                	addi	sp,sp,32
20012b68:	8082                	ret

20012b6a <__metal_interrupt_external_disable>:
__metal_interrupt_external_disable():
F:/HiFive-IoT/Workspace/sifive-hifive1-revb-hello/freedom-metal/src/drivers/riscv_cpu.c:70

void __metal_interrupt_external_disable (void) {
20012b6a:	1101                	addi	sp,sp,-32
20012b6c:	ce22                	sw	s0,28(sp)
20012b6e:	1000                	addi	s0,sp,32
F:/HiFive-IoT/Workspace/sifive-hifive1-revb-hello/freedom-metal/src/drivers/riscv_cpu.c:72
    unsigned long m;
    asm volatile ("csrrc %0, mie, %1" : "=r"(m) : "r"(METAL_LOCAL_INTERRUPT_EXT));
20012b70:	6785                	lui	a5,0x1
20012b72:	80078793          	addi	a5,a5,-2048 # 800 <__heap_size+0x400>
20012b76:	3047b7f3          	csrrc	a5,mie,a5
20012b7a:	fef42623          	sw	a5,-20(s0)
F:/HiFive-IoT/Workspace/sifive-hifive1-revb-hello/freedom-metal/src/drivers/riscv_cpu.c:73
}
20012b7e:	0001                	nop
20012b80:	4472                	lw	s0,28(sp)
20012b82:	6105                	addi	sp,sp,32
20012b84:	8082                	ret

20012b86 <__metal_interrupt_local_enable>:
__metal_interrupt_local_enable():
F:/HiFive-IoT/Workspace/sifive-hifive1-revb-hello/freedom-metal/src/drivers/riscv_cpu.c:75

void __metal_interrupt_local_enable (int id) {
20012b86:	7179                	addi	sp,sp,-48
20012b88:	d622                	sw	s0,44(sp)
20012b8a:	1800                	addi	s0,sp,48
20012b8c:	fca42e23          	sw	a0,-36(s0)
F:/HiFive-IoT/Workspace/sifive-hifive1-revb-hello/freedom-metal/src/drivers/riscv_cpu.c:76
    uintptr_t b = 1 << id;
20012b90:	fdc42783          	lw	a5,-36(s0)
20012b94:	4705                	li	a4,1
20012b96:	00f717b3          	sll	a5,a4,a5
20012b9a:	fef42623          	sw	a5,-20(s0)
F:/HiFive-IoT/Workspace/sifive-hifive1-revb-hello/freedom-metal/src/drivers/riscv_cpu.c:78
    uintptr_t m;
    asm volatile ("csrrs %0, mie, %1" : "=r"(m) : "r"(b));
20012b9e:	fec42783          	lw	a5,-20(s0)
20012ba2:	3047a7f3          	csrrs	a5,mie,a5
20012ba6:	fef42423          	sw	a5,-24(s0)
F:/HiFive-IoT/Workspace/sifive-hifive1-revb-hello/freedom-metal/src/drivers/riscv_cpu.c:79
}
20012baa:	0001                	nop
20012bac:	5432                	lw	s0,44(sp)
20012bae:	6145                	addi	sp,sp,48
20012bb0:	8082                	ret

20012bb2 <__metal_interrupt_local_disable>:
__metal_interrupt_local_disable():
F:/HiFive-IoT/Workspace/sifive-hifive1-revb-hello/freedom-metal/src/drivers/riscv_cpu.c:81

void __metal_interrupt_local_disable (int id) {
20012bb2:	7179                	addi	sp,sp,-48
20012bb4:	d622                	sw	s0,44(sp)
20012bb6:	1800                	addi	s0,sp,48
20012bb8:	fca42e23          	sw	a0,-36(s0)
F:/HiFive-IoT/Workspace/sifive-hifive1-revb-hello/freedom-metal/src/drivers/riscv_cpu.c:82
    uintptr_t b = 1 << id;
20012bbc:	fdc42783          	lw	a5,-36(s0)
20012bc0:	4705                	li	a4,1
20012bc2:	00f717b3          	sll	a5,a4,a5
20012bc6:	fef42623          	sw	a5,-20(s0)
F:/HiFive-IoT/Workspace/sifive-hifive1-revb-hello/freedom-metal/src/drivers/riscv_cpu.c:84
    uintptr_t m;
    asm volatile ("csrrc %0, mie, %1" : "=r"(m) : "r"(b));
20012bca:	fec42783          	lw	a5,-20(s0)
20012bce:	3047b7f3          	csrrc	a5,mie,a5
20012bd2:	fef42423          	sw	a5,-24(s0)
F:/HiFive-IoT/Workspace/sifive-hifive1-revb-hello/freedom-metal/src/drivers/riscv_cpu.c:85
}
20012bd6:	0001                	nop
20012bd8:	5432                	lw	s0,44(sp)
20012bda:	6145                	addi	sp,sp,48
20012bdc:	8082                	ret

20012bde <__metal_default_exception_handler>:
__metal_default_exception_handler():
F:/HiFive-IoT/Workspace/sifive-hifive1-revb-hello/freedom-metal/src/drivers/riscv_cpu.c:87

void __metal_default_exception_handler (struct metal_cpu *cpu, int ecode) {
20012bde:	1101                	addi	sp,sp,-32
20012be0:	ce06                	sw	ra,28(sp)
20012be2:	cc22                	sw	s0,24(sp)
20012be4:	1000                	addi	s0,sp,32
20012be6:	fea42623          	sw	a0,-20(s0)
20012bea:	feb42423          	sw	a1,-24(s0)
F:/HiFive-IoT/Workspace/sifive-hifive1-revb-hello/freedom-metal/src/drivers/riscv_cpu.c:88
    metal_shutdown(100);
20012bee:	06400513          	li	a0,100
20012bf2:	039020ef          	jal	ra,2001542a <metal_shutdown>

20012bf6 <__metal_default_interrupt_handler>:
__metal_default_interrupt_handler():
F:/HiFive-IoT/Workspace/sifive-hifive1-revb-hello/freedom-metal/src/drivers/riscv_cpu.c:91
}

void __metal_default_interrupt_handler (int id, void *priv) {
20012bf6:	1101                	addi	sp,sp,-32
20012bf8:	ce06                	sw	ra,28(sp)
20012bfa:	cc22                	sw	s0,24(sp)
20012bfc:	1000                	addi	s0,sp,32
20012bfe:	fea42623          	sw	a0,-20(s0)
20012c02:	feb42423          	sw	a1,-24(s0)
F:/HiFive-IoT/Workspace/sifive-hifive1-revb-hello/freedom-metal/src/drivers/riscv_cpu.c:92
    metal_shutdown(200);
20012c06:	0c800513          	li	a0,200
20012c0a:	021020ef          	jal	ra,2001542a <metal_shutdown>

20012c0e <__metal_default_sw_handler>:
__metal_default_sw_handler():
F:/HiFive-IoT/Workspace/sifive-hifive1-revb-hello/freedom-metal/src/drivers/riscv_cpu.c:95
}

void __metal_default_sw_handler (int id, void *priv) {
20012c0e:	7179                	addi	sp,sp,-48
20012c10:	d606                	sw	ra,44(sp)
20012c12:	d422                	sw	s0,40(sp)
20012c14:	1800                	addi	s0,sp,48
20012c16:	fca42e23          	sw	a0,-36(s0)
20012c1a:	fcb42c23          	sw	a1,-40(s0)
F:/HiFive-IoT/Workspace/sifive-hifive1-revb-hello/freedom-metal/src/drivers/riscv_cpu.c:98
    uintptr_t mcause;
    struct __metal_driver_riscv_cpu_intc *intc;
    struct __metal_driver_cpu *cpu = __metal_cpu_table[__metal_myhart_id()];
20012c1e:	3549                	jal	20012aa0 <__metal_myhart_id>
20012c20:	872a                	mv	a4,a0
20012c22:	070a                	slli	a4,a4,0x2
20012c24:	82418793          	addi	a5,gp,-2012 # 800007bc <__metal_cpu_table>
20012c28:	97ba                	add	a5,a5,a4
20012c2a:	439c                	lw	a5,0(a5)
20012c2c:	fef42623          	sw	a5,-20(s0)
F:/HiFive-IoT/Workspace/sifive-hifive1-revb-hello/freedom-metal/src/drivers/riscv_cpu.c:100

    asm volatile ("csrr %0, mcause" : "=r"(mcause));
20012c30:	342027f3          	csrr	a5,mcause
20012c34:	fef42423          	sw	a5,-24(s0)
F:/HiFive-IoT/Workspace/sifive-hifive1-revb-hello/freedom-metal/src/drivers/riscv_cpu.c:101
    if ( cpu ) {
20012c38:	fec42783          	lw	a5,-20(s0)
20012c3c:	c795                	beqz	a5,20012c68 <__metal_default_sw_handler+0x5a>
F:/HiFive-IoT/Workspace/sifive-hifive1-revb-hello/freedom-metal/src/drivers/riscv_cpu.c:103
        intc = (struct __metal_driver_riscv_cpu_intc *)
	  __metal_driver_cpu_interrupt_controller((struct metal_cpu *)cpu);
20012c3e:	fec42503          	lw	a0,-20(s0)
20012c42:	3521                	jal	20012a4a <__metal_driver_cpu_interrupt_controller>
20012c44:	fea42223          	sw	a0,-28(s0)
F:/HiFive-IoT/Workspace/sifive-hifive1-revb-hello/freedom-metal/src/drivers/riscv_cpu.c:104
        intc->metal_exception_table[mcause & METAL_MCAUSE_CAUSE]((struct metal_cpu *)cpu, id);
20012c48:	fe842783          	lw	a5,-24(s0)
20012c4c:	3ff7f793          	andi	a5,a5,1023
20012c50:	fe442703          	lw	a4,-28(s0)
20012c54:	0e078793          	addi	a5,a5,224
20012c58:	078a                	slli	a5,a5,0x2
20012c5a:	97ba                	add	a5,a5,a4
20012c5c:	479c                	lw	a5,8(a5)
20012c5e:	fdc42583          	lw	a1,-36(s0)
20012c62:	fec42503          	lw	a0,-20(s0)
20012c66:	9782                	jalr	a5
F:/HiFive-IoT/Workspace/sifive-hifive1-revb-hello/freedom-metal/src/drivers/riscv_cpu.c:106
    }
}
20012c68:	0001                	nop
20012c6a:	50b2                	lw	ra,44(sp)
20012c6c:	5422                	lw	s0,40(sp)
20012c6e:	6145                	addi	sp,sp,48
20012c70:	8082                	ret

20012c72 <__metal_default_timer_handler>:
__metal_default_timer_handler():
F:/HiFive-IoT/Workspace/sifive-hifive1-revb-hello/freedom-metal/src/drivers/riscv_cpu.c:108

void __metal_default_timer_handler (int id, void *priv) {
20012c72:	7179                	addi	sp,sp,-48
20012c74:	d606                	sw	ra,44(sp)
20012c76:	d422                	sw	s0,40(sp)
20012c78:	1800                	addi	s0,sp,48
20012c7a:	fca42e23          	sw	a0,-36(s0)
20012c7e:	fcb42c23          	sw	a1,-40(s0)
F:/HiFive-IoT/Workspace/sifive-hifive1-revb-hello/freedom-metal/src/drivers/riscv_cpu.c:109
    struct metal_cpu *cpu = __metal_driver_cpu_get(__metal_myhart_id());
20012c82:	3d39                	jal	20012aa0 <__metal_myhart_id>
20012c84:	87aa                	mv	a5,a0
20012c86:	853e                	mv	a0,a5
20012c88:	33f5                	jal	20012a74 <__metal_driver_cpu_get>
20012c8a:	fea42623          	sw	a0,-20(s0)
F:/HiFive-IoT/Workspace/sifive-hifive1-revb-hello/freedom-metal/src/drivers/riscv_cpu.c:110
    unsigned long long time = __metal_driver_cpu_mtime_get(cpu);
20012c8e:	fec42503          	lw	a0,-20(s0)
20012c92:	01d000ef          	jal	ra,200134ae <__metal_driver_cpu_mtime_get>
20012c96:	fea42023          	sw	a0,-32(s0)
20012c9a:	feb42223          	sw	a1,-28(s0)
F:/HiFive-IoT/Workspace/sifive-hifive1-revb-hello/freedom-metal/src/drivers/riscv_cpu.c:113

    /* Set a 10 cycle timer */
    __metal_driver_cpu_mtimecmp_set(cpu, time + 10);
20012c9e:	fe042783          	lw	a5,-32(s0)
20012ca2:	fe442803          	lw	a6,-28(s0)
20012ca6:	45a9                	li	a1,10
20012ca8:	4601                	li	a2,0
20012caa:	00b786b3          	add	a3,a5,a1
20012cae:	8536                	mv	a0,a3
20012cb0:	00f53533          	sltu	a0,a0,a5
20012cb4:	00c80733          	add	a4,a6,a2
20012cb8:	00e507b3          	add	a5,a0,a4
20012cbc:	873e                	mv	a4,a5
20012cbe:	87b6                	mv	a5,a3
20012cc0:	883a                	mv	a6,a4
20012cc2:	85be                	mv	a1,a5
20012cc4:	8642                	mv	a2,a6
20012cc6:	fec42503          	lw	a0,-20(s0)
20012cca:	053000ef          	jal	ra,2001351c <__metal_driver_cpu_mtimecmp_set>
F:/HiFive-IoT/Workspace/sifive-hifive1-revb-hello/freedom-metal/src/drivers/riscv_cpu.c:114
}
20012cce:	0001                	nop
20012cd0:	50b2                	lw	ra,44(sp)
20012cd2:	5422                	lw	s0,40(sp)
20012cd4:	6145                	addi	sp,sp,48
20012cd6:	8082                	ret
	...

20012d00 <__metal_exception_handler>:
__metal_exception_handler():
F:/HiFive-IoT/Workspace/sifive-hifive1-revb-hello/freedom-metal/src/drivers/riscv_cpu.c:117

void __metal_exception_handler(void) __attribute__((interrupt, aligned(128)));
void __metal_exception_handler (void) {
20012d00:	7119                	addi	sp,sp,-128
20012d02:	de86                	sw	ra,124(sp)
20012d04:	dc96                	sw	t0,120(sp)
20012d06:	da9a                	sw	t1,116(sp)
20012d08:	d89e                	sw	t2,112(sp)
20012d0a:	d6a2                	sw	s0,108(sp)
20012d0c:	d4aa                	sw	a0,104(sp)
20012d0e:	d2ae                	sw	a1,100(sp)
20012d10:	d0b2                	sw	a2,96(sp)
20012d12:	ceb6                	sw	a3,92(sp)
20012d14:	ccba                	sw	a4,88(sp)
20012d16:	cabe                	sw	a5,84(sp)
20012d18:	c8c2                	sw	a6,80(sp)
20012d1a:	c6c6                	sw	a7,76(sp)
20012d1c:	c4f2                	sw	t3,72(sp)
20012d1e:	c2f6                	sw	t4,68(sp)
20012d20:	c0fa                	sw	t5,64(sp)
20012d22:	de7e                	sw	t6,60(sp)
20012d24:	0100                	addi	s0,sp,128
F:/HiFive-IoT/Workspace/sifive-hifive1-revb-hello/freedom-metal/src/drivers/riscv_cpu.c:122
    int id;
    void *priv;
    uintptr_t mcause, mepc, mtval, mtvec;
    struct __metal_driver_riscv_cpu_intc *intc;
    struct __metal_driver_cpu *cpu = __metal_cpu_table[__metal_myhart_id()];
20012d26:	d7bff0ef          	jal	ra,20012aa0 <__metal_myhart_id>
20012d2a:	872a                	mv	a4,a0
20012d2c:	070a                	slli	a4,a4,0x2
20012d2e:	82418793          	addi	a5,gp,-2012 # 800007bc <__metal_cpu_table>
20012d32:	97ba                	add	a5,a5,a4
20012d34:	439c                	lw	a5,0(a5)
20012d36:	faf42623          	sw	a5,-84(s0)
F:/HiFive-IoT/Workspace/sifive-hifive1-revb-hello/freedom-metal/src/drivers/riscv_cpu.c:124

    asm volatile ("csrr %0, mcause" : "=r"(mcause));
20012d3a:	342027f3          	csrr	a5,mcause
20012d3e:	faf42423          	sw	a5,-88(s0)
F:/HiFive-IoT/Workspace/sifive-hifive1-revb-hello/freedom-metal/src/drivers/riscv_cpu.c:125
    asm volatile ("csrr %0, mepc" : "=r"(mepc));
20012d42:	341027f3          	csrr	a5,mepc
20012d46:	faf42223          	sw	a5,-92(s0)
F:/HiFive-IoT/Workspace/sifive-hifive1-revb-hello/freedom-metal/src/drivers/riscv_cpu.c:126
    asm volatile ("csrr %0, mtval" : "=r"(mtval));
20012d4a:	343027f3          	csrr	a5,mtval
20012d4e:	faf42023          	sw	a5,-96(s0)
F:/HiFive-IoT/Workspace/sifive-hifive1-revb-hello/freedom-metal/src/drivers/riscv_cpu.c:127
    asm volatile ("csrr %0, mtvec" : "=r"(mtvec));
20012d52:	305027f3          	csrr	a5,mtvec
20012d56:	f8f42e23          	sw	a5,-100(s0)
F:/HiFive-IoT/Workspace/sifive-hifive1-revb-hello/freedom-metal/src/drivers/riscv_cpu.c:129

    if ( cpu ) {
20012d5a:	fac42783          	lw	a5,-84(s0)
20012d5e:	c7e1                	beqz	a5,20012e26 <__metal_exception_handler+0x126>
F:/HiFive-IoT/Workspace/sifive-hifive1-revb-hello/freedom-metal/src/drivers/riscv_cpu.c:131
        intc = (struct __metal_driver_riscv_cpu_intc *)
	  __metal_driver_cpu_interrupt_controller((struct metal_cpu *)cpu);
20012d60:	fac42503          	lw	a0,-84(s0)
20012d64:	ce7ff0ef          	jal	ra,20012a4a <__metal_driver_cpu_interrupt_controller>
20012d68:	f8a42c23          	sw	a0,-104(s0)
F:/HiFive-IoT/Workspace/sifive-hifive1-revb-hello/freedom-metal/src/drivers/riscv_cpu.c:132
        id = mcause & METAL_MCAUSE_CAUSE;
20012d6c:	fa842783          	lw	a5,-88(s0)
20012d70:	3ff7f793          	andi	a5,a5,1023
20012d74:	f8f42a23          	sw	a5,-108(s0)
F:/HiFive-IoT/Workspace/sifive-hifive1-revb-hello/freedom-metal/src/drivers/riscv_cpu.c:133
        if (mcause & METAL_MCAUSE_INTR) {
20012d78:	fa842783          	lw	a5,-88(s0)
20012d7c:	0807d763          	bgez	a5,20012e0a <__metal_exception_handler+0x10a>
F:/HiFive-IoT/Workspace/sifive-hifive1-revb-hello/freedom-metal/src/drivers/riscv_cpu.c:134
            if ((id < METAL_INTERRUPT_ID_LC0) ||
20012d80:	f9442703          	lw	a4,-108(s0)
20012d84:	47bd                	li	a5,15
20012d86:	00e7d763          	bge	a5,a4,20012d94 <__metal_exception_handler+0x94>
F:/HiFive-IoT/Workspace/sifive-hifive1-revb-hello/freedom-metal/src/drivers/riscv_cpu.c:135 (discriminator 1)
               ((mtvec & METAL_MTVEC_MASK) == METAL_MTVEC_DIRECT)) {
20012d8a:	f9c42783          	lw	a5,-100(s0)
20012d8e:	03f7f793          	andi	a5,a5,63
F:/HiFive-IoT/Workspace/sifive-hifive1-revb-hello/freedom-metal/src/drivers/riscv_cpu.c:134 (discriminator 1)
            if ((id < METAL_INTERRUPT_ID_LC0) ||
20012d92:	ef9d                	bnez	a5,20012dd0 <__metal_exception_handler+0xd0>
F:/HiFive-IoT/Workspace/sifive-hifive1-revb-hello/freedom-metal/src/drivers/riscv_cpu.c:136
                priv = intc->metal_int_table[id].exint_data;
20012d94:	f9842683          	lw	a3,-104(s0)
20012d98:	f9442703          	lw	a4,-108(s0)
20012d9c:	87ba                	mv	a5,a4
20012d9e:	0786                	slli	a5,a5,0x1
20012da0:	97ba                	add	a5,a5,a4
20012da2:	078e                	slli	a5,a5,0x3
20012da4:	97b6                	add	a5,a5,a3
20012da6:	0987a783          	lw	a5,152(a5)
20012daa:	f8f42623          	sw	a5,-116(s0)
F:/HiFive-IoT/Workspace/sifive-hifive1-revb-hello/freedom-metal/src/drivers/riscv_cpu.c:137
                intc->metal_int_table[id].handler(id, priv);
20012dae:	f9842683          	lw	a3,-104(s0)
20012db2:	f9442703          	lw	a4,-108(s0)
20012db6:	87ba                	mv	a5,a4
20012db8:	0786                	slli	a5,a5,0x1
20012dba:	97ba                	add	a5,a5,a4
20012dbc:	078e                	slli	a5,a5,0x3
20012dbe:	97b6                	add	a5,a5,a3
20012dc0:	0907a783          	lw	a5,144(a5)
20012dc4:	f8c42583          	lw	a1,-116(s0)
20012dc8:	f9442503          	lw	a0,-108(s0)
20012dcc:	9782                	jalr	a5
F:/HiFive-IoT/Workspace/sifive-hifive1-revb-hello/freedom-metal/src/drivers/riscv_cpu.c:138
		return;
20012dce:	a8a1                	j	20012e26 <__metal_exception_handler+0x126>
F:/HiFive-IoT/Workspace/sifive-hifive1-revb-hello/freedom-metal/src/drivers/riscv_cpu.c:140
            }
            if ((mtvec & METAL_MTVEC_MASK) == METAL_MTVEC_CLIC) {
20012dd0:	f9c42783          	lw	a5,-100(s0)
20012dd4:	03f7f713          	andi	a4,a5,63
20012dd8:	4789                	li	a5,2
20012dda:	04f71663          	bne	a4,a5,20012e26 <__metal_exception_handler+0x126>
F:/HiFive-IoT/Workspace/sifive-hifive1-revb-hello/freedom-metal/src/drivers/riscv_cpu.c:144
    		uintptr_t mtvt;
    		metal_interrupt_handler_t mtvt_handler;

                asm volatile ("csrr %0, mtvt" : "=r"(mtvt));
20012dde:	307027f3          	csrr	a5,mtvt
20012de2:	f8f42823          	sw	a5,-112(s0)
F:/HiFive-IoT/Workspace/sifive-hifive1-revb-hello/freedom-metal/src/drivers/riscv_cpu.c:145
               	priv = intc->metal_int_table[METAL_INTERRUPT_ID_SW].sub_int;
20012de6:	f9842783          	lw	a5,-104(s0)
20012dea:	0dc7a783          	lw	a5,220(a5)
20012dee:	f8f42623          	sw	a5,-116(s0)
F:/HiFive-IoT/Workspace/sifive-hifive1-revb-hello/freedom-metal/src/drivers/riscv_cpu.c:146
               	mtvt_handler = (metal_interrupt_handler_t)mtvt;
20012df2:	f9042783          	lw	a5,-112(s0)
20012df6:	f8f42423          	sw	a5,-120(s0)
F:/HiFive-IoT/Workspace/sifive-hifive1-revb-hello/freedom-metal/src/drivers/riscv_cpu.c:147
               	mtvt_handler(id, priv);
20012dfa:	f8842783          	lw	a5,-120(s0)
20012dfe:	f8c42583          	lw	a1,-116(s0)
20012e02:	f9442503          	lw	a0,-108(s0)
20012e06:	9782                	jalr	a5
F:/HiFive-IoT/Workspace/sifive-hifive1-revb-hello/freedom-metal/src/drivers/riscv_cpu.c:148
		return;
20012e08:	a839                	j	20012e26 <__metal_exception_handler+0x126>
F:/HiFive-IoT/Workspace/sifive-hifive1-revb-hello/freedom-metal/src/drivers/riscv_cpu.c:151
            }
        } else {
            intc->metal_exception_table[id]((struct metal_cpu *)cpu, id);
20012e0a:	f9842703          	lw	a4,-104(s0)
20012e0e:	f9442783          	lw	a5,-108(s0)
20012e12:	0e078793          	addi	a5,a5,224
20012e16:	078a                	slli	a5,a5,0x2
20012e18:	97ba                	add	a5,a5,a4
20012e1a:	479c                	lw	a5,8(a5)
20012e1c:	f9442583          	lw	a1,-108(s0)
20012e20:	fac42503          	lw	a0,-84(s0)
20012e24:	9782                	jalr	a5
F:/HiFive-IoT/Workspace/sifive-hifive1-revb-hello/freedom-metal/src/drivers/riscv_cpu.c:154
        }
    }
}
20012e26:	50f6                	lw	ra,124(sp)
20012e28:	52e6                	lw	t0,120(sp)
20012e2a:	5356                	lw	t1,116(sp)
20012e2c:	53c6                	lw	t2,112(sp)
20012e2e:	5436                	lw	s0,108(sp)
20012e30:	5526                	lw	a0,104(sp)
20012e32:	5596                	lw	a1,100(sp)
20012e34:	5606                	lw	a2,96(sp)
20012e36:	46f6                	lw	a3,92(sp)
20012e38:	4766                	lw	a4,88(sp)
20012e3a:	47d6                	lw	a5,84(sp)
20012e3c:	4846                	lw	a6,80(sp)
20012e3e:	48b6                	lw	a7,76(sp)
20012e40:	4e26                	lw	t3,72(sp)
20012e42:	4e96                	lw	t4,68(sp)
20012e44:	4f06                	lw	t5,64(sp)
20012e46:	5ff2                	lw	t6,60(sp)
20012e48:	6109                	addi	sp,sp,128
20012e4a:	30200073          	mret
	...

20012e76 <__metal_controller_interrupt_vector>:
__metal_controller_interrupt_vector():
F:/HiFive-IoT/Workspace/sifive-hifive1-revb-hello/freedom-metal/src/drivers/riscv_cpu.c:157

void __metal_controller_interrupt_vector (metal_vector_mode mode, void *vec_table)
{  
20012e76:	7179                	addi	sp,sp,-48
20012e78:	d622                	sw	s0,44(sp)
20012e7a:	1800                	addi	s0,sp,48
20012e7c:	fca42e23          	sw	a0,-36(s0)
20012e80:	fcb42c23          	sw	a1,-40(s0)
F:/HiFive-IoT/Workspace/sifive-hifive1-revb-hello/freedom-metal/src/drivers/riscv_cpu.c:160
    uintptr_t trap_entry, val;

    asm volatile ("csrr %0, mtvec" : "=r"(val));
20012e84:	305027f3          	csrr	a5,mtvec
20012e88:	fef42623          	sw	a5,-20(s0)
F:/HiFive-IoT/Workspace/sifive-hifive1-revb-hello/freedom-metal/src/drivers/riscv_cpu.c:161
    val &= ~(METAL_MTVEC_CLIC_VECTORED | METAL_MTVEC_CLIC_RESERVED);
20012e8c:	fec42783          	lw	a5,-20(s0)
20012e90:	fc07f793          	andi	a5,a5,-64
20012e94:	fef42623          	sw	a5,-20(s0)
F:/HiFive-IoT/Workspace/sifive-hifive1-revb-hello/freedom-metal/src/drivers/riscv_cpu.c:162
    trap_entry = (uintptr_t)vec_table;
20012e98:	fd842783          	lw	a5,-40(s0)
20012e9c:	fef42423          	sw	a5,-24(s0)
20012ea0:	fdc42703          	lw	a4,-36(s0)
20012ea4:	4785                	li	a5,1
20012ea6:	04f70a63          	beq	a4,a5,20012efa <__metal_controller_interrupt_vector+0x84>
20012eaa:	fdc42783          	lw	a5,-36(s0)
20012eae:	cfa9                	beqz	a5,20012f08 <__metal_controller_interrupt_vector+0x92>
20012eb0:	fdc42703          	lw	a4,-36(s0)
20012eb4:	4789                	li	a5,2
20012eb6:	00f70863          	beq	a4,a5,20012ec6 <__metal_controller_interrupt_vector+0x50>
20012eba:	fdc42703          	lw	a4,-36(s0)
20012ebe:	478d                	li	a5,3
20012ec0:	02f70063          	beq	a4,a5,20012ee0 <__metal_controller_interrupt_vector+0x6a>
F:/HiFive-IoT/Workspace/sifive-hifive1-revb-hello/freedom-metal/src/drivers/riscv_cpu.c:180
        break;
    case METAL_DIRECT_MODE:
        asm volatile ("csrw mtvec, %0" :: "r"(trap_entry & ~METAL_MTVEC_CLIC_VECTORED));
        break;
    }
}
20012ec4:	a881                	j	20012f14 <__metal_controller_interrupt_vector+0x9e>
F:/HiFive-IoT/Workspace/sifive-hifive1-revb-hello/freedom-metal/src/drivers/riscv_cpu.c:166
        asm volatile ("csrw mtvt, %0" :: "r"(trap_entry | METAL_MTVEC_CLIC));
20012ec6:	fe842783          	lw	a5,-24(s0)
20012eca:	0027e793          	ori	a5,a5,2
20012ece:	30779073          	csrw	mtvt,a5
F:/HiFive-IoT/Workspace/sifive-hifive1-revb-hello/freedom-metal/src/drivers/riscv_cpu.c:167
        asm volatile ("csrw mtvec, %0" :: "r"(val | METAL_MTVEC_CLIC));
20012ed2:	fec42783          	lw	a5,-20(s0)
20012ed6:	0027e793          	ori	a5,a5,2
20012eda:	30579073          	csrw	mtvec,a5
F:/HiFive-IoT/Workspace/sifive-hifive1-revb-hello/freedom-metal/src/drivers/riscv_cpu.c:168
        break;
20012ede:	a81d                	j	20012f14 <__metal_controller_interrupt_vector+0x9e>
F:/HiFive-IoT/Workspace/sifive-hifive1-revb-hello/freedom-metal/src/drivers/riscv_cpu.c:170
        asm volatile ("csrw mtvt, %0" :: "r"(trap_entry | METAL_MTVEC_CLIC_VECTORED));
20012ee0:	fe842783          	lw	a5,-24(s0)
20012ee4:	0037e793          	ori	a5,a5,3
20012ee8:	30779073          	csrw	mtvt,a5
F:/HiFive-IoT/Workspace/sifive-hifive1-revb-hello/freedom-metal/src/drivers/riscv_cpu.c:171
        asm volatile ("csrw mtvec, %0" :: "r"(val | METAL_MTVEC_CLIC_VECTORED));
20012eec:	fec42783          	lw	a5,-20(s0)
20012ef0:	0037e793          	ori	a5,a5,3
20012ef4:	30579073          	csrw	mtvec,a5
F:/HiFive-IoT/Workspace/sifive-hifive1-revb-hello/freedom-metal/src/drivers/riscv_cpu.c:172
        break;
20012ef8:	a831                	j	20012f14 <__metal_controller_interrupt_vector+0x9e>
F:/HiFive-IoT/Workspace/sifive-hifive1-revb-hello/freedom-metal/src/drivers/riscv_cpu.c:174
        asm volatile ("csrw mtvec, %0" :: "r"(trap_entry | METAL_MTVEC_VECTORED));
20012efa:	fe842783          	lw	a5,-24(s0)
20012efe:	0017e793          	ori	a5,a5,1
20012f02:	30579073          	csrw	mtvec,a5
F:/HiFive-IoT/Workspace/sifive-hifive1-revb-hello/freedom-metal/src/drivers/riscv_cpu.c:175
        break;
20012f06:	a039                	j	20012f14 <__metal_controller_interrupt_vector+0x9e>
F:/HiFive-IoT/Workspace/sifive-hifive1-revb-hello/freedom-metal/src/drivers/riscv_cpu.c:177
        asm volatile ("csrw mtvec, %0" :: "r"(trap_entry & ~METAL_MTVEC_CLIC_VECTORED));
20012f08:	fe842783          	lw	a5,-24(s0)
20012f0c:	9bf1                	andi	a5,a5,-4
20012f0e:	30579073          	csrw	mtvec,a5
F:/HiFive-IoT/Workspace/sifive-hifive1-revb-hello/freedom-metal/src/drivers/riscv_cpu.c:178
        break;
20012f12:	0001                	nop
F:/HiFive-IoT/Workspace/sifive-hifive1-revb-hello/freedom-metal/src/drivers/riscv_cpu.c:180
}
20012f14:	0001                	nop
20012f16:	5432                	lw	s0,44(sp)
20012f18:	6145                	addi	sp,sp,48
20012f1a:	8082                	ret

20012f1c <__metal_valid_interrupt_id>:
__metal_valid_interrupt_id():
F:/HiFive-IoT/Workspace/sifive-hifive1-revb-hello/freedom-metal/src/drivers/riscv_cpu.c:183

int __metal_valid_interrupt_id (int id)
{
20012f1c:	1101                	addi	sp,sp,-32
20012f1e:	ce22                	sw	s0,28(sp)
20012f20:	1000                	addi	s0,sp,32
20012f22:	fea42623          	sw	a0,-20(s0)
F:/HiFive-IoT/Workspace/sifive-hifive1-revb-hello/freedom-metal/src/drivers/riscv_cpu.c:184
    switch (id) {
20012f26:	fec42783          	lw	a5,-20(s0)
20012f2a:	17f5                	addi	a5,a5,-3
20012f2c:	4771                	li	a4,28
20012f2e:	00f76d63          	bltu	a4,a5,20012f48 <__metal_valid_interrupt_id+0x2c>
20012f32:	00279713          	slli	a4,a5,0x2
20012f36:	200167b7          	lui	a5,0x20016
20012f3a:	60878793          	addi	a5,a5,1544 # 20016608 <__metal_driver_vtable_riscv_clint0+0x20>
20012f3e:	97ba                	add	a5,a5,a4
20012f40:	439c                	lw	a5,0(a5)
20012f42:	8782                	jr	a5
F:/HiFive-IoT/Workspace/sifive-hifive1-revb-hello/freedom-metal/src/drivers/riscv_cpu.c:204
    case METAL_INTERRUPT_ID_LC11:
    case METAL_INTERRUPT_ID_LC12:
    case METAL_INTERRUPT_ID_LC13:
    case METAL_INTERRUPT_ID_LC14:
    case METAL_INTERRUPT_ID_LC15:
        return 1;
20012f44:	4785                	li	a5,1
20012f46:	a019                	j	20012f4c <__metal_valid_interrupt_id+0x30>
F:/HiFive-IoT/Workspace/sifive-hifive1-revb-hello/freedom-metal/src/drivers/riscv_cpu.c:206
    default:
        break;
20012f48:	0001                	nop
F:/HiFive-IoT/Workspace/sifive-hifive1-revb-hello/freedom-metal/src/drivers/riscv_cpu.c:209
    }

    return 0;
20012f4a:	4781                	li	a5,0
F:/HiFive-IoT/Workspace/sifive-hifive1-revb-hello/freedom-metal/src/drivers/riscv_cpu.c:210
}
20012f4c:	853e                	mv	a0,a5
20012f4e:	4472                	lw	s0,28(sp)
20012f50:	6105                	addi	sp,sp,32
20012f52:	8082                	ret

20012f54 <__metal_local_interrupt_enable>:
__metal_local_interrupt_enable():
F:/HiFive-IoT/Workspace/sifive-hifive1-revb-hello/freedom-metal/src/drivers/riscv_cpu.c:215

 
int __metal_local_interrupt_enable (struct metal_interrupt *controller,
				  metal_interrupt_id_e id, int enable)
{
20012f54:	7179                	addi	sp,sp,-48
20012f56:	d606                	sw	ra,44(sp)
20012f58:	d422                	sw	s0,40(sp)
20012f5a:	1800                	addi	s0,sp,48
20012f5c:	fca42e23          	sw	a0,-36(s0)
20012f60:	fcb42c23          	sw	a1,-40(s0)
20012f64:	fcc42a23          	sw	a2,-44(s0)
F:/HiFive-IoT/Workspace/sifive-hifive1-revb-hello/freedom-metal/src/drivers/riscv_cpu.c:216
    int rc = 0;
20012f68:	fe042623          	sw	zero,-20(s0)
F:/HiFive-IoT/Workspace/sifive-hifive1-revb-hello/freedom-metal/src/drivers/riscv_cpu.c:218
  
    if ( !controller) {
20012f6c:	fdc42783          	lw	a5,-36(s0)
20012f70:	e399                	bnez	a5,20012f76 <__metal_local_interrupt_enable+0x22>
F:/HiFive-IoT/Workspace/sifive-hifive1-revb-hello/freedom-metal/src/drivers/riscv_cpu.c:219
        return -1;
20012f72:	57fd                	li	a5,-1
20012f74:	a071                	j	20013000 <__metal_local_interrupt_enable+0xac>
F:/HiFive-IoT/Workspace/sifive-hifive1-revb-hello/freedom-metal/src/drivers/riscv_cpu.c:222
    }

    switch (id) {
20012f76:	fd842703          	lw	a4,-40(s0)
20012f7a:	47fd                	li	a5,31
20012f7c:	08e7e063          	bltu	a5,a4,20012ffc <__metal_local_interrupt_enable+0xa8>
20012f80:	fd842783          	lw	a5,-40(s0)
20012f84:	00279713          	slli	a4,a5,0x2
20012f88:	200167b7          	lui	a5,0x20016
20012f8c:	67c78793          	addi	a5,a5,1660 # 2001667c <__metal_driver_vtable_riscv_clint0+0x94>
20012f90:	97ba                	add	a5,a5,a4
20012f92:	439c                	lw	a5,0(a5)
20012f94:	8782                	jr	a5
F:/HiFive-IoT/Workspace/sifive-hifive1-revb-hello/freedom-metal/src/drivers/riscv_cpu.c:224
    case METAL_INTERRUPT_ID_BASE:
        if (enable) {
20012f96:	fd442783          	lw	a5,-44(s0)
20012f9a:	c781                	beqz	a5,20012fa2 <__metal_local_interrupt_enable+0x4e>
F:/HiFive-IoT/Workspace/sifive-hifive1-revb-hello/freedom-metal/src/drivers/riscv_cpu.c:225
            __metal_interrupt_global_enable();
20012f9c:	b1fff0ef          	jal	ra,20012aba <__metal_interrupt_global_enable>
F:/HiFive-IoT/Workspace/sifive-hifive1-revb-hello/freedom-metal/src/drivers/riscv_cpu.c:229
        } else {
            __metal_interrupt_global_disable();
        }
        break;
20012fa0:	a8b1                	j	20012ffc <__metal_local_interrupt_enable+0xa8>
F:/HiFive-IoT/Workspace/sifive-hifive1-revb-hello/freedom-metal/src/drivers/riscv_cpu.c:227
            __metal_interrupt_global_disable();
20012fa2:	b31ff0ef          	jal	ra,20012ad2 <__metal_interrupt_global_disable>
F:/HiFive-IoT/Workspace/sifive-hifive1-revb-hello/freedom-metal/src/drivers/riscv_cpu.c:229
        break;
20012fa6:	a899                	j	20012ffc <__metal_local_interrupt_enable+0xa8>
F:/HiFive-IoT/Workspace/sifive-hifive1-revb-hello/freedom-metal/src/drivers/riscv_cpu.c:231
    case METAL_INTERRUPT_ID_SW:
        if (enable) {
20012fa8:	fd442783          	lw	a5,-44(s0)
20012fac:	c781                	beqz	a5,20012fb4 <__metal_local_interrupt_enable+0x60>
F:/HiFive-IoT/Workspace/sifive-hifive1-revb-hello/freedom-metal/src/drivers/riscv_cpu.c:232
            __metal_interrupt_software_enable();
20012fae:	b3dff0ef          	jal	ra,20012aea <__metal_interrupt_software_enable>
F:/HiFive-IoT/Workspace/sifive-hifive1-revb-hello/freedom-metal/src/drivers/riscv_cpu.c:236
        } else {
            __metal_interrupt_software_disable();
        }
        break;
20012fb2:	a0a9                	j	20012ffc <__metal_local_interrupt_enable+0xa8>
F:/HiFive-IoT/Workspace/sifive-hifive1-revb-hello/freedom-metal/src/drivers/riscv_cpu.c:234
            __metal_interrupt_software_disable();
20012fb4:	b4fff0ef          	jal	ra,20012b02 <__metal_interrupt_software_disable>
F:/HiFive-IoT/Workspace/sifive-hifive1-revb-hello/freedom-metal/src/drivers/riscv_cpu.c:236
        break;
20012fb8:	a091                	j	20012ffc <__metal_local_interrupt_enable+0xa8>
F:/HiFive-IoT/Workspace/sifive-hifive1-revb-hello/freedom-metal/src/drivers/riscv_cpu.c:238
    case METAL_INTERRUPT_ID_TMR:
        if (enable) {
20012fba:	fd442783          	lw	a5,-44(s0)
20012fbe:	c781                	beqz	a5,20012fc6 <__metal_local_interrupt_enable+0x72>
F:/HiFive-IoT/Workspace/sifive-hifive1-revb-hello/freedom-metal/src/drivers/riscv_cpu.c:239
	    __metal_interrupt_timer_enable();
20012fc0:	b5bff0ef          	jal	ra,20012b1a <__metal_interrupt_timer_enable>
F:/HiFive-IoT/Workspace/sifive-hifive1-revb-hello/freedom-metal/src/drivers/riscv_cpu.c:243
	} else {
	    __metal_interrupt_timer_disable();
	}
	break;
20012fc4:	a825                	j	20012ffc <__metal_local_interrupt_enable+0xa8>
F:/HiFive-IoT/Workspace/sifive-hifive1-revb-hello/freedom-metal/src/drivers/riscv_cpu.c:241
	    __metal_interrupt_timer_disable();
20012fc6:	b6fff0ef          	jal	ra,20012b34 <__metal_interrupt_timer_disable>
F:/HiFive-IoT/Workspace/sifive-hifive1-revb-hello/freedom-metal/src/drivers/riscv_cpu.c:243
	break;
20012fca:	a80d                	j	20012ffc <__metal_local_interrupt_enable+0xa8>
F:/HiFive-IoT/Workspace/sifive-hifive1-revb-hello/freedom-metal/src/drivers/riscv_cpu.c:245
    case METAL_INTERRUPT_ID_EXT:
        if (enable) {
20012fcc:	fd442783          	lw	a5,-44(s0)
20012fd0:	c781                	beqz	a5,20012fd8 <__metal_local_interrupt_enable+0x84>
F:/HiFive-IoT/Workspace/sifive-hifive1-revb-hello/freedom-metal/src/drivers/riscv_cpu.c:246
            __metal_interrupt_external_enable();
20012fd2:	b7dff0ef          	jal	ra,20012b4e <__metal_interrupt_external_enable>
F:/HiFive-IoT/Workspace/sifive-hifive1-revb-hello/freedom-metal/src/drivers/riscv_cpu.c:250
        } else {
            __metal_interrupt_external_disable();
        }
        break;
20012fd6:	a01d                	j	20012ffc <__metal_local_interrupt_enable+0xa8>
F:/HiFive-IoT/Workspace/sifive-hifive1-revb-hello/freedom-metal/src/drivers/riscv_cpu.c:248
            __metal_interrupt_external_disable();
20012fd8:	b93ff0ef          	jal	ra,20012b6a <__metal_interrupt_external_disable>
F:/HiFive-IoT/Workspace/sifive-hifive1-revb-hello/freedom-metal/src/drivers/riscv_cpu.c:250
        break;
20012fdc:	a005                	j	20012ffc <__metal_local_interrupt_enable+0xa8>
F:/HiFive-IoT/Workspace/sifive-hifive1-revb-hello/freedom-metal/src/drivers/riscv_cpu.c:267
    case METAL_INTERRUPT_ID_LC11:
    case METAL_INTERRUPT_ID_LC12:
    case METAL_INTERRUPT_ID_LC13:
    case METAL_INTERRUPT_ID_LC14:
    case METAL_INTERRUPT_ID_LC15:
        if (enable) {
20012fde:	fd442783          	lw	a5,-44(s0)
20012fe2:	c799                	beqz	a5,20012ff0 <__metal_local_interrupt_enable+0x9c>
F:/HiFive-IoT/Workspace/sifive-hifive1-revb-hello/freedom-metal/src/drivers/riscv_cpu.c:268
            __metal_interrupt_local_enable(id);
20012fe4:	fd842783          	lw	a5,-40(s0)
20012fe8:	853e                	mv	a0,a5
20012fea:	b9dff0ef          	jal	ra,20012b86 <__metal_interrupt_local_enable>
F:/HiFive-IoT/Workspace/sifive-hifive1-revb-hello/freedom-metal/src/drivers/riscv_cpu.c:272
        } else {
            __metal_interrupt_local_disable(id);
        }
        break;
20012fee:	a031                	j	20012ffa <__metal_local_interrupt_enable+0xa6>
F:/HiFive-IoT/Workspace/sifive-hifive1-revb-hello/freedom-metal/src/drivers/riscv_cpu.c:270
            __metal_interrupt_local_disable(id);
20012ff0:	fd842783          	lw	a5,-40(s0)
20012ff4:	853e                	mv	a0,a5
20012ff6:	bbdff0ef          	jal	ra,20012bb2 <__metal_interrupt_local_disable>
F:/HiFive-IoT/Workspace/sifive-hifive1-revb-hello/freedom-metal/src/drivers/riscv_cpu.c:272
        break;
20012ffa:	0001                	nop
F:/HiFive-IoT/Workspace/sifive-hifive1-revb-hello/freedom-metal/src/drivers/riscv_cpu.c:276
    defaut:
        rc = -1;
    }
    return rc;
20012ffc:	fec42783          	lw	a5,-20(s0)
F:/HiFive-IoT/Workspace/sifive-hifive1-revb-hello/freedom-metal/src/drivers/riscv_cpu.c:277
}
20013000:	853e                	mv	a0,a5
20013002:	50b2                	lw	ra,44(sp)
20013004:	5422                	lw	s0,40(sp)
20013006:	6145                	addi	sp,sp,48
20013008:	8082                	ret

2001300a <__metal_exception_register>:
__metal_exception_register():
F:/HiFive-IoT/Workspace/sifive-hifive1-revb-hello/freedom-metal/src/drivers/riscv_cpu.c:281

int __metal_exception_register (struct metal_interrupt *controller,
                              int ecode, metal_exception_handler_t isr)
{
2001300a:	7179                	addi	sp,sp,-48
2001300c:	d622                	sw	s0,44(sp)
2001300e:	1800                	addi	s0,sp,48
20013010:	fca42e23          	sw	a0,-36(s0)
20013014:	fcb42c23          	sw	a1,-40(s0)
20013018:	fcc42a23          	sw	a2,-44(s0)
F:/HiFive-IoT/Workspace/sifive-hifive1-revb-hello/freedom-metal/src/drivers/riscv_cpu.c:282
    struct __metal_driver_riscv_cpu_intc *intc = (void *)(controller);
2001301c:	fdc42783          	lw	a5,-36(s0)
20013020:	fef42623          	sw	a5,-20(s0)
F:/HiFive-IoT/Workspace/sifive-hifive1-revb-hello/freedom-metal/src/drivers/riscv_cpu.c:284

    if ((ecode < METAL_MAX_EXCEPTION_CODE) && isr) {
20013024:	fd842703          	lw	a4,-40(s0)
20013028:	47ad                	li	a5,11
2001302a:	02e7c263          	blt	a5,a4,2001304e <__metal_exception_register+0x44>
F:/HiFive-IoT/Workspace/sifive-hifive1-revb-hello/freedom-metal/src/drivers/riscv_cpu.c:284 (discriminator 1)
2001302e:	fd442783          	lw	a5,-44(s0)
20013032:	cf91                	beqz	a5,2001304e <__metal_exception_register+0x44>
F:/HiFive-IoT/Workspace/sifive-hifive1-revb-hello/freedom-metal/src/drivers/riscv_cpu.c:285
        intc->metal_exception_table[ecode] = isr;
20013034:	fec42703          	lw	a4,-20(s0)
20013038:	fd842783          	lw	a5,-40(s0)
2001303c:	0e078793          	addi	a5,a5,224
20013040:	078a                	slli	a5,a5,0x2
20013042:	97ba                	add	a5,a5,a4
20013044:	fd442703          	lw	a4,-44(s0)
20013048:	c798                	sw	a4,8(a5)
F:/HiFive-IoT/Workspace/sifive-hifive1-revb-hello/freedom-metal/src/drivers/riscv_cpu.c:286
        return 0;
2001304a:	4781                	li	a5,0
2001304c:	a011                	j	20013050 <__metal_exception_register+0x46>
F:/HiFive-IoT/Workspace/sifive-hifive1-revb-hello/freedom-metal/src/drivers/riscv_cpu.c:288
    }
    return -1;
2001304e:	57fd                	li	a5,-1
F:/HiFive-IoT/Workspace/sifive-hifive1-revb-hello/freedom-metal/src/drivers/riscv_cpu.c:289
}
20013050:	853e                	mv	a0,a5
20013052:	5432                	lw	s0,44(sp)
20013054:	6145                	addi	sp,sp,48
20013056:	8082                	ret

20013058 <__metal_driver_riscv_cpu_controller_interrupt_init>:
__metal_driver_riscv_cpu_controller_interrupt_init():
F:/HiFive-IoT/Workspace/sifive-hifive1-revb-hello/freedom-metal/src/drivers/riscv_cpu.c:292

void __metal_driver_riscv_cpu_controller_interrupt_init (struct metal_interrupt *controller)
{
20013058:	7139                	addi	sp,sp,-64
2001305a:	de06                	sw	ra,60(sp)
2001305c:	dc22                	sw	s0,56(sp)
2001305e:	0080                	addi	s0,sp,64
20013060:	fca42623          	sw	a0,-52(s0)
F:/HiFive-IoT/Workspace/sifive-hifive1-revb-hello/freedom-metal/src/drivers/riscv_cpu.c:293
    struct __metal_driver_riscv_cpu_intc *intc = (void *)(controller);
20013064:	fcc42783          	lw	a5,-52(s0)
20013068:	fef42223          	sw	a5,-28(s0)
F:/HiFive-IoT/Workspace/sifive-hifive1-revb-hello/freedom-metal/src/drivers/riscv_cpu.c:296
    uintptr_t val;

    if ( !intc->init_done ) {
2001306c:	fe442783          	lw	a5,-28(s0)
20013070:	43dc                	lw	a5,4(a5)
20013072:	10079e63          	bnez	a5,2001318e <__metal_driver_riscv_cpu_controller_interrupt_init+0x136>
F:/HiFive-IoT/Workspace/sifive-hifive1-revb-hello/freedom-metal/src/drivers/riscv_cpu.c:298
        /* Disable and clear all interrupt sources */
        asm volatile ("csrc mie, %0" :: "r"(-1));
20013076:	57fd                	li	a5,-1
20013078:	3047b073          	csrc	mie,a5
F:/HiFive-IoT/Workspace/sifive-hifive1-revb-hello/freedom-metal/src/drivers/riscv_cpu.c:299
        asm volatile ("csrc mip, %0" :: "r"(-1));
2001307c:	57fd                	li	a5,-1
2001307e:	3447b073          	csrc	mip,a5
F:/HiFive-IoT/Workspace/sifive-hifive1-revb-hello/freedom-metal/src/drivers/riscv_cpu.c:303

        /* Read the misa CSR to determine if the delegation registers exist */
        uintptr_t misa;
        asm volatile ("csrr %0, misa" : "=r" (misa));
20013082:	301027f3          	csrr	a5,misa
20013086:	fef42023          	sw	a5,-32(s0)
F:/HiFive-IoT/Workspace/sifive-hifive1-revb-hello/freedom-metal/src/drivers/riscv_cpu.c:307

        /* The delegation CSRs exist if user mode interrupts (N extension) or
         * supervisor mode (S extension) are supported */
        if((misa & METAL_ISA_N_EXTENSIONS) || (misa & METAL_ISA_S_EXTENSIONS)) {
2001308a:	fe042703          	lw	a4,-32(s0)
2001308e:	6789                	lui	a5,0x2
20013090:	8ff9                	and	a5,a5,a4
20013092:	e799                	bnez	a5,200130a0 <__metal_driver_riscv_cpu_controller_interrupt_init+0x48>
F:/HiFive-IoT/Workspace/sifive-hifive1-revb-hello/freedom-metal/src/drivers/riscv_cpu.c:307 (discriminator 1)
20013094:	fe042703          	lw	a4,-32(s0)
20013098:	000407b7          	lui	a5,0x40
2001309c:	8ff9                	and	a5,a5,a4
2001309e:	c799                	beqz	a5,200130ac <__metal_driver_riscv_cpu_controller_interrupt_init+0x54>
F:/HiFive-IoT/Workspace/sifive-hifive1-revb-hello/freedom-metal/src/drivers/riscv_cpu.c:309
            /* Disable interrupt and exception delegation */
            asm volatile ("csrc mideleg, %0" :: "r"(-1));
200130a0:	57fd                	li	a5,-1
200130a2:	3037b073          	csrc	mideleg,a5
F:/HiFive-IoT/Workspace/sifive-hifive1-revb-hello/freedom-metal/src/drivers/riscv_cpu.c:310
            asm volatile ("csrc medeleg, %0" :: "r"(-1));
200130a6:	57fd                	li	a5,-1
200130a8:	3027b073          	csrc	medeleg,a5
F:/HiFive-IoT/Workspace/sifive-hifive1-revb-hello/freedom-metal/src/drivers/riscv_cpu.c:314
        }

        /* The satp CSR exists if supervisor mode (S extension) is supported */
        if(misa & METAL_ISA_S_EXTENSIONS) {
200130ac:	fe042703          	lw	a4,-32(s0)
200130b0:	000407b7          	lui	a5,0x40
200130b4:	8ff9                	and	a5,a5,a4
200130b6:	c781                	beqz	a5,200130be <__metal_driver_riscv_cpu_controller_interrupt_init+0x66>
F:/HiFive-IoT/Workspace/sifive-hifive1-revb-hello/freedom-metal/src/drivers/riscv_cpu.c:316
            /* Clear the entire CSR to make sure that satp.MODE = 0 */
            asm volatile ("csrc satp, %0" :: "r"(-1));
200130b8:	57fd                	li	a5,-1
200130ba:	1807b073          	csrc	satp,a5
F:/HiFive-IoT/Workspace/sifive-hifive1-revb-hello/freedom-metal/src/drivers/riscv_cpu.c:320
        }

        /* Default to use direct interrupt, setup sw cb table*/
        for (int i = 0; i < METAL_MAX_MI; i++) {
200130be:	fe042623          	sw	zero,-20(s0)
200130c2:	a0b9                	j	20013110 <__metal_driver_riscv_cpu_controller_interrupt_init+0xb8>
F:/HiFive-IoT/Workspace/sifive-hifive1-revb-hello/freedom-metal/src/drivers/riscv_cpu.c:321 (discriminator 3)
            intc->metal_int_table[i].handler = NULL;
200130c4:	fe442683          	lw	a3,-28(s0)
200130c8:	fec42703          	lw	a4,-20(s0)
200130cc:	87ba                	mv	a5,a4
200130ce:	0786                	slli	a5,a5,0x1
200130d0:	97ba                	add	a5,a5,a4
200130d2:	078e                	slli	a5,a5,0x3
200130d4:	97b6                	add	a5,a5,a3
200130d6:	0807a823          	sw	zero,144(a5) # 40090 <__heap_size+0x3fc90>
F:/HiFive-IoT/Workspace/sifive-hifive1-revb-hello/freedom-metal/src/drivers/riscv_cpu.c:322 (discriminator 3)
            intc->metal_int_table[i].sub_int = NULL;
200130da:	fe442683          	lw	a3,-28(s0)
200130de:	fec42703          	lw	a4,-20(s0)
200130e2:	87ba                	mv	a5,a4
200130e4:	0786                	slli	a5,a5,0x1
200130e6:	97ba                	add	a5,a5,a4
200130e8:	078e                	slli	a5,a5,0x3
200130ea:	97b6                	add	a5,a5,a3
200130ec:	0807aa23          	sw	zero,148(a5)
F:/HiFive-IoT/Workspace/sifive-hifive1-revb-hello/freedom-metal/src/drivers/riscv_cpu.c:323 (discriminator 3)
            intc->metal_int_table[i].exint_data = NULL;
200130f0:	fe442683          	lw	a3,-28(s0)
200130f4:	fec42703          	lw	a4,-20(s0)
200130f8:	87ba                	mv	a5,a4
200130fa:	0786                	slli	a5,a5,0x1
200130fc:	97ba                	add	a5,a5,a4
200130fe:	078e                	slli	a5,a5,0x3
20013100:	97b6                	add	a5,a5,a3
20013102:	0807ac23          	sw	zero,152(a5)
F:/HiFive-IoT/Workspace/sifive-hifive1-revb-hello/freedom-metal/src/drivers/riscv_cpu.c:320 (discriminator 3)
        for (int i = 0; i < METAL_MAX_MI; i++) {
20013106:	fec42783          	lw	a5,-20(s0)
2001310a:	0785                	addi	a5,a5,1
2001310c:	fef42623          	sw	a5,-20(s0)
F:/HiFive-IoT/Workspace/sifive-hifive1-revb-hello/freedom-metal/src/drivers/riscv_cpu.c:320 (discriminator 1)
20013110:	fec42703          	lw	a4,-20(s0)
20013114:	47fd                	li	a5,31
20013116:	fae7d7e3          	bge	a5,a4,200130c4 <__metal_driver_riscv_cpu_controller_interrupt_init+0x6c>
F:/HiFive-IoT/Workspace/sifive-hifive1-revb-hello/freedom-metal/src/drivers/riscv_cpu.c:325
	}
	for (int i = 0; i < METAL_MAX_ME; i++) {
2001311a:	fe042423          	sw	zero,-24(s0)
2001311e:	a01d                	j	20013144 <__metal_driver_riscv_cpu_controller_interrupt_init+0xec>
F:/HiFive-IoT/Workspace/sifive-hifive1-revb-hello/freedom-metal/src/drivers/riscv_cpu.c:326 (discriminator 3)
	    intc->metal_exception_table[i] = __metal_default_exception_handler;
20013120:	fe442703          	lw	a4,-28(s0)
20013124:	fe842783          	lw	a5,-24(s0)
20013128:	0e078793          	addi	a5,a5,224
2001312c:	078a                	slli	a5,a5,0x2
2001312e:	97ba                	add	a5,a5,a4
20013130:	20013737          	lui	a4,0x20013
20013134:	bde70713          	addi	a4,a4,-1058 # 20012bde <__metal_default_exception_handler>
20013138:	c798                	sw	a4,8(a5)
F:/HiFive-IoT/Workspace/sifive-hifive1-revb-hello/freedom-metal/src/drivers/riscv_cpu.c:325 (discriminator 3)
	for (int i = 0; i < METAL_MAX_ME; i++) {
2001313a:	fe842783          	lw	a5,-24(s0)
2001313e:	0785                	addi	a5,a5,1
20013140:	fef42423          	sw	a5,-24(s0)
F:/HiFive-IoT/Workspace/sifive-hifive1-revb-hello/freedom-metal/src/drivers/riscv_cpu.c:325 (discriminator 1)
20013144:	fe842703          	lw	a4,-24(s0)
20013148:	47ad                	li	a5,11
2001314a:	fce7dbe3          	bge	a5,a4,20013120 <__metal_driver_riscv_cpu_controller_interrupt_init+0xc8>
F:/HiFive-IoT/Workspace/sifive-hifive1-revb-hello/freedom-metal/src/drivers/riscv_cpu.c:328
	}
        __metal_controller_interrupt_vector(METAL_DIRECT_MODE, &__metal_exception_handler);
2001314e:	200137b7          	lui	a5,0x20013
20013152:	d0078593          	addi	a1,a5,-768 # 20012d00 <__metal_exception_handler>
20013156:	4501                	li	a0,0
20013158:	d1fff0ef          	jal	ra,20012e76 <__metal_controller_interrupt_vector>
F:/HiFive-IoT/Workspace/sifive-hifive1-revb-hello/freedom-metal/src/drivers/riscv_cpu.c:329
	asm volatile ("csrr %0, misa" : "=r"(val));
2001315c:	301027f3          	csrr	a5,misa
20013160:	fcf42e23          	sw	a5,-36(s0)
F:/HiFive-IoT/Workspace/sifive-hifive1-revb-hello/freedom-metal/src/drivers/riscv_cpu.c:330
	if (val & (METAL_ISA_D_EXTENSIONS | METAL_ISA_F_EXTENSIONS | METAL_ISA_Q_EXTENSIONS)) {
20013164:	fdc42703          	lw	a4,-36(s0)
20013168:	67c1                	lui	a5,0x10
2001316a:	02878793          	addi	a5,a5,40 # 10028 <__heap_size+0xfc28>
2001316e:	8ff9                	and	a5,a5,a4
20013170:	cb99                	beqz	a5,20013186 <__metal_driver_riscv_cpu_controller_interrupt_init+0x12e>
F:/HiFive-IoT/Workspace/sifive-hifive1-revb-hello/freedom-metal/src/drivers/riscv_cpu.c:332
	    /* Floating point architecture, so turn on FP register saving*/
	    asm volatile ("csrr %0, mstatus" : "=r"(val));
20013172:	300027f3          	csrr	a5,mstatus
20013176:	fcf42e23          	sw	a5,-36(s0)
F:/HiFive-IoT/Workspace/sifive-hifive1-revb-hello/freedom-metal/src/drivers/riscv_cpu.c:333
	    asm volatile ("csrw mstatus, %0" :: "r"(val | METAL_MSTATUS_FS_INIT));
2001317a:	fdc42703          	lw	a4,-36(s0)
2001317e:	6789                	lui	a5,0x2
20013180:	8fd9                	or	a5,a5,a4
20013182:	30079073          	csrw	mstatus,a5
F:/HiFive-IoT/Workspace/sifive-hifive1-revb-hello/freedom-metal/src/drivers/riscv_cpu.c:335
	}
	intc->init_done = 1;
20013186:	fe442783          	lw	a5,-28(s0)
2001318a:	4705                	li	a4,1
2001318c:	c3d8                	sw	a4,4(a5)
F:/HiFive-IoT/Workspace/sifive-hifive1-revb-hello/freedom-metal/src/drivers/riscv_cpu.c:337
    }
}
2001318e:	0001                	nop
20013190:	50f2                	lw	ra,60(sp)
20013192:	5462                	lw	s0,56(sp)
20013194:	6121                	addi	sp,sp,64
20013196:	8082                	ret

20013198 <__metal_driver_riscv_cpu_controller_interrupt_register>:
__metal_driver_riscv_cpu_controller_interrupt_register():
F:/HiFive-IoT/Workspace/sifive-hifive1-revb-hello/freedom-metal/src/drivers/riscv_cpu.c:342

int __metal_driver_riscv_cpu_controller_interrupt_register(struct metal_interrupt *controller,
							 int id, metal_interrupt_handler_t isr,
							 void *priv)
{
20013198:	7179                	addi	sp,sp,-48
2001319a:	d606                	sw	ra,44(sp)
2001319c:	d422                	sw	s0,40(sp)
2001319e:	1800                	addi	s0,sp,48
200131a0:	fca42e23          	sw	a0,-36(s0)
200131a4:	fcb42c23          	sw	a1,-40(s0)
200131a8:	fcc42a23          	sw	a2,-44(s0)
200131ac:	fcd42823          	sw	a3,-48(s0)
F:/HiFive-IoT/Workspace/sifive-hifive1-revb-hello/freedom-metal/src/drivers/riscv_cpu.c:343
    int rc = 0;
200131b0:	fe042623          	sw	zero,-20(s0)
F:/HiFive-IoT/Workspace/sifive-hifive1-revb-hello/freedom-metal/src/drivers/riscv_cpu.c:344
    struct __metal_driver_riscv_cpu_intc *intc = (void *)(controller);
200131b4:	fdc42783          	lw	a5,-36(s0)
200131b8:	fef42423          	sw	a5,-24(s0)
F:/HiFive-IoT/Workspace/sifive-hifive1-revb-hello/freedom-metal/src/drivers/riscv_cpu.c:346
 
    if ( !__metal_valid_interrupt_id(id) ) {
200131bc:	fd842503          	lw	a0,-40(s0)
200131c0:	3bb1                	jal	20012f1c <__metal_valid_interrupt_id>
200131c2:	87aa                	mv	a5,a0
200131c4:	e399                	bnez	a5,200131ca <__metal_driver_riscv_cpu_controller_interrupt_register+0x32>
F:/HiFive-IoT/Workspace/sifive-hifive1-revb-hello/freedom-metal/src/drivers/riscv_cpu.c:347
        return -11;
200131c6:	57d5                	li	a5,-11
200131c8:	a239                	j	200132d6 <__metal_driver_riscv_cpu_controller_interrupt_register+0x13e>
F:/HiFive-IoT/Workspace/sifive-hifive1-revb-hello/freedom-metal/src/drivers/riscv_cpu.c:350
    }

    if (isr) {
200131ca:	fd442783          	lw	a5,-44(s0)
200131ce:	cf85                	beqz	a5,20013206 <__metal_driver_riscv_cpu_controller_interrupt_register+0x6e>
F:/HiFive-IoT/Workspace/sifive-hifive1-revb-hello/freedom-metal/src/drivers/riscv_cpu.c:351
        intc->metal_int_table[id].handler = isr;
200131d0:	fe842683          	lw	a3,-24(s0)
200131d4:	fd842703          	lw	a4,-40(s0)
200131d8:	87ba                	mv	a5,a4
200131da:	0786                	slli	a5,a5,0x1
200131dc:	97ba                	add	a5,a5,a4
200131de:	078e                	slli	a5,a5,0x3
200131e0:	97b6                	add	a5,a5,a3
200131e2:	fd442703          	lw	a4,-44(s0)
200131e6:	08e7a823          	sw	a4,144(a5) # 2090 <__heap_size+0x1c90>
F:/HiFive-IoT/Workspace/sifive-hifive1-revb-hello/freedom-metal/src/drivers/riscv_cpu.c:352
        intc->metal_int_table[id].exint_data = priv;
200131ea:	fe842683          	lw	a3,-24(s0)
200131ee:	fd842703          	lw	a4,-40(s0)
200131f2:	87ba                	mv	a5,a4
200131f4:	0786                	slli	a5,a5,0x1
200131f6:	97ba                	add	a5,a5,a4
200131f8:	078e                	slli	a5,a5,0x3
200131fa:	97b6                	add	a5,a5,a3
200131fc:	fd042703          	lw	a4,-48(s0)
20013200:	08e7ac23          	sw	a4,152(a5)
20013204:	a0f9                	j	200132d2 <__metal_driver_riscv_cpu_controller_interrupt_register+0x13a>
F:/HiFive-IoT/Workspace/sifive-hifive1-revb-hello/freedom-metal/src/drivers/riscv_cpu.c:354
    } else {
	switch (id) {
20013206:	fd842783          	lw	a5,-40(s0)
2001320a:	17f5                	addi	a5,a5,-3
2001320c:	4771                	li	a4,28
2001320e:	0cf76263          	bltu	a4,a5,200132d2 <__metal_driver_riscv_cpu_controller_interrupt_register+0x13a>
20013212:	00279713          	slli	a4,a5,0x2
20013216:	200167b7          	lui	a5,0x20016
2001321a:	6fc78793          	addi	a5,a5,1788 # 200166fc <__metal_driver_vtable_riscv_clint0+0x114>
2001321e:	97ba                	add	a5,a5,a4
20013220:	439c                	lw	a5,0(a5)
20013222:	8782                	jr	a5
F:/HiFive-IoT/Workspace/sifive-hifive1-revb-hello/freedom-metal/src/drivers/riscv_cpu.c:356
	case METAL_INTERRUPT_ID_SW:
            intc->metal_int_table[id].handler = __metal_default_sw_handler;
20013224:	fe842683          	lw	a3,-24(s0)
20013228:	fd842703          	lw	a4,-40(s0)
2001322c:	87ba                	mv	a5,a4
2001322e:	0786                	slli	a5,a5,0x1
20013230:	97ba                	add	a5,a5,a4
20013232:	078e                	slli	a5,a5,0x3
20013234:	97b6                	add	a5,a5,a3
20013236:	20013737          	lui	a4,0x20013
2001323a:	c0e70713          	addi	a4,a4,-1010 # 20012c0e <__metal_default_sw_handler>
2001323e:	08e7a823          	sw	a4,144(a5)
F:/HiFive-IoT/Workspace/sifive-hifive1-revb-hello/freedom-metal/src/drivers/riscv_cpu.c:357
            intc->metal_int_table[id].sub_int = priv;
20013242:	fe842683          	lw	a3,-24(s0)
20013246:	fd842703          	lw	a4,-40(s0)
2001324a:	87ba                	mv	a5,a4
2001324c:	0786                	slli	a5,a5,0x1
2001324e:	97ba                	add	a5,a5,a4
20013250:	078e                	slli	a5,a5,0x3
20013252:	97b6                	add	a5,a5,a3
20013254:	fd042703          	lw	a4,-48(s0)
20013258:	08e7aa23          	sw	a4,148(a5)
F:/HiFive-IoT/Workspace/sifive-hifive1-revb-hello/freedom-metal/src/drivers/riscv_cpu.c:358
	  break;
2001325c:	a89d                	j	200132d2 <__metal_driver_riscv_cpu_controller_interrupt_register+0x13a>
F:/HiFive-IoT/Workspace/sifive-hifive1-revb-hello/freedom-metal/src/drivers/riscv_cpu.c:360
	case METAL_INTERRUPT_ID_TMR:
            intc->metal_int_table[id].handler = __metal_default_timer_handler;
2001325e:	fe842683          	lw	a3,-24(s0)
20013262:	fd842703          	lw	a4,-40(s0)
20013266:	87ba                	mv	a5,a4
20013268:	0786                	slli	a5,a5,0x1
2001326a:	97ba                	add	a5,a5,a4
2001326c:	078e                	slli	a5,a5,0x3
2001326e:	97b6                	add	a5,a5,a3
20013270:	20013737          	lui	a4,0x20013
20013274:	c7270713          	addi	a4,a4,-910 # 20012c72 <__metal_default_timer_handler>
20013278:	08e7a823          	sw	a4,144(a5)
F:/HiFive-IoT/Workspace/sifive-hifive1-revb-hello/freedom-metal/src/drivers/riscv_cpu.c:361
            intc->metal_int_table[id].sub_int = priv;
2001327c:	fe842683          	lw	a3,-24(s0)
20013280:	fd842703          	lw	a4,-40(s0)
20013284:	87ba                	mv	a5,a4
20013286:	0786                	slli	a5,a5,0x1
20013288:	97ba                	add	a5,a5,a4
2001328a:	078e                	slli	a5,a5,0x3
2001328c:	97b6                	add	a5,a5,a3
2001328e:	fd042703          	lw	a4,-48(s0)
20013292:	08e7aa23          	sw	a4,148(a5)
F:/HiFive-IoT/Workspace/sifive-hifive1-revb-hello/freedom-metal/src/drivers/riscv_cpu.c:362
	  break;
20013296:	a835                	j	200132d2 <__metal_driver_riscv_cpu_controller_interrupt_register+0x13a>
F:/HiFive-IoT/Workspace/sifive-hifive1-revb-hello/freedom-metal/src/drivers/riscv_cpu.c:380
	case METAL_INTERRUPT_ID_LC11:
	case METAL_INTERRUPT_ID_LC12:
	case METAL_INTERRUPT_ID_LC13:
	case METAL_INTERRUPT_ID_LC14:
	case METAL_INTERRUPT_ID_LC15:
            intc->metal_int_table[id].handler = __metal_default_interrupt_handler;
20013298:	fe842683          	lw	a3,-24(s0)
2001329c:	fd842703          	lw	a4,-40(s0)
200132a0:	87ba                	mv	a5,a4
200132a2:	0786                	slli	a5,a5,0x1
200132a4:	97ba                	add	a5,a5,a4
200132a6:	078e                	slli	a5,a5,0x3
200132a8:	97b6                	add	a5,a5,a3
200132aa:	20013737          	lui	a4,0x20013
200132ae:	bf670713          	addi	a4,a4,-1034 # 20012bf6 <__metal_default_interrupt_handler>
200132b2:	08e7a823          	sw	a4,144(a5)
F:/HiFive-IoT/Workspace/sifive-hifive1-revb-hello/freedom-metal/src/drivers/riscv_cpu.c:381
            intc->metal_int_table[id].sub_int = priv;
200132b6:	fe842683          	lw	a3,-24(s0)
200132ba:	fd842703          	lw	a4,-40(s0)
200132be:	87ba                	mv	a5,a4
200132c0:	0786                	slli	a5,a5,0x1
200132c2:	97ba                	add	a5,a5,a4
200132c4:	078e                	slli	a5,a5,0x3
200132c6:	97b6                	add	a5,a5,a3
200132c8:	fd042703          	lw	a4,-48(s0)
200132cc:	08e7aa23          	sw	a4,148(a5)
F:/HiFive-IoT/Workspace/sifive-hifive1-revb-hello/freedom-metal/src/drivers/riscv_cpu.c:382
	  break;
200132d0:	0001                	nop
F:/HiFive-IoT/Workspace/sifive-hifive1-revb-hello/freedom-metal/src/drivers/riscv_cpu.c:387
	defaut:
	  rc = -12;
	}
    }
    return rc;
200132d2:	fec42783          	lw	a5,-20(s0)
F:/HiFive-IoT/Workspace/sifive-hifive1-revb-hello/freedom-metal/src/drivers/riscv_cpu.c:388
}
200132d6:	853e                	mv	a0,a5
200132d8:	50b2                	lw	ra,44(sp)
200132da:	5422                	lw	s0,40(sp)
200132dc:	6145                	addi	sp,sp,48
200132de:	8082                	ret

200132e0 <__metal_driver_riscv_cpu_controller_interrupt_enable>:
__metal_driver_riscv_cpu_controller_interrupt_enable():
F:/HiFive-IoT/Workspace/sifive-hifive1-revb-hello/freedom-metal/src/drivers/riscv_cpu.c:392

int __metal_driver_riscv_cpu_controller_interrupt_enable (struct metal_interrupt *controller,
                                                        int id)
{
200132e0:	1101                	addi	sp,sp,-32
200132e2:	ce06                	sw	ra,28(sp)
200132e4:	cc22                	sw	s0,24(sp)
200132e6:	1000                	addi	s0,sp,32
200132e8:	fea42623          	sw	a0,-20(s0)
200132ec:	feb42423          	sw	a1,-24(s0)
F:/HiFive-IoT/Workspace/sifive-hifive1-revb-hello/freedom-metal/src/drivers/riscv_cpu.c:393
    return __metal_local_interrupt_enable(controller, id, METAL_ENABLE);
200132f0:	fe842783          	lw	a5,-24(s0)
200132f4:	4605                	li	a2,1
200132f6:	85be                	mv	a1,a5
200132f8:	fec42503          	lw	a0,-20(s0)
200132fc:	c59ff0ef          	jal	ra,20012f54 <__metal_local_interrupt_enable>
20013300:	87aa                	mv	a5,a0
F:/HiFive-IoT/Workspace/sifive-hifive1-revb-hello/freedom-metal/src/drivers/riscv_cpu.c:394
}
20013302:	853e                	mv	a0,a5
20013304:	40f2                	lw	ra,28(sp)
20013306:	4462                	lw	s0,24(sp)
20013308:	6105                	addi	sp,sp,32
2001330a:	8082                	ret

2001330c <__metal_driver_riscv_cpu_controller_interrupt_disable>:
__metal_driver_riscv_cpu_controller_interrupt_disable():
F:/HiFive-IoT/Workspace/sifive-hifive1-revb-hello/freedom-metal/src/drivers/riscv_cpu.c:398

int __metal_driver_riscv_cpu_controller_interrupt_disable (struct metal_interrupt *controller,
                                                         int id)
{   
2001330c:	1101                	addi	sp,sp,-32
2001330e:	ce06                	sw	ra,28(sp)
20013310:	cc22                	sw	s0,24(sp)
20013312:	1000                	addi	s0,sp,32
20013314:	fea42623          	sw	a0,-20(s0)
20013318:	feb42423          	sw	a1,-24(s0)
F:/HiFive-IoT/Workspace/sifive-hifive1-revb-hello/freedom-metal/src/drivers/riscv_cpu.c:399
    return __metal_local_interrupt_enable(controller, id, METAL_DISABLE);
2001331c:	fe842783          	lw	a5,-24(s0)
20013320:	4601                	li	a2,0
20013322:	85be                	mv	a1,a5
20013324:	fec42503          	lw	a0,-20(s0)
20013328:	c2dff0ef          	jal	ra,20012f54 <__metal_local_interrupt_enable>
2001332c:	87aa                	mv	a5,a0
F:/HiFive-IoT/Workspace/sifive-hifive1-revb-hello/freedom-metal/src/drivers/riscv_cpu.c:400
}
2001332e:	853e                	mv	a0,a5
20013330:	40f2                	lw	ra,28(sp)
20013332:	4462                	lw	s0,24(sp)
20013334:	6105                	addi	sp,sp,32
20013336:	8082                	ret

20013338 <__metal_driver_riscv_cpu_controller_interrupt_enable_vector>:
__metal_driver_riscv_cpu_controller_interrupt_enable_vector():
F:/HiFive-IoT/Workspace/sifive-hifive1-revb-hello/freedom-metal/src/drivers/riscv_cpu.c:404

int __metal_driver_riscv_cpu_controller_interrupt_enable_vector(struct metal_interrupt *controller,
                                                             int id, metal_vector_mode mode)
{
20013338:	7179                	addi	sp,sp,-48
2001333a:	d606                	sw	ra,44(sp)
2001333c:	d422                	sw	s0,40(sp)
2001333e:	1800                	addi	s0,sp,48
20013340:	fca42e23          	sw	a0,-36(s0)
20013344:	fcb42c23          	sw	a1,-40(s0)
20013348:	fcc42a23          	sw	a2,-44(s0)
F:/HiFive-IoT/Workspace/sifive-hifive1-revb-hello/freedom-metal/src/drivers/riscv_cpu.c:405
    struct __metal_driver_riscv_cpu_intc *intc = (void *)(controller);
2001334c:	fdc42783          	lw	a5,-36(s0)
20013350:	fef42623          	sw	a5,-20(s0)
F:/HiFive-IoT/Workspace/sifive-hifive1-revb-hello/freedom-metal/src/drivers/riscv_cpu.c:407

    if (id == METAL_INTERRUPT_ID_BASE) {
20013354:	fd842783          	lw	a5,-40(s0)
20013358:	ef8d                	bnez	a5,20013392 <__metal_driver_riscv_cpu_controller_interrupt_enable_vector+0x5a>
F:/HiFive-IoT/Workspace/sifive-hifive1-revb-hello/freedom-metal/src/drivers/riscv_cpu.c:408
        if (mode == METAL_DIRECT_MODE) {
2001335a:	fd442783          	lw	a5,-44(s0)
2001335e:	eb99                	bnez	a5,20013374 <__metal_driver_riscv_cpu_controller_interrupt_enable_vector+0x3c>
F:/HiFive-IoT/Workspace/sifive-hifive1-revb-hello/freedom-metal/src/drivers/riscv_cpu.c:409
            __metal_controller_interrupt_vector(mode, &__metal_exception_handler);
20013360:	200137b7          	lui	a5,0x20013
20013364:	d0078593          	addi	a1,a5,-768 # 20012d00 <__metal_exception_handler>
20013368:	fd442503          	lw	a0,-44(s0)
2001336c:	b0bff0ef          	jal	ra,20012e76 <__metal_controller_interrupt_vector>
F:/HiFive-IoT/Workspace/sifive-hifive1-revb-hello/freedom-metal/src/drivers/riscv_cpu.c:410
            return 0;
20013370:	4781                	li	a5,0
20013372:	a00d                	j	20013394 <__metal_driver_riscv_cpu_controller_interrupt_enable_vector+0x5c>
F:/HiFive-IoT/Workspace/sifive-hifive1-revb-hello/freedom-metal/src/drivers/riscv_cpu.c:412
        }   
        if (mode == METAL_VECTOR_MODE) {
20013374:	fd442703          	lw	a4,-44(s0)
20013378:	4785                	li	a5,1
2001337a:	00f71c63          	bne	a4,a5,20013392 <__metal_driver_riscv_cpu_controller_interrupt_enable_vector+0x5a>
F:/HiFive-IoT/Workspace/sifive-hifive1-revb-hello/freedom-metal/src/drivers/riscv_cpu.c:413
            __metal_controller_interrupt_vector(mode, &intc->metal_mtvec_table);
2001337e:	fec42783          	lw	a5,-20(s0)
20013382:	07a1                	addi	a5,a5,8
20013384:	85be                	mv	a1,a5
20013386:	fd442503          	lw	a0,-44(s0)
2001338a:	aedff0ef          	jal	ra,20012e76 <__metal_controller_interrupt_vector>
F:/HiFive-IoT/Workspace/sifive-hifive1-revb-hello/freedom-metal/src/drivers/riscv_cpu.c:414
            return 0;
2001338e:	4781                	li	a5,0
20013390:	a011                	j	20013394 <__metal_driver_riscv_cpu_controller_interrupt_enable_vector+0x5c>
F:/HiFive-IoT/Workspace/sifive-hifive1-revb-hello/freedom-metal/src/drivers/riscv_cpu.c:417
        }
    }
    return -1;
20013392:	57fd                	li	a5,-1
F:/HiFive-IoT/Workspace/sifive-hifive1-revb-hello/freedom-metal/src/drivers/riscv_cpu.c:418
}
20013394:	853e                	mv	a0,a5
20013396:	50b2                	lw	ra,44(sp)
20013398:	5422                	lw	s0,40(sp)
2001339a:	6145                	addi	sp,sp,48
2001339c:	8082                	ret

2001339e <__metal_driver_riscv_cpu_controller_interrupt_disable_vector>:
__metal_driver_riscv_cpu_controller_interrupt_disable_vector():
F:/HiFive-IoT/Workspace/sifive-hifive1-revb-hello/freedom-metal/src/drivers/riscv_cpu.c:422

int __metal_driver_riscv_cpu_controller_interrupt_disable_vector(struct metal_interrupt *controller,
                                                              int id)
{
2001339e:	7179                	addi	sp,sp,-48
200133a0:	d606                	sw	ra,44(sp)
200133a2:	d422                	sw	s0,40(sp)
200133a4:	1800                	addi	s0,sp,48
200133a6:	fca42e23          	sw	a0,-36(s0)
200133aa:	fcb42c23          	sw	a1,-40(s0)
F:/HiFive-IoT/Workspace/sifive-hifive1-revb-hello/freedom-metal/src/drivers/riscv_cpu.c:423
    struct __metal_driver_riscv_cpu_intc *intc = (void *)(controller);
200133ae:	fdc42783          	lw	a5,-36(s0)
200133b2:	fef42623          	sw	a5,-20(s0)
F:/HiFive-IoT/Workspace/sifive-hifive1-revb-hello/freedom-metal/src/drivers/riscv_cpu.c:425

    if (id == METAL_INTERRUPT_ID_BASE) {
200133b6:	fd842783          	lw	a5,-40(s0)
200133ba:	eb91                	bnez	a5,200133ce <__metal_driver_riscv_cpu_controller_interrupt_disable_vector+0x30>
F:/HiFive-IoT/Workspace/sifive-hifive1-revb-hello/freedom-metal/src/drivers/riscv_cpu.c:426
        __metal_controller_interrupt_vector(METAL_DIRECT_MODE, &__metal_exception_handler);
200133bc:	200137b7          	lui	a5,0x20013
200133c0:	d0078593          	addi	a1,a5,-768 # 20012d00 <__metal_exception_handler>
200133c4:	4501                	li	a0,0
200133c6:	ab1ff0ef          	jal	ra,20012e76 <__metal_controller_interrupt_vector>
F:/HiFive-IoT/Workspace/sifive-hifive1-revb-hello/freedom-metal/src/drivers/riscv_cpu.c:427
        return 0;
200133ca:	4781                	li	a5,0
200133cc:	a011                	j	200133d0 <__metal_driver_riscv_cpu_controller_interrupt_disable_vector+0x32>
F:/HiFive-IoT/Workspace/sifive-hifive1-revb-hello/freedom-metal/src/drivers/riscv_cpu.c:429
    }
    return -1;
200133ce:	57fd                	li	a5,-1
F:/HiFive-IoT/Workspace/sifive-hifive1-revb-hello/freedom-metal/src/drivers/riscv_cpu.c:430
}
200133d0:	853e                	mv	a0,a5
200133d2:	50b2                	lw	ra,44(sp)
200133d4:	5422                	lw	s0,40(sp)
200133d6:	6145                	addi	sp,sp,48
200133d8:	8082                	ret

200133da <__metal_driver_riscv_cpu_controller_command_request>:
__metal_driver_riscv_cpu_controller_command_request():
F:/HiFive-IoT/Workspace/sifive-hifive1-revb-hello/freedom-metal/src/drivers/riscv_cpu.c:434

int __metal_driver_riscv_cpu_controller_command_request (struct metal_interrupt *controller,
						       int cmd, void *data)
{
200133da:	1101                	addi	sp,sp,-32
200133dc:	ce22                	sw	s0,28(sp)
200133de:	1000                	addi	s0,sp,32
200133e0:	fea42623          	sw	a0,-20(s0)
200133e4:	feb42423          	sw	a1,-24(s0)
200133e8:	fec42223          	sw	a2,-28(s0)
F:/HiFive-IoT/Workspace/sifive-hifive1-revb-hello/freedom-metal/src/drivers/riscv_cpu.c:436
    /* NOP for now, unless local interrupt lines the like of clic, clint, plic */
    return 0;
200133ec:	4781                	li	a5,0
F:/HiFive-IoT/Workspace/sifive-hifive1-revb-hello/freedom-metal/src/drivers/riscv_cpu.c:437
}
200133ee:	853e                	mv	a0,a5
200133f0:	4472                	lw	s0,28(sp)
200133f2:	6105                	addi	sp,sp,32
200133f4:	8082                	ret

200133f6 <__metal_driver_cpu_timer_get>:
__metal_driver_cpu_timer_get():
F:/HiFive-IoT/Workspace/sifive-hifive1-revb-hello/freedom-metal/src/drivers/riscv_cpu.c:444
extern inline int __metal_controller_interrupt_is_selective_vectored(void);

/* CPU driver !!! */

unsigned long long __metal_driver_cpu_timer_get(struct metal_cpu *cpu)
{
200133f6:	7139                	addi	sp,sp,-64
200133f8:	de22                	sw	s0,60(sp)
200133fa:	0080                	addi	s0,sp,64
200133fc:	fca42623          	sw	a0,-52(s0)
F:/HiFive-IoT/Workspace/sifive-hifive1-revb-hello/freedom-metal/src/drivers/riscv_cpu.c:445
    unsigned long long val = 0;
20013400:	4301                	li	t1,0
20013402:	4381                	li	t2,0
20013404:	fe642423          	sw	t1,-24(s0)
20013408:	fe742623          	sw	t2,-20(s0)
F:/HiFive-IoT/Workspace/sifive-hifive1-revb-hello/freedom-metal/src/drivers/riscv_cpu.c:450

#if __riscv_xlen == 32
    unsigned long hi, hi1, lo;

    asm volatile ("csrr %0, mcycleh" : "=r"(hi));
2001340c:	b8002573          	csrr	a0,mcycleh
20013410:	fea42223          	sw	a0,-28(s0)
F:/HiFive-IoT/Workspace/sifive-hifive1-revb-hello/freedom-metal/src/drivers/riscv_cpu.c:451
    asm volatile ("csrr %0, mcycle" : "=r"(lo));
20013414:	b0002573          	csrr	a0,mcycle
20013418:	fea42023          	sw	a0,-32(s0)
F:/HiFive-IoT/Workspace/sifive-hifive1-revb-hello/freedom-metal/src/drivers/riscv_cpu.c:452
    asm volatile ("csrr %0, mcycleh" : "=r"(hi1));
2001341c:	b8002573          	csrr	a0,mcycleh
20013420:	fca42e23          	sw	a0,-36(s0)
F:/HiFive-IoT/Workspace/sifive-hifive1-revb-hello/freedom-metal/src/drivers/riscv_cpu.c:453
    if (hi == hi1) {
20013424:	fe442883          	lw	a7,-28(s0)
20013428:	fdc42503          	lw	a0,-36(s0)
2001342c:	02a89563          	bne	a7,a0,20013456 <__metal_driver_cpu_timer_get+0x60>
F:/HiFive-IoT/Workspace/sifive-hifive1-revb-hello/freedom-metal/src/drivers/riscv_cpu.c:454
        val = ((unsigned long long)hi << 32) | lo;
20013430:	fe442503          	lw	a0,-28(s0)
20013434:	85aa                	mv	a1,a0
20013436:	4601                	li	a2,0
20013438:	00059813          	slli	a6,a1,0x0
2001343c:	4781                	li	a5,0
2001343e:	fe042603          	lw	a2,-32(s0)
20013442:	86b2                	mv	a3,a2
20013444:	4701                	li	a4,0
20013446:	00d7e633          	or	a2,a5,a3
2001344a:	fec42423          	sw	a2,-24(s0)
2001344e:	00e867b3          	or	a5,a6,a4
20013452:	fef42623          	sw	a5,-20(s0)
F:/HiFive-IoT/Workspace/sifive-hifive1-revb-hello/freedom-metal/src/drivers/riscv_cpu.c:460
    }
#else
    asm volatile ("csrr %0, mcycle" : "=r"(val));
#endif

    return val;
20013456:	fe842783          	lw	a5,-24(s0)
2001345a:	fec42803          	lw	a6,-20(s0)
F:/HiFive-IoT/Workspace/sifive-hifive1-revb-hello/freedom-metal/src/drivers/riscv_cpu.c:461
}
2001345e:	853e                	mv	a0,a5
20013460:	85c2                	mv	a1,a6
20013462:	5472                	lw	s0,60(sp)
20013464:	6121                	addi	sp,sp,64
20013466:	8082                	ret

20013468 <__metal_driver_cpu_timebase_get>:
__metal_driver_cpu_timebase_get():
F:/HiFive-IoT/Workspace/sifive-hifive1-revb-hello/freedom-metal/src/drivers/riscv_cpu.c:464

unsigned long long __metal_driver_cpu_timebase_get(struct metal_cpu *cpu)
{
20013468:	7179                	addi	sp,sp,-48
2001346a:	d606                	sw	ra,44(sp)
2001346c:	d422                	sw	s0,40(sp)
2001346e:	d24a                	sw	s2,36(sp)
20013470:	d04e                	sw	s3,32(sp)
20013472:	1800                	addi	s0,sp,48
20013474:	fca42e23          	sw	a0,-36(s0)
F:/HiFive-IoT/Workspace/sifive-hifive1-revb-hello/freedom-metal/src/drivers/riscv_cpu.c:466
  int timebase;
    if (!cpu) {
20013478:	fdc42783          	lw	a5,-36(s0)
2001347c:	e781                	bnez	a5,20013484 <__metal_driver_cpu_timebase_get+0x1c>
F:/HiFive-IoT/Workspace/sifive-hifive1-revb-hello/freedom-metal/src/drivers/riscv_cpu.c:467
        return 0;
2001347e:	4901                	li	s2,0
20013480:	4981                	li	s3,0
20013482:	a821                	j	2001349a <__metal_driver_cpu_timebase_get+0x32>
F:/HiFive-IoT/Workspace/sifive-hifive1-revb-hello/freedom-metal/src/drivers/riscv_cpu.c:470
    }

    timebase = __metal_driver_cpu_timebase((struct metal_cpu *)cpu);
20013484:	fdc42503          	lw	a0,-36(s0)
20013488:	d98ff0ef          	jal	ra,20012a20 <__metal_driver_cpu_timebase>
2001348c:	fea42623          	sw	a0,-20(s0)
F:/HiFive-IoT/Workspace/sifive-hifive1-revb-hello/freedom-metal/src/drivers/riscv_cpu.c:471
    return timebase;
20013490:	fec42783          	lw	a5,-20(s0)
20013494:	893e                	mv	s2,a5
20013496:	87fd                	srai	a5,a5,0x1f
20013498:	89be                	mv	s3,a5
2001349a:	87ca                	mv	a5,s2
2001349c:	884e                	mv	a6,s3
F:/HiFive-IoT/Workspace/sifive-hifive1-revb-hello/freedom-metal/src/drivers/riscv_cpu.c:472
}
2001349e:	853e                	mv	a0,a5
200134a0:	85c2                	mv	a1,a6
200134a2:	50b2                	lw	ra,44(sp)
200134a4:	5422                	lw	s0,40(sp)
200134a6:	5912                	lw	s2,36(sp)
200134a8:	5982                	lw	s3,32(sp)
200134aa:	6145                	addi	sp,sp,48
200134ac:	8082                	ret

200134ae <__metal_driver_cpu_mtime_get>:
__metal_driver_cpu_mtime_get():
F:/HiFive-IoT/Workspace/sifive-hifive1-revb-hello/freedom-metal/src/drivers/riscv_cpu.c:475

unsigned long long  __metal_driver_cpu_mtime_get (struct metal_cpu *cpu)
{
200134ae:	7139                	addi	sp,sp,-64
200134b0:	de06                	sw	ra,60(sp)
200134b2:	dc22                	sw	s0,56(sp)
200134b4:	0080                	addi	s0,sp,64
200134b6:	fca42623          	sw	a0,-52(s0)
F:/HiFive-IoT/Workspace/sifive-hifive1-revb-hello/freedom-metal/src/drivers/riscv_cpu.c:476
    unsigned long long time = 0;
200134ba:	4781                	li	a5,0
200134bc:	4801                	li	a6,0
200134be:	fcf42c23          	sw	a5,-40(s0)
200134c2:	fd042e23          	sw	a6,-36(s0)
F:/HiFive-IoT/Workspace/sifive-hifive1-revb-hello/freedom-metal/src/drivers/riscv_cpu.c:479
    struct metal_interrupt *tmr_intc;
    struct __metal_driver_riscv_cpu_intc *intc =
        (struct __metal_driver_riscv_cpu_intc *)__metal_driver_cpu_interrupt_controller(cpu);
200134c6:	fcc42503          	lw	a0,-52(s0)
200134ca:	d80ff0ef          	jal	ra,20012a4a <__metal_driver_cpu_interrupt_controller>
200134ce:	fea42623          	sw	a0,-20(s0)
F:/HiFive-IoT/Workspace/sifive-hifive1-revb-hello/freedom-metal/src/drivers/riscv_cpu.c:480
    struct __metal_driver_cpu *_cpu = (void *)cpu;
200134d2:	fcc42783          	lw	a5,-52(s0)
200134d6:	fef42423          	sw	a5,-24(s0)
F:/HiFive-IoT/Workspace/sifive-hifive1-revb-hello/freedom-metal/src/drivers/riscv_cpu.c:482

    if (intc) {
200134da:	fec42783          	lw	a5,-20(s0)
200134de:	c78d                	beqz	a5,20013508 <__metal_driver_cpu_mtime_get+0x5a>
F:/HiFive-IoT/Workspace/sifive-hifive1-revb-hello/freedom-metal/src/drivers/riscv_cpu.c:483
        tmr_intc = intc->metal_int_table[METAL_INTERRUPT_ID_TMR].sub_int;
200134e0:	fec42783          	lw	a5,-20(s0)
200134e4:	13c7a783          	lw	a5,316(a5)
200134e8:	fef42223          	sw	a5,-28(s0)
F:/HiFive-IoT/Workspace/sifive-hifive1-revb-hello/freedom-metal/src/drivers/riscv_cpu.c:484
        if (tmr_intc) {
200134ec:	fe442783          	lw	a5,-28(s0)
200134f0:	cf81                	beqz	a5,20013508 <__metal_driver_cpu_mtime_get+0x5a>
F:/HiFive-IoT/Workspace/sifive-hifive1-revb-hello/freedom-metal/src/drivers/riscv_cpu.c:485
            tmr_intc->vtable->command_request(tmr_intc,
200134f2:	fe442783          	lw	a5,-28(s0)
200134f6:	439c                	lw	a5,0(a5)
200134f8:	4f98                	lw	a4,24(a5)
200134fa:	fd840793          	addi	a5,s0,-40
200134fe:	863e                	mv	a2,a5
20013500:	4585                	li	a1,1
20013502:	fe442503          	lw	a0,-28(s0)
20013506:	9702                	jalr	a4
F:/HiFive-IoT/Workspace/sifive-hifive1-revb-hello/freedom-metal/src/drivers/riscv_cpu.c:489
                                              METAL_TIMER_MTIME_GET, &time);
        }
    }
    return time;
20013508:	fd842783          	lw	a5,-40(s0)
2001350c:	fdc42803          	lw	a6,-36(s0)
F:/HiFive-IoT/Workspace/sifive-hifive1-revb-hello/freedom-metal/src/drivers/riscv_cpu.c:490
}
20013510:	853e                	mv	a0,a5
20013512:	85c2                	mv	a1,a6
20013514:	50f2                	lw	ra,60(sp)
20013516:	5462                	lw	s0,56(sp)
20013518:	6121                	addi	sp,sp,64
2001351a:	8082                	ret

2001351c <__metal_driver_cpu_mtimecmp_set>:
__metal_driver_cpu_mtimecmp_set():
F:/HiFive-IoT/Workspace/sifive-hifive1-revb-hello/freedom-metal/src/drivers/riscv_cpu.c:493

int __metal_driver_cpu_mtimecmp_set (struct metal_cpu *cpu, unsigned long long time)
{
2001351c:	7179                	addi	sp,sp,-48
2001351e:	d606                	sw	ra,44(sp)
20013520:	d422                	sw	s0,40(sp)
20013522:	d226                	sw	s1,36(sp)
20013524:	1800                	addi	s0,sp,48
20013526:	fca42e23          	sw	a0,-36(s0)
2001352a:	fcb42823          	sw	a1,-48(s0)
2001352e:	fcc42a23          	sw	a2,-44(s0)
F:/HiFive-IoT/Workspace/sifive-hifive1-revb-hello/freedom-metal/src/drivers/riscv_cpu.c:494
    int rc = -1;
20013532:	57fd                	li	a5,-1
20013534:	fef42623          	sw	a5,-20(s0)
F:/HiFive-IoT/Workspace/sifive-hifive1-revb-hello/freedom-metal/src/drivers/riscv_cpu.c:497
    struct metal_interrupt *tmr_intc;
    struct __metal_driver_riscv_cpu_intc *intc =
        (struct __metal_driver_riscv_cpu_intc *)__metal_driver_cpu_interrupt_controller(cpu);
20013538:	fdc42503          	lw	a0,-36(s0)
2001353c:	d0eff0ef          	jal	ra,20012a4a <__metal_driver_cpu_interrupt_controller>
20013540:	fea42423          	sw	a0,-24(s0)
F:/HiFive-IoT/Workspace/sifive-hifive1-revb-hello/freedom-metal/src/drivers/riscv_cpu.c:498
    struct __metal_driver_cpu *_cpu = (void *)cpu;
20013544:	fdc42783          	lw	a5,-36(s0)
20013548:	fef42223          	sw	a5,-28(s0)
F:/HiFive-IoT/Workspace/sifive-hifive1-revb-hello/freedom-metal/src/drivers/riscv_cpu.c:500

    if (intc) {
2001354c:	fe842783          	lw	a5,-24(s0)
20013550:	cf8d                	beqz	a5,2001358a <__metal_driver_cpu_mtimecmp_set+0x6e>
F:/HiFive-IoT/Workspace/sifive-hifive1-revb-hello/freedom-metal/src/drivers/riscv_cpu.c:501
        tmr_intc = intc->metal_int_table[METAL_INTERRUPT_ID_TMR].sub_int;
20013552:	fe842783          	lw	a5,-24(s0)
20013556:	13c7a783          	lw	a5,316(a5)
2001355a:	fef42023          	sw	a5,-32(s0)
F:/HiFive-IoT/Workspace/sifive-hifive1-revb-hello/freedom-metal/src/drivers/riscv_cpu.c:502
        if (tmr_intc) {
2001355e:	fe042783          	lw	a5,-32(s0)
20013562:	c785                	beqz	a5,2001358a <__metal_driver_cpu_mtimecmp_set+0x6e>
F:/HiFive-IoT/Workspace/sifive-hifive1-revb-hello/freedom-metal/src/drivers/riscv_cpu.c:503
            rc = tmr_intc->vtable->mtimecmp_set(tmr_intc,
20013564:	fe042783          	lw	a5,-32(s0)
20013568:	439c                	lw	a5,0(a5)
2001356a:	4fc4                	lw	s1,28(a5)
2001356c:	fdc42503          	lw	a0,-36(s0)
20013570:	c8cff0ef          	jal	ra,200129fc <__metal_driver_cpu_hartid>
20013574:	87aa                	mv	a5,a0
20013576:	fd042603          	lw	a2,-48(s0)
2001357a:	fd442683          	lw	a3,-44(s0)
2001357e:	85be                	mv	a1,a5
20013580:	fe042503          	lw	a0,-32(s0)
20013584:	9482                	jalr	s1
20013586:	fea42623          	sw	a0,-20(s0)
F:/HiFive-IoT/Workspace/sifive-hifive1-revb-hello/freedom-metal/src/drivers/riscv_cpu.c:508
                                                __metal_driver_cpu_hartid(cpu),
                                                time);
        }
    }
    return rc;
2001358a:	fec42783          	lw	a5,-20(s0)
F:/HiFive-IoT/Workspace/sifive-hifive1-revb-hello/freedom-metal/src/drivers/riscv_cpu.c:509
}
2001358e:	853e                	mv	a0,a5
20013590:	50b2                	lw	ra,44(sp)
20013592:	5422                	lw	s0,40(sp)
20013594:	5492                	lw	s1,36(sp)
20013596:	6145                	addi	sp,sp,48
20013598:	8082                	ret

2001359a <__metal_driver_cpu_timer_controller_interrupt>:
__metal_driver_cpu_timer_controller_interrupt():
F:/HiFive-IoT/Workspace/sifive-hifive1-revb-hello/freedom-metal/src/drivers/riscv_cpu.c:513

struct metal_interrupt *
__metal_driver_cpu_timer_controller_interrupt(struct metal_cpu *cpu)
{
2001359a:	1101                	addi	sp,sp,-32
2001359c:	ce22                	sw	s0,28(sp)
2001359e:	1000                	addi	s0,sp,32
200135a0:	fea42623          	sw	a0,-20(s0)
F:/HiFive-IoT/Workspace/sifive-hifive1-revb-hello/freedom-metal/src/drivers/riscv_cpu.c:515
#ifdef __METAL_DT_RISCV_CLINT0_HANDLE
    return __METAL_DT_RISCV_CLINT0_HANDLE;
200135a4:	83018793          	addi	a5,gp,-2000 # 800007c8 <__metal_dt_clint_2000000>
F:/HiFive-IoT/Workspace/sifive-hifive1-revb-hello/freedom-metal/src/drivers/riscv_cpu.c:524
#else
#warning "There is no interrupt controller for Timer interrupt"
    return NULL;
#endif
#endif
}
200135a8:	853e                	mv	a0,a5
200135aa:	4472                	lw	s0,28(sp)
200135ac:	6105                	addi	sp,sp,32
200135ae:	8082                	ret

200135b0 <__metal_driver_cpu_get_timer_interrupt_id>:
__metal_driver_cpu_get_timer_interrupt_id():
F:/HiFive-IoT/Workspace/sifive-hifive1-revb-hello/freedom-metal/src/drivers/riscv_cpu.c:527

int __metal_driver_cpu_get_timer_interrupt_id(struct metal_cpu *cpu)
{
200135b0:	1101                	addi	sp,sp,-32
200135b2:	ce22                	sw	s0,28(sp)
200135b4:	1000                	addi	s0,sp,32
200135b6:	fea42623          	sw	a0,-20(s0)
F:/HiFive-IoT/Workspace/sifive-hifive1-revb-hello/freedom-metal/src/drivers/riscv_cpu.c:528
    return METAL_INTERRUPT_ID_TMR;
200135ba:	479d                	li	a5,7
F:/HiFive-IoT/Workspace/sifive-hifive1-revb-hello/freedom-metal/src/drivers/riscv_cpu.c:529
}
200135bc:	853e                	mv	a0,a5
200135be:	4472                	lw	s0,28(sp)
200135c0:	6105                	addi	sp,sp,32
200135c2:	8082                	ret

200135c4 <__metal_driver_cpu_sw_controller_interrupt>:
__metal_driver_cpu_sw_controller_interrupt():
F:/HiFive-IoT/Workspace/sifive-hifive1-revb-hello/freedom-metal/src/drivers/riscv_cpu.c:533

struct metal_interrupt *
__metal_driver_cpu_sw_controller_interrupt(struct metal_cpu *cpu)
{
200135c4:	1101                	addi	sp,sp,-32
200135c6:	ce22                	sw	s0,28(sp)
200135c8:	1000                	addi	s0,sp,32
200135ca:	fea42623          	sw	a0,-20(s0)
F:/HiFive-IoT/Workspace/sifive-hifive1-revb-hello/freedom-metal/src/drivers/riscv_cpu.c:535
#ifdef __METAL_DT_RISCV_CLINT0_HANDLE
    return __METAL_DT_RISCV_CLINT0_HANDLE;
200135ce:	83018793          	addi	a5,gp,-2000 # 800007c8 <__metal_dt_clint_2000000>
F:/HiFive-IoT/Workspace/sifive-hifive1-revb-hello/freedom-metal/src/drivers/riscv_cpu.c:544
#else
#warning "There is no interrupt controller for Software interrupt"
    return NULL;
#endif
#endif
}
200135d2:	853e                	mv	a0,a5
200135d4:	4472                	lw	s0,28(sp)
200135d6:	6105                	addi	sp,sp,32
200135d8:	8082                	ret

200135da <__metal_driver_cpu_get_sw_interrupt_id>:
__metal_driver_cpu_get_sw_interrupt_id():
F:/HiFive-IoT/Workspace/sifive-hifive1-revb-hello/freedom-metal/src/drivers/riscv_cpu.c:547

int __metal_driver_cpu_get_sw_interrupt_id(struct metal_cpu *cpu)
{
200135da:	1101                	addi	sp,sp,-32
200135dc:	ce22                	sw	s0,28(sp)
200135de:	1000                	addi	s0,sp,32
200135e0:	fea42623          	sw	a0,-20(s0)
F:/HiFive-IoT/Workspace/sifive-hifive1-revb-hello/freedom-metal/src/drivers/riscv_cpu.c:548
    return METAL_INTERRUPT_ID_SW;
200135e4:	478d                	li	a5,3
F:/HiFive-IoT/Workspace/sifive-hifive1-revb-hello/freedom-metal/src/drivers/riscv_cpu.c:549
}
200135e6:	853e                	mv	a0,a5
200135e8:	4472                	lw	s0,28(sp)
200135ea:	6105                	addi	sp,sp,32
200135ec:	8082                	ret

200135ee <__metal_driver_cpu_set_sw_ipi>:
__metal_driver_cpu_set_sw_ipi():
F:/HiFive-IoT/Workspace/sifive-hifive1-revb-hello/freedom-metal/src/drivers/riscv_cpu.c:552

int __metal_driver_cpu_set_sw_ipi (struct metal_cpu *cpu, int hartid)
{
200135ee:	7179                	addi	sp,sp,-48
200135f0:	d606                	sw	ra,44(sp)
200135f2:	d422                	sw	s0,40(sp)
200135f4:	1800                	addi	s0,sp,48
200135f6:	fca42e23          	sw	a0,-36(s0)
200135fa:	fcb42c23          	sw	a1,-40(s0)
F:/HiFive-IoT/Workspace/sifive-hifive1-revb-hello/freedom-metal/src/drivers/riscv_cpu.c:553
    int rc = -1;
200135fe:	57fd                	li	a5,-1
20013600:	fef42623          	sw	a5,-20(s0)
F:/HiFive-IoT/Workspace/sifive-hifive1-revb-hello/freedom-metal/src/drivers/riscv_cpu.c:556
    struct metal_interrupt *sw_intc;
    struct __metal_driver_riscv_cpu_intc *intc = 
        (struct __metal_driver_riscv_cpu_intc *)__metal_driver_cpu_interrupt_controller(cpu);
20013604:	fdc42503          	lw	a0,-36(s0)
20013608:	c42ff0ef          	jal	ra,20012a4a <__metal_driver_cpu_interrupt_controller>
2001360c:	fea42423          	sw	a0,-24(s0)
F:/HiFive-IoT/Workspace/sifive-hifive1-revb-hello/freedom-metal/src/drivers/riscv_cpu.c:557
    struct __metal_driver_cpu *_cpu = (void *)cpu;
20013610:	fdc42783          	lw	a5,-36(s0)
20013614:	fef42223          	sw	a5,-28(s0)
F:/HiFive-IoT/Workspace/sifive-hifive1-revb-hello/freedom-metal/src/drivers/riscv_cpu.c:559

    if (intc) {
20013618:	fe842783          	lw	a5,-24(s0)
2001361c:	c79d                	beqz	a5,2001364a <__metal_driver_cpu_set_sw_ipi+0x5c>
F:/HiFive-IoT/Workspace/sifive-hifive1-revb-hello/freedom-metal/src/drivers/riscv_cpu.c:560
        sw_intc = intc->metal_int_table[METAL_INTERRUPT_ID_SW].sub_int;
2001361e:	fe842783          	lw	a5,-24(s0)
20013622:	0dc7a783          	lw	a5,220(a5)
20013626:	fef42023          	sw	a5,-32(s0)
F:/HiFive-IoT/Workspace/sifive-hifive1-revb-hello/freedom-metal/src/drivers/riscv_cpu.c:561
        if (sw_intc) {
2001362a:	fe042783          	lw	a5,-32(s0)
2001362e:	cf91                	beqz	a5,2001364a <__metal_driver_cpu_set_sw_ipi+0x5c>
F:/HiFive-IoT/Workspace/sifive-hifive1-revb-hello/freedom-metal/src/drivers/riscv_cpu.c:562
            rc = sw_intc->vtable->command_request(sw_intc,
20013630:	fe042783          	lw	a5,-32(s0)
20013634:	439c                	lw	a5,0(a5)
20013636:	4f98                	lw	a4,24(a5)
20013638:	fd840793          	addi	a5,s0,-40
2001363c:	863e                	mv	a2,a5
2001363e:	458d                	li	a1,3
20013640:	fe042503          	lw	a0,-32(s0)
20013644:	9702                	jalr	a4
20013646:	fea42623          	sw	a0,-20(s0)
F:/HiFive-IoT/Workspace/sifive-hifive1-revb-hello/freedom-metal/src/drivers/riscv_cpu.c:566
                                                  METAL_SOFTWARE_IPI_SET, &hartid);
        }
    }
    return rc;
2001364a:	fec42783          	lw	a5,-20(s0)
F:/HiFive-IoT/Workspace/sifive-hifive1-revb-hello/freedom-metal/src/drivers/riscv_cpu.c:567
}
2001364e:	853e                	mv	a0,a5
20013650:	50b2                	lw	ra,44(sp)
20013652:	5422                	lw	s0,40(sp)
20013654:	6145                	addi	sp,sp,48
20013656:	8082                	ret

20013658 <__metal_driver_cpu_clear_sw_ipi>:
__metal_driver_cpu_clear_sw_ipi():
F:/HiFive-IoT/Workspace/sifive-hifive1-revb-hello/freedom-metal/src/drivers/riscv_cpu.c:570

int __metal_driver_cpu_clear_sw_ipi (struct metal_cpu *cpu, int hartid)
{
20013658:	7179                	addi	sp,sp,-48
2001365a:	d606                	sw	ra,44(sp)
2001365c:	d422                	sw	s0,40(sp)
2001365e:	1800                	addi	s0,sp,48
20013660:	fca42e23          	sw	a0,-36(s0)
20013664:	fcb42c23          	sw	a1,-40(s0)
F:/HiFive-IoT/Workspace/sifive-hifive1-revb-hello/freedom-metal/src/drivers/riscv_cpu.c:571
    int rc = -1;
20013668:	57fd                	li	a5,-1
2001366a:	fef42623          	sw	a5,-20(s0)
F:/HiFive-IoT/Workspace/sifive-hifive1-revb-hello/freedom-metal/src/drivers/riscv_cpu.c:574
    struct metal_interrupt *sw_intc;
    struct __metal_driver_riscv_cpu_intc *intc =
        (struct __metal_driver_riscv_cpu_intc *)__metal_driver_cpu_interrupt_controller(cpu);
2001366e:	fdc42503          	lw	a0,-36(s0)
20013672:	bd8ff0ef          	jal	ra,20012a4a <__metal_driver_cpu_interrupt_controller>
20013676:	fea42423          	sw	a0,-24(s0)
F:/HiFive-IoT/Workspace/sifive-hifive1-revb-hello/freedom-metal/src/drivers/riscv_cpu.c:575
    struct __metal_driver_cpu *_cpu = (void *)cpu;
2001367a:	fdc42783          	lw	a5,-36(s0)
2001367e:	fef42223          	sw	a5,-28(s0)
F:/HiFive-IoT/Workspace/sifive-hifive1-revb-hello/freedom-metal/src/drivers/riscv_cpu.c:577

    if (intc) {
20013682:	fe842783          	lw	a5,-24(s0)
20013686:	c79d                	beqz	a5,200136b4 <__metal_driver_cpu_clear_sw_ipi+0x5c>
F:/HiFive-IoT/Workspace/sifive-hifive1-revb-hello/freedom-metal/src/drivers/riscv_cpu.c:578
        sw_intc = intc->metal_int_table[METAL_INTERRUPT_ID_SW].sub_int;
20013688:	fe842783          	lw	a5,-24(s0)
2001368c:	0dc7a783          	lw	a5,220(a5)
20013690:	fef42023          	sw	a5,-32(s0)
F:/HiFive-IoT/Workspace/sifive-hifive1-revb-hello/freedom-metal/src/drivers/riscv_cpu.c:579
        if (sw_intc) {
20013694:	fe042783          	lw	a5,-32(s0)
20013698:	cf91                	beqz	a5,200136b4 <__metal_driver_cpu_clear_sw_ipi+0x5c>
F:/HiFive-IoT/Workspace/sifive-hifive1-revb-hello/freedom-metal/src/drivers/riscv_cpu.c:580
            rc = sw_intc->vtable->command_request(sw_intc,
2001369a:	fe042783          	lw	a5,-32(s0)
2001369e:	439c                	lw	a5,0(a5)
200136a0:	4f98                	lw	a4,24(a5)
200136a2:	fd840793          	addi	a5,s0,-40
200136a6:	863e                	mv	a2,a5
200136a8:	4589                	li	a1,2
200136aa:	fe042503          	lw	a0,-32(s0)
200136ae:	9702                	jalr	a4
200136b0:	fea42623          	sw	a0,-20(s0)
F:/HiFive-IoT/Workspace/sifive-hifive1-revb-hello/freedom-metal/src/drivers/riscv_cpu.c:584
                                                  METAL_SOFTWARE_IPI_CLEAR, &hartid);
        }
    }
    return rc;
200136b4:	fec42783          	lw	a5,-20(s0)
F:/HiFive-IoT/Workspace/sifive-hifive1-revb-hello/freedom-metal/src/drivers/riscv_cpu.c:585
}
200136b8:	853e                	mv	a0,a5
200136ba:	50b2                	lw	ra,44(sp)
200136bc:	5422                	lw	s0,40(sp)
200136be:	6145                	addi	sp,sp,48
200136c0:	8082                	ret

200136c2 <__metal_driver_cpu_get_msip>:
__metal_driver_cpu_get_msip():
F:/HiFive-IoT/Workspace/sifive-hifive1-revb-hello/freedom-metal/src/drivers/riscv_cpu.c:588

int __metal_driver_cpu_get_msip (struct metal_cpu *cpu, int hartid)
{
200136c2:	7179                	addi	sp,sp,-48
200136c4:	d606                	sw	ra,44(sp)
200136c6:	d422                	sw	s0,40(sp)
200136c8:	1800                	addi	s0,sp,48
200136ca:	fca42e23          	sw	a0,-36(s0)
200136ce:	fcb42c23          	sw	a1,-40(s0)
F:/HiFive-IoT/Workspace/sifive-hifive1-revb-hello/freedom-metal/src/drivers/riscv_cpu.c:589
    int rc = 0;
200136d2:	fe042623          	sw	zero,-20(s0)
F:/HiFive-IoT/Workspace/sifive-hifive1-revb-hello/freedom-metal/src/drivers/riscv_cpu.c:592
    struct metal_interrupt *sw_intc;
    struct __metal_driver_riscv_cpu_intc *intc =
        (struct __metal_driver_riscv_cpu_intc *)__metal_driver_cpu_interrupt_controller(cpu);
200136d6:	fdc42503          	lw	a0,-36(s0)
200136da:	b70ff0ef          	jal	ra,20012a4a <__metal_driver_cpu_interrupt_controller>
200136de:	fea42423          	sw	a0,-24(s0)
F:/HiFive-IoT/Workspace/sifive-hifive1-revb-hello/freedom-metal/src/drivers/riscv_cpu.c:593
    struct __metal_driver_cpu *_cpu = (void *)cpu;
200136e2:	fdc42783          	lw	a5,-36(s0)
200136e6:	fef42223          	sw	a5,-28(s0)
F:/HiFive-IoT/Workspace/sifive-hifive1-revb-hello/freedom-metal/src/drivers/riscv_cpu.c:595

    if (intc) {
200136ea:	fe842783          	lw	a5,-24(s0)
200136ee:	c79d                	beqz	a5,2001371c <__metal_driver_cpu_get_msip+0x5a>
F:/HiFive-IoT/Workspace/sifive-hifive1-revb-hello/freedom-metal/src/drivers/riscv_cpu.c:596
        sw_intc = intc->metal_int_table[METAL_INTERRUPT_ID_SW].sub_int;
200136f0:	fe842783          	lw	a5,-24(s0)
200136f4:	0dc7a783          	lw	a5,220(a5)
200136f8:	fef42023          	sw	a5,-32(s0)
F:/HiFive-IoT/Workspace/sifive-hifive1-revb-hello/freedom-metal/src/drivers/riscv_cpu.c:597
        if (sw_intc) {
200136fc:	fe042783          	lw	a5,-32(s0)
20013700:	cf91                	beqz	a5,2001371c <__metal_driver_cpu_get_msip+0x5a>
F:/HiFive-IoT/Workspace/sifive-hifive1-revb-hello/freedom-metal/src/drivers/riscv_cpu.c:598
            rc = sw_intc->vtable->command_request(sw_intc,
20013702:	fe042783          	lw	a5,-32(s0)
20013706:	439c                	lw	a5,0(a5)
20013708:	4f98                	lw	a4,24(a5)
2001370a:	fd840793          	addi	a5,s0,-40
2001370e:	863e                	mv	a2,a5
20013710:	4591                	li	a1,4
20013712:	fe042503          	lw	a0,-32(s0)
20013716:	9702                	jalr	a4
20013718:	fea42623          	sw	a0,-20(s0)
F:/HiFive-IoT/Workspace/sifive-hifive1-revb-hello/freedom-metal/src/drivers/riscv_cpu.c:602
                                                  METAL_SOFTWARE_MSIP_GET, &hartid);
        }
    }
    return rc;
2001371c:	fec42783          	lw	a5,-20(s0)
F:/HiFive-IoT/Workspace/sifive-hifive1-revb-hello/freedom-metal/src/drivers/riscv_cpu.c:603
}
20013720:	853e                	mv	a0,a5
20013722:	50b2                	lw	ra,44(sp)
20013724:	5422                	lw	s0,40(sp)
20013726:	6145                	addi	sp,sp,48
20013728:	8082                	ret

2001372a <__metal_driver_cpu_controller_interrupt>:
__metal_driver_cpu_controller_interrupt():
F:/HiFive-IoT/Workspace/sifive-hifive1-revb-hello/freedom-metal/src/drivers/riscv_cpu.c:607

struct metal_interrupt *
__metal_driver_cpu_controller_interrupt(struct metal_cpu *cpu)
{
2001372a:	1101                	addi	sp,sp,-32
2001372c:	ce06                	sw	ra,28(sp)
2001372e:	cc22                	sw	s0,24(sp)
20013730:	1000                	addi	s0,sp,32
20013732:	fea42623          	sw	a0,-20(s0)
F:/HiFive-IoT/Workspace/sifive-hifive1-revb-hello/freedom-metal/src/drivers/riscv_cpu.c:608
    return __metal_driver_cpu_interrupt_controller(cpu);
20013736:	fec42503          	lw	a0,-20(s0)
2001373a:	b10ff0ef          	jal	ra,20012a4a <__metal_driver_cpu_interrupt_controller>
2001373e:	87aa                	mv	a5,a0
F:/HiFive-IoT/Workspace/sifive-hifive1-revb-hello/freedom-metal/src/drivers/riscv_cpu.c:609
}
20013740:	853e                	mv	a0,a5
20013742:	40f2                	lw	ra,28(sp)
20013744:	4462                	lw	s0,24(sp)
20013746:	6105                	addi	sp,sp,32
20013748:	8082                	ret

2001374a <__metal_driver_cpu_exception_register>:
__metal_driver_cpu_exception_register():
F:/HiFive-IoT/Workspace/sifive-hifive1-revb-hello/freedom-metal/src/drivers/riscv_cpu.c:633
    return -1;
}

int __metal_driver_cpu_exception_register(struct metal_cpu *cpu, int ecode,
				        metal_exception_handler_t isr)
{
2001374a:	7179                	addi	sp,sp,-48
2001374c:	d606                	sw	ra,44(sp)
2001374e:	d422                	sw	s0,40(sp)
20013750:	1800                	addi	s0,sp,48
20013752:	fca42e23          	sw	a0,-36(s0)
20013756:	fcb42c23          	sw	a1,-40(s0)
2001375a:	fcc42a23          	sw	a2,-44(s0)
F:/HiFive-IoT/Workspace/sifive-hifive1-revb-hello/freedom-metal/src/drivers/riscv_cpu.c:635
    struct __metal_driver_riscv_cpu_intc *intc =
        (struct __metal_driver_riscv_cpu_intc *)__metal_driver_cpu_interrupt_controller(cpu);
2001375e:	fdc42503          	lw	a0,-36(s0)
20013762:	ae8ff0ef          	jal	ra,20012a4a <__metal_driver_cpu_interrupt_controller>
20013766:	fea42623          	sw	a0,-20(s0)
F:/HiFive-IoT/Workspace/sifive-hifive1-revb-hello/freedom-metal/src/drivers/riscv_cpu.c:637

    if (intc) {
2001376a:	fec42783          	lw	a5,-20(s0)
2001376e:	cb99                	beqz	a5,20013784 <__metal_driver_cpu_exception_register+0x3a>
F:/HiFive-IoT/Workspace/sifive-hifive1-revb-hello/freedom-metal/src/drivers/riscv_cpu.c:638
        return __metal_exception_register((struct metal_interrupt *)intc, ecode, isr);
20013770:	fd442603          	lw	a2,-44(s0)
20013774:	fd842583          	lw	a1,-40(s0)
20013778:	fec42503          	lw	a0,-20(s0)
2001377c:	88fff0ef          	jal	ra,2001300a <__metal_exception_register>
20013780:	87aa                	mv	a5,a0
20013782:	a011                	j	20013786 <__metal_driver_cpu_exception_register+0x3c>
F:/HiFive-IoT/Workspace/sifive-hifive1-revb-hello/freedom-metal/src/drivers/riscv_cpu.c:640
    }
    return -1;
20013784:	57fd                	li	a5,-1
F:/HiFive-IoT/Workspace/sifive-hifive1-revb-hello/freedom-metal/src/drivers/riscv_cpu.c:641
}
20013786:	853e                	mv	a0,a5
20013788:	50b2                	lw	ra,44(sp)
2001378a:	5422                	lw	s0,40(sp)
2001378c:	6145                	addi	sp,sp,48
2001378e:	8082                	ret

20013790 <__metal_driver_cpu_get_instruction_length>:
__metal_driver_cpu_get_instruction_length():
F:/HiFive-IoT/Workspace/sifive-hifive1-revb-hello/freedom-metal/src/drivers/riscv_cpu.c:644

int  __metal_driver_cpu_get_instruction_length(struct metal_cpu *cpu, uintptr_t epc)
{
20013790:	1101                	addi	sp,sp,-32
20013792:	ce22                	sw	s0,28(sp)
20013794:	1000                	addi	s0,sp,32
20013796:	fea42623          	sw	a0,-20(s0)
2001379a:	feb42423          	sw	a1,-24(s0)
F:/HiFive-IoT/Workspace/sifive-hifive1-revb-hello/freedom-metal/src/drivers/riscv_cpu.c:646
    /* Per ISA compressed instruction has last two bits of opcode set */
    return (*(unsigned short*)epc & 3) ? 4 : 2;
2001379e:	fe842783          	lw	a5,-24(s0)
200137a2:	0007d783          	lhu	a5,0(a5)
200137a6:	8b8d                	andi	a5,a5,3
200137a8:	c399                	beqz	a5,200137ae <__metal_driver_cpu_get_instruction_length+0x1e>
F:/HiFive-IoT/Workspace/sifive-hifive1-revb-hello/freedom-metal/src/drivers/riscv_cpu.c:646 (discriminator 1)
200137aa:	4791                	li	a5,4
200137ac:	a011                	j	200137b0 <__metal_driver_cpu_get_instruction_length+0x20>
F:/HiFive-IoT/Workspace/sifive-hifive1-revb-hello/freedom-metal/src/drivers/riscv_cpu.c:646 (discriminator 2)
200137ae:	4789                	li	a5,2
F:/HiFive-IoT/Workspace/sifive-hifive1-revb-hello/freedom-metal/src/drivers/riscv_cpu.c:647 (discriminator 5)
}
200137b0:	853e                	mv	a0,a5
200137b2:	4472                	lw	s0,28(sp)
200137b4:	6105                	addi	sp,sp,32
200137b6:	8082                	ret

200137b8 <__metal_driver_cpu_get_exception_pc>:
__metal_driver_cpu_get_exception_pc():
F:/HiFive-IoT/Workspace/sifive-hifive1-revb-hello/freedom-metal/src/drivers/riscv_cpu.c:650

uintptr_t  __metal_driver_cpu_get_exception_pc(struct metal_cpu *cpu)
{
200137b8:	7179                	addi	sp,sp,-48
200137ba:	d622                	sw	s0,44(sp)
200137bc:	1800                	addi	s0,sp,48
200137be:	fca42e23          	sw	a0,-36(s0)
F:/HiFive-IoT/Workspace/sifive-hifive1-revb-hello/freedom-metal/src/drivers/riscv_cpu.c:652
    uintptr_t mepc;
    asm volatile ("csrr %0, mepc" : "=r"(mepc));
200137c2:	341027f3          	csrr	a5,mepc
200137c6:	fef42623          	sw	a5,-20(s0)
F:/HiFive-IoT/Workspace/sifive-hifive1-revb-hello/freedom-metal/src/drivers/riscv_cpu.c:653
    return mepc;
200137ca:	fec42783          	lw	a5,-20(s0)
F:/HiFive-IoT/Workspace/sifive-hifive1-revb-hello/freedom-metal/src/drivers/riscv_cpu.c:654
}
200137ce:	853e                	mv	a0,a5
200137d0:	5432                	lw	s0,44(sp)
200137d2:	6145                	addi	sp,sp,48
200137d4:	8082                	ret

200137d6 <__metal_driver_cpu_set_exception_pc>:
__metal_driver_cpu_set_exception_pc():
F:/HiFive-IoT/Workspace/sifive-hifive1-revb-hello/freedom-metal/src/drivers/riscv_cpu.c:657

int  __metal_driver_cpu_set_exception_pc(struct metal_cpu *cpu, uintptr_t mepc)
{
200137d6:	1101                	addi	sp,sp,-32
200137d8:	ce22                	sw	s0,28(sp)
200137da:	1000                	addi	s0,sp,32
200137dc:	fea42623          	sw	a0,-20(s0)
200137e0:	feb42423          	sw	a1,-24(s0)
F:/HiFive-IoT/Workspace/sifive-hifive1-revb-hello/freedom-metal/src/drivers/riscv_cpu.c:658
    asm volatile ("csrw mepc, %0" :: "r"(mepc));
200137e4:	fe842783          	lw	a5,-24(s0)
200137e8:	34179073          	csrw	mepc,a5
F:/HiFive-IoT/Workspace/sifive-hifive1-revb-hello/freedom-metal/src/drivers/riscv_cpu.c:659
    return 0;
200137ec:	4781                	li	a5,0
F:/HiFive-IoT/Workspace/sifive-hifive1-revb-hello/freedom-metal/src/drivers/riscv_cpu.c:660
}
200137ee:	853e                	mv	a0,a5
200137f0:	4472                	lw	s0,28(sp)
200137f2:	6105                	addi	sp,sp,32
200137f4:	8082                	ret

200137f6 <__metal_driver_sifive_plic0_control_base>:
__metal_driver_sifive_plic0_control_base():
F:\HiFive-IoT\Workspace\sifive-hifive1-revb-hello\bsp\build\debug/./metal/machine.h:276



/* --------------------- sifive_plic0 ------------ */
static inline unsigned long __metal_driver_sifive_plic0_control_base(struct metal_interrupt *controller)
{
200137f6:	1101                	addi	sp,sp,-32
200137f8:	ce22                	sw	s0,28(sp)
200137fa:	1000                	addi	s0,sp,32
200137fc:	fea42623          	sw	a0,-20(s0)
F:\HiFive-IoT\Workspace\sifive-hifive1-revb-hello\bsp\build\debug/./metal/machine.h:277
	if ((uintptr_t)controller == (uintptr_t)&__metal_dt_interrupt_controller_c000000) {
20013800:	fec42703          	lw	a4,-20(s0)
20013804:	800007b7          	lui	a5,0x80000
20013808:	45878793          	addi	a5,a5,1112 # 80000458 <metal_segment_heap_target_end+0xfffff38c>
2001380c:	00f71563          	bne	a4,a5,20013816 <__metal_driver_sifive_plic0_control_base+0x20>
F:\HiFive-IoT\Workspace\sifive-hifive1-revb-hello\bsp\build\debug/./metal/machine.h:278
		return METAL_RISCV_PLIC0_C000000_BASE_ADDRESS;
20013810:	0c0007b7          	lui	a5,0xc000
20013814:	a011                	j	20013818 <__metal_driver_sifive_plic0_control_base+0x22>
F:\HiFive-IoT\Workspace\sifive-hifive1-revb-hello\bsp\build\debug/./metal/machine.h:281
	}
	else {
		return 0;
20013816:	4781                	li	a5,0
F:\HiFive-IoT\Workspace\sifive-hifive1-revb-hello\bsp\build\debug/./metal/machine.h:283
	}
}
20013818:	853e                	mv	a0,a5
2001381a:	4472                	lw	s0,28(sp)
2001381c:	6105                	addi	sp,sp,32
2001381e:	8082                	ret

20013820 <__metal_driver_sifive_plic0_num_interrupts>:
__metal_driver_sifive_plic0_num_interrupts():
F:\HiFive-IoT\Workspace\sifive-hifive1-revb-hello\bsp\build\debug/./metal/machine.h:296
		return 0;
	}
}

static inline int __metal_driver_sifive_plic0_num_interrupts(struct metal_interrupt *controller)
{
20013820:	1101                	addi	sp,sp,-32
20013822:	ce22                	sw	s0,28(sp)
20013824:	1000                	addi	s0,sp,32
20013826:	fea42623          	sw	a0,-20(s0)
F:\HiFive-IoT\Workspace\sifive-hifive1-revb-hello\bsp\build\debug/./metal/machine.h:297
	if ((uintptr_t)controller == (uintptr_t)&__metal_dt_interrupt_controller_c000000) {
2001382a:	fec42703          	lw	a4,-20(s0)
2001382e:	800007b7          	lui	a5,0x80000
20013832:	45878793          	addi	a5,a5,1112 # 80000458 <metal_segment_heap_target_end+0xfffff38c>
20013836:	00f71463          	bne	a4,a5,2001383e <__metal_driver_sifive_plic0_num_interrupts+0x1e>
F:\HiFive-IoT\Workspace\sifive-hifive1-revb-hello\bsp\build\debug/./metal/machine.h:298
		return METAL_RISCV_PLIC0_C000000_RISCV_NDEV;
2001383a:	47ed                	li	a5,27
2001383c:	a011                	j	20013840 <__metal_driver_sifive_plic0_num_interrupts+0x20>
F:\HiFive-IoT\Workspace\sifive-hifive1-revb-hello\bsp\build\debug/./metal/machine.h:301
	}
	else {
		return 0;
2001383e:	4781                	li	a5,0
F:\HiFive-IoT\Workspace\sifive-hifive1-revb-hello\bsp\build\debug/./metal/machine.h:303
	}
}
20013840:	853e                	mv	a0,a5
20013842:	4472                	lw	s0,28(sp)
20013844:	6105                	addi	sp,sp,32
20013846:	8082                	ret

20013848 <__metal_driver_sifive_plic0_max_priority>:
__metal_driver_sifive_plic0_max_priority():
F:\HiFive-IoT\Workspace\sifive-hifive1-revb-hello\bsp\build\debug/./metal/machine.h:306

static inline int __metal_driver_sifive_plic0_max_priority(struct metal_interrupt *controller)
{
20013848:	1101                	addi	sp,sp,-32
2001384a:	ce22                	sw	s0,28(sp)
2001384c:	1000                	addi	s0,sp,32
2001384e:	fea42623          	sw	a0,-20(s0)
F:\HiFive-IoT\Workspace\sifive-hifive1-revb-hello\bsp\build\debug/./metal/machine.h:307
	if ((uintptr_t)controller == (uintptr_t)&__metal_dt_interrupt_controller_c000000) {
20013852:	fec42703          	lw	a4,-20(s0)
20013856:	800007b7          	lui	a5,0x80000
2001385a:	45878793          	addi	a5,a5,1112 # 80000458 <metal_segment_heap_target_end+0xfffff38c>
2001385e:	00f71463          	bne	a4,a5,20013866 <__metal_driver_sifive_plic0_max_priority+0x1e>
F:\HiFive-IoT\Workspace\sifive-hifive1-revb-hello\bsp\build\debug/./metal/machine.h:308
		return METAL_RISCV_PLIC0_C000000_RISCV_MAX_PRIORITY;
20013862:	479d                	li	a5,7
20013864:	a011                	j	20013868 <__metal_driver_sifive_plic0_max_priority+0x20>
F:\HiFive-IoT\Workspace\sifive-hifive1-revb-hello\bsp\build\debug/./metal/machine.h:311
	}
	else {
		return 0;
20013866:	4781                	li	a5,0
F:\HiFive-IoT\Workspace\sifive-hifive1-revb-hello\bsp\build\debug/./metal/machine.h:313
	}
}
20013868:	853e                	mv	a0,a5
2001386a:	4472                	lw	s0,28(sp)
2001386c:	6105                	addi	sp,sp,32
2001386e:	8082                	ret

20013870 <__metal_driver_sifive_plic0_interrupt_parents>:
__metal_driver_sifive_plic0_interrupt_parents():
F:\HiFive-IoT\Workspace\sifive-hifive1-revb-hello\bsp\build\debug/./metal/machine.h:316

static inline struct metal_interrupt * __metal_driver_sifive_plic0_interrupt_parents(struct metal_interrupt *controller, int idx)
{
20013870:	1101                	addi	sp,sp,-32
20013872:	ce22                	sw	s0,28(sp)
20013874:	1000                	addi	s0,sp,32
20013876:	fea42623          	sw	a0,-20(s0)
2001387a:	feb42423          	sw	a1,-24(s0)
F:\HiFive-IoT\Workspace\sifive-hifive1-revb-hello\bsp\build\debug/./metal/machine.h:317
	if (idx == 0) {
2001387e:	fe842783          	lw	a5,-24(s0)
20013882:	e791                	bnez	a5,2001388e <__metal_driver_sifive_plic0_interrupt_parents+0x1e>
F:\HiFive-IoT\Workspace\sifive-hifive1-revb-hello\bsp\build\debug/./metal/machine.h:318
		return (struct metal_interrupt *)&__metal_dt_cpu_0_interrupt_controller.controller;
20013884:	800007b7          	lui	a5,0x80000
20013888:	0a078793          	addi	a5,a5,160 # 800000a0 <metal_segment_heap_target_end+0xffffefd4>
2001388c:	a811                	j	200138a0 <__metal_driver_sifive_plic0_interrupt_parents+0x30>
F:\HiFive-IoT\Workspace\sifive-hifive1-revb-hello\bsp\build\debug/./metal/machine.h:320
	}
	else if (idx == 0) {
2001388e:	fe842783          	lw	a5,-24(s0)
20013892:	e791                	bnez	a5,2001389e <__metal_driver_sifive_plic0_interrupt_parents+0x2e>
F:\HiFive-IoT\Workspace\sifive-hifive1-revb-hello\bsp\build\debug/./metal/machine.h:321
		return (struct metal_interrupt *)&__metal_dt_cpu_0_interrupt_controller.controller;
20013894:	800007b7          	lui	a5,0x80000
20013898:	0a078793          	addi	a5,a5,160 # 800000a0 <metal_segment_heap_target_end+0xffffefd4>
2001389c:	a011                	j	200138a0 <__metal_driver_sifive_plic0_interrupt_parents+0x30>
F:\HiFive-IoT\Workspace\sifive-hifive1-revb-hello\bsp\build\debug/./metal/machine.h:324
	}
	else {
		return NULL;
2001389e:	4781                	li	a5,0
F:\HiFive-IoT\Workspace\sifive-hifive1-revb-hello\bsp\build\debug/./metal/machine.h:326
	}
}
200138a0:	853e                	mv	a0,a5
200138a2:	4472                	lw	s0,28(sp)
200138a4:	6105                	addi	sp,sp,32
200138a6:	8082                	ret

200138a8 <__metal_driver_sifive_plic0_interrupt_lines>:
__metal_driver_sifive_plic0_interrupt_lines():
F:\HiFive-IoT\Workspace\sifive-hifive1-revb-hello\bsp\build\debug/./metal/machine.h:329

static inline int __metal_driver_sifive_plic0_interrupt_lines(struct metal_interrupt *controller, int idx)
{
200138a8:	1101                	addi	sp,sp,-32
200138aa:	ce22                	sw	s0,28(sp)
200138ac:	1000                	addi	s0,sp,32
200138ae:	fea42623          	sw	a0,-20(s0)
200138b2:	feb42423          	sw	a1,-24(s0)
F:\HiFive-IoT\Workspace\sifive-hifive1-revb-hello\bsp\build\debug/./metal/machine.h:330
	if (idx == 0) {
200138b6:	fe842783          	lw	a5,-24(s0)
200138ba:	e399                	bnez	a5,200138c0 <__metal_driver_sifive_plic0_interrupt_lines+0x18>
F:\HiFive-IoT\Workspace\sifive-hifive1-revb-hello\bsp\build\debug/./metal/machine.h:331
		return 11;
200138bc:	47ad                	li	a5,11
200138be:	a039                	j	200138cc <__metal_driver_sifive_plic0_interrupt_lines+0x24>
F:\HiFive-IoT\Workspace\sifive-hifive1-revb-hello\bsp\build\debug/./metal/machine.h:333
	}
	else if (idx == 0) {
200138c0:	fe842783          	lw	a5,-24(s0)
200138c4:	e399                	bnez	a5,200138ca <__metal_driver_sifive_plic0_interrupt_lines+0x22>
F:\HiFive-IoT\Workspace\sifive-hifive1-revb-hello\bsp\build\debug/./metal/machine.h:334
		return 11;
200138c6:	47ad                	li	a5,11
200138c8:	a011                	j	200138cc <__metal_driver_sifive_plic0_interrupt_lines+0x24>
F:\HiFive-IoT\Workspace\sifive-hifive1-revb-hello\bsp\build\debug/./metal/machine.h:337
	}
	else {
		return 0;
200138ca:	4781                	li	a5,0
F:\HiFive-IoT\Workspace\sifive-hifive1-revb-hello\bsp\build\debug/./metal/machine.h:339
	}
}
200138cc:	853e                	mv	a0,a5
200138ce:	4472                	lw	s0,28(sp)
200138d0:	6105                	addi	sp,sp,32
200138d2:	8082                	ret

200138d4 <__metal_plic0_claim_interrupt>:
__metal_plic0_claim_interrupt():
F:/HiFive-IoT/Workspace/sifive-hifive1-revb-hello/freedom-metal/src/drivers/riscv_plic0.c:14
#include <metal/shutdown.h>
#include <metal/drivers/riscv_plic0.h>
#include <metal/machine.h>

unsigned int __metal_plic0_claim_interrupt (struct __metal_driver_riscv_plic0 *plic)
{
200138d4:	7179                	addi	sp,sp,-48
200138d6:	d606                	sw	ra,44(sp)
200138d8:	d422                	sw	s0,40(sp)
200138da:	1800                	addi	s0,sp,48
200138dc:	fca42e23          	sw	a0,-36(s0)
F:/HiFive-IoT/Workspace/sifive-hifive1-revb-hello/freedom-metal/src/drivers/riscv_plic0.c:15
    unsigned long control_base = __metal_driver_sifive_plic0_control_base((struct metal_interrupt *)plic);
200138e0:	fdc42503          	lw	a0,-36(s0)
200138e4:	3f09                	jal	200137f6 <__metal_driver_sifive_plic0_control_base>
200138e6:	fea42623          	sw	a0,-20(s0)
F:/HiFive-IoT/Workspace/sifive-hifive1-revb-hello/freedom-metal/src/drivers/riscv_plic0.c:16
    return __METAL_ACCESS_ONCE((__metal_io_u32 *)(control_base +
200138ea:	fec42703          	lw	a4,-20(s0)
200138ee:	002007b7          	lui	a5,0x200
200138f2:	0791                	addi	a5,a5,4
200138f4:	97ba                	add	a5,a5,a4
200138f6:	439c                	lw	a5,0(a5)
F:/HiFive-IoT/Workspace/sifive-hifive1-revb-hello/freedom-metal/src/drivers/riscv_plic0.c:18
					      METAL_RISCV_PLIC0_CLAIM));
}
200138f8:	853e                	mv	a0,a5
200138fa:	50b2                	lw	ra,44(sp)
200138fc:	5422                	lw	s0,40(sp)
200138fe:	6145                	addi	sp,sp,48
20013900:	8082                	ret

20013902 <__metal_plic0_complete_interrupt>:
__metal_plic0_complete_interrupt():
F:/HiFive-IoT/Workspace/sifive-hifive1-revb-hello/freedom-metal/src/drivers/riscv_plic0.c:22

void __metal_plic0_complete_interrupt(struct __metal_driver_riscv_plic0 *plic,
				    unsigned int id)
{
20013902:	7179                	addi	sp,sp,-48
20013904:	d606                	sw	ra,44(sp)
20013906:	d422                	sw	s0,40(sp)
20013908:	1800                	addi	s0,sp,48
2001390a:	fca42e23          	sw	a0,-36(s0)
2001390e:	fcb42c23          	sw	a1,-40(s0)
F:/HiFive-IoT/Workspace/sifive-hifive1-revb-hello/freedom-metal/src/drivers/riscv_plic0.c:23
    unsigned long control_base = __metal_driver_sifive_plic0_control_base((struct metal_interrupt *)plic);
20013912:	fdc42503          	lw	a0,-36(s0)
20013916:	35c5                	jal	200137f6 <__metal_driver_sifive_plic0_control_base>
20013918:	fea42623          	sw	a0,-20(s0)
F:/HiFive-IoT/Workspace/sifive-hifive1-revb-hello/freedom-metal/src/drivers/riscv_plic0.c:24
    __METAL_ACCESS_ONCE((__metal_io_u32 *)(control_base +
2001391c:	fec42703          	lw	a4,-20(s0)
20013920:	002007b7          	lui	a5,0x200
20013924:	0791                	addi	a5,a5,4
20013926:	97ba                	add	a5,a5,a4
20013928:	873e                	mv	a4,a5
F:/HiFive-IoT/Workspace/sifive-hifive1-revb-hello/freedom-metal/src/drivers/riscv_plic0.c:25
				       METAL_RISCV_PLIC0_CLAIM)) = id;
2001392a:	fd842783          	lw	a5,-40(s0)
2001392e:	c31c                	sw	a5,0(a4)
F:/HiFive-IoT/Workspace/sifive-hifive1-revb-hello/freedom-metal/src/drivers/riscv_plic0.c:26
}
20013930:	0001                	nop
20013932:	50b2                	lw	ra,44(sp)
20013934:	5422                	lw	s0,40(sp)
20013936:	6145                	addi	sp,sp,48
20013938:	8082                	ret

2001393a <__metal_plic0_set_threshold>:
__metal_plic0_set_threshold():
F:/HiFive-IoT/Workspace/sifive-hifive1-revb-hello/freedom-metal/src/drivers/riscv_plic0.c:30

void __metal_plic0_set_threshold(struct __metal_driver_riscv_plic0 *plic,
			       unsigned int threshold)
{
2001393a:	7179                	addi	sp,sp,-48
2001393c:	d606                	sw	ra,44(sp)
2001393e:	d422                	sw	s0,40(sp)
20013940:	1800                	addi	s0,sp,48
20013942:	fca42e23          	sw	a0,-36(s0)
20013946:	fcb42c23          	sw	a1,-40(s0)
F:/HiFive-IoT/Workspace/sifive-hifive1-revb-hello/freedom-metal/src/drivers/riscv_plic0.c:31
    unsigned long control_base = __metal_driver_sifive_plic0_control_base((struct metal_interrupt *)plic);
2001394a:	fdc42503          	lw	a0,-36(s0)
2001394e:	3565                	jal	200137f6 <__metal_driver_sifive_plic0_control_base>
20013950:	fea42623          	sw	a0,-20(s0)
F:/HiFive-IoT/Workspace/sifive-hifive1-revb-hello/freedom-metal/src/drivers/riscv_plic0.c:32
    __METAL_ACCESS_ONCE((__metal_io_u32 *)(control_base +
20013954:	fec42703          	lw	a4,-20(s0)
20013958:	002007b7          	lui	a5,0x200
2001395c:	97ba                	add	a5,a5,a4
2001395e:	873e                	mv	a4,a5
F:/HiFive-IoT/Workspace/sifive-hifive1-revb-hello/freedom-metal/src/drivers/riscv_plic0.c:33
				       METAL_RISCV_PLIC0_THRESHOLD)) = threshold;
20013960:	fd842783          	lw	a5,-40(s0)
20013964:	c31c                	sw	a5,0(a4)
F:/HiFive-IoT/Workspace/sifive-hifive1-revb-hello/freedom-metal/src/drivers/riscv_plic0.c:34
}
20013966:	0001                	nop
20013968:	50b2                	lw	ra,44(sp)
2001396a:	5422                	lw	s0,40(sp)
2001396c:	6145                	addi	sp,sp,48
2001396e:	8082                	ret

20013970 <__metal_plic0_set_priority>:
__metal_plic0_set_priority():
F:/HiFive-IoT/Workspace/sifive-hifive1-revb-hello/freedom-metal/src/drivers/riscv_plic0.c:38

void __metal_plic0_set_priority(struct __metal_driver_riscv_plic0 *plic,
			      int id, unsigned int priority)
{
20013970:	7179                	addi	sp,sp,-48
20013972:	d606                	sw	ra,44(sp)
20013974:	d422                	sw	s0,40(sp)
20013976:	1800                	addi	s0,sp,48
20013978:	fca42e23          	sw	a0,-36(s0)
2001397c:	fcb42c23          	sw	a1,-40(s0)
20013980:	fcc42a23          	sw	a2,-44(s0)
F:/HiFive-IoT/Workspace/sifive-hifive1-revb-hello/freedom-metal/src/drivers/riscv_plic0.c:39
    unsigned long control_base = __metal_driver_sifive_plic0_control_base((struct metal_interrupt *)plic);
20013984:	fdc42503          	lw	a0,-36(s0)
20013988:	35bd                	jal	200137f6 <__metal_driver_sifive_plic0_control_base>
2001398a:	fea42623          	sw	a0,-20(s0)
F:/HiFive-IoT/Workspace/sifive-hifive1-revb-hello/freedom-metal/src/drivers/riscv_plic0.c:40
    int max_priority = __metal_driver_sifive_plic0_max_priority((struct metal_interrupt *)plic);
2001398e:	fdc42503          	lw	a0,-36(s0)
20013992:	3d5d                	jal	20013848 <__metal_driver_sifive_plic0_max_priority>
20013994:	fea42423          	sw	a0,-24(s0)
F:/HiFive-IoT/Workspace/sifive-hifive1-revb-hello/freedom-metal/src/drivers/riscv_plic0.c:41
    if ( (max_priority) && (priority < max_priority) ) {
20013998:	fe842783          	lw	a5,-24(s0)
2001399c:	c395                	beqz	a5,200139c0 <__metal_plic0_set_priority+0x50>
F:/HiFive-IoT/Workspace/sifive-hifive1-revb-hello/freedom-metal/src/drivers/riscv_plic0.c:41 (discriminator 1)
2001399e:	fe842783          	lw	a5,-24(s0)
200139a2:	fd442703          	lw	a4,-44(s0)
200139a6:	00f77d63          	bgeu	a4,a5,200139c0 <__metal_plic0_set_priority+0x50>
F:/HiFive-IoT/Workspace/sifive-hifive1-revb-hello/freedom-metal/src/drivers/riscv_plic0.c:42
        __METAL_ACCESS_ONCE((__metal_io_u32 *)(control_base +
200139aa:	fd842783          	lw	a5,-40(s0)
200139ae:	078a                	slli	a5,a5,0x2
200139b0:	873e                	mv	a4,a5
200139b2:	fec42783          	lw	a5,-20(s0)
200139b6:	97ba                	add	a5,a5,a4
200139b8:	873e                	mv	a4,a5
F:/HiFive-IoT/Workspace/sifive-hifive1-revb-hello/freedom-metal/src/drivers/riscv_plic0.c:44
					   METAL_RISCV_PLIC0_PRIORITY_BASE +
					   (id << METAL_PLIC_SOURCE_PRIORITY_SHIFT))) = priority;
200139ba:	fd442783          	lw	a5,-44(s0)
200139be:	c31c                	sw	a5,0(a4)
F:/HiFive-IoT/Workspace/sifive-hifive1-revb-hello/freedom-metal/src/drivers/riscv_plic0.c:46
    }
}
200139c0:	0001                	nop
200139c2:	50b2                	lw	ra,44(sp)
200139c4:	5422                	lw	s0,40(sp)
200139c6:	6145                	addi	sp,sp,48
200139c8:	8082                	ret

200139ca <__metal_plic0_enable>:
__metal_plic0_enable():
F:/HiFive-IoT/Workspace/sifive-hifive1-revb-hello/freedom-metal/src/drivers/riscv_plic0.c:49

void __metal_plic0_enable(struct __metal_driver_riscv_plic0 *plic, int id, int enable)
{
200139ca:	7179                	addi	sp,sp,-48
200139cc:	d606                	sw	ra,44(sp)
200139ce:	d422                	sw	s0,40(sp)
200139d0:	1800                	addi	s0,sp,48
200139d2:	fca42e23          	sw	a0,-36(s0)
200139d6:	fcb42c23          	sw	a1,-40(s0)
200139da:	fcc42a23          	sw	a2,-44(s0)
F:/HiFive-IoT/Workspace/sifive-hifive1-revb-hello/freedom-metal/src/drivers/riscv_plic0.c:51
    unsigned int current;
    unsigned long hartid = __metal_myhart_id();
200139de:	8c2ff0ef          	jal	ra,20012aa0 <__metal_myhart_id>
200139e2:	fea42623          	sw	a0,-20(s0)
F:/HiFive-IoT/Workspace/sifive-hifive1-revb-hello/freedom-metal/src/drivers/riscv_plic0.c:52
    unsigned long control_base = __metal_driver_sifive_plic0_control_base((struct metal_interrupt *)plic);
200139e6:	fdc42503          	lw	a0,-36(s0)
200139ea:	3531                	jal	200137f6 <__metal_driver_sifive_plic0_control_base>
200139ec:	fea42423          	sw	a0,-24(s0)
F:/HiFive-IoT/Workspace/sifive-hifive1-revb-hello/freedom-metal/src/drivers/riscv_plic0.c:54

    current = __METAL_ACCESS_ONCE((__metal_io_u32 *)(control_base +
200139f0:	fd842783          	lw	a5,-40(s0)
200139f4:	8795                	srai	a5,a5,0x5
200139f6:	078a                	slli	a5,a5,0x2
200139f8:	873e                	mv	a4,a5
200139fa:	fe842783          	lw	a5,-24(s0)
200139fe:	973e                	add	a4,a4,a5
20013a00:	6789                	lui	a5,0x2
20013a02:	97ba                	add	a5,a5,a4
20013a04:	439c                	lw	a5,0(a5)
20013a06:	fef42223          	sw	a5,-28(s0)
F:/HiFive-IoT/Workspace/sifive-hifive1-revb-hello/freedom-metal/src/drivers/riscv_plic0.c:61
						(id >> METAL_PLIC_SOURCE_SHIFT) * 4));
    __METAL_ACCESS_ONCE((__metal_io_u32 *)(control_base +
					METAL_RISCV_PLIC0_ENABLE_BASE +
					((id >> METAL_PLIC_SOURCE_SHIFT) * 4))) =
              enable ? (current | (1 << (id & METAL_PLIC_SOURCE_MASK)))
                     : (current & ~(1 << (id & METAL_PLIC_SOURCE_MASK)));
20013a0a:	fd442783          	lw	a5,-44(s0)
20013a0e:	cf81                	beqz	a5,20013a26 <__metal_plic0_enable+0x5c>
F:/HiFive-IoT/Workspace/sifive-hifive1-revb-hello/freedom-metal/src/drivers/riscv_plic0.c:60 (discriminator 1)
              enable ? (current | (1 << (id & METAL_PLIC_SOURCE_MASK)))
20013a10:	fd842783          	lw	a5,-40(s0)
20013a14:	8bfd                	andi	a5,a5,31
20013a16:	4705                	li	a4,1
20013a18:	00f717b3          	sll	a5,a4,a5
20013a1c:	873e                	mv	a4,a5
F:/HiFive-IoT/Workspace/sifive-hifive1-revb-hello/freedom-metal/src/drivers/riscv_plic0.c:61 (discriminator 1)
                     : (current & ~(1 << (id & METAL_PLIC_SOURCE_MASK)));
20013a1e:	fe442783          	lw	a5,-28(s0)
20013a22:	8fd9                	or	a5,a5,a4
20013a24:	a829                	j	20013a3e <__metal_plic0_enable+0x74>
F:/HiFive-IoT/Workspace/sifive-hifive1-revb-hello/freedom-metal/src/drivers/riscv_plic0.c:61 (discriminator 2)
20013a26:	fd842783          	lw	a5,-40(s0)
20013a2a:	8bfd                	andi	a5,a5,31
20013a2c:	4705                	li	a4,1
20013a2e:	00f717b3          	sll	a5,a4,a5
20013a32:	fff7c793          	not	a5,a5
20013a36:	873e                	mv	a4,a5
20013a38:	fe442783          	lw	a5,-28(s0)
20013a3c:	8ff9                	and	a5,a5,a4
F:/HiFive-IoT/Workspace/sifive-hifive1-revb-hello/freedom-metal/src/drivers/riscv_plic0.c:57
    __METAL_ACCESS_ONCE((__metal_io_u32 *)(control_base +
20013a3e:	fd842703          	lw	a4,-40(s0)
20013a42:	8715                	srai	a4,a4,0x5
20013a44:	070a                	slli	a4,a4,0x2
20013a46:	86ba                	mv	a3,a4
20013a48:	fe842703          	lw	a4,-24(s0)
20013a4c:	96ba                	add	a3,a3,a4
20013a4e:	6709                	lui	a4,0x2
20013a50:	9736                	add	a4,a4,a3
F:/HiFive-IoT/Workspace/sifive-hifive1-revb-hello/freedom-metal/src/drivers/riscv_plic0.c:59
					((id >> METAL_PLIC_SOURCE_SHIFT) * 4))) =
20013a52:	c31c                	sw	a5,0(a4)
F:/HiFive-IoT/Workspace/sifive-hifive1-revb-hello/freedom-metal/src/drivers/riscv_plic0.c:62
}
20013a54:	0001                	nop
20013a56:	50b2                	lw	ra,44(sp)
20013a58:	5422                	lw	s0,40(sp)
20013a5a:	6145                	addi	sp,sp,48
20013a5c:	8082                	ret

20013a5e <__metal_plic0_default_handler>:
__metal_plic0_default_handler():
F:/HiFive-IoT/Workspace/sifive-hifive1-revb-hello/freedom-metal/src/drivers/riscv_plic0.c:64

void __metal_plic0_default_handler (int id, void *priv) {
20013a5e:	1101                	addi	sp,sp,-32
20013a60:	ce06                	sw	ra,28(sp)
20013a62:	cc22                	sw	s0,24(sp)
20013a64:	1000                	addi	s0,sp,32
20013a66:	fea42623          	sw	a0,-20(s0)
20013a6a:	feb42423          	sw	a1,-24(s0)
F:/HiFive-IoT/Workspace/sifive-hifive1-revb-hello/freedom-metal/src/drivers/riscv_plic0.c:65
    metal_shutdown(300);
20013a6e:	12c00513          	li	a0,300
20013a72:	1b9010ef          	jal	ra,2001542a <metal_shutdown>

20013a76 <__metal_plic0_handler>:
__metal_plic0_handler():
F:/HiFive-IoT/Workspace/sifive-hifive1-revb-hello/freedom-metal/src/drivers/riscv_plic0.c:69
}

void __metal_plic0_handler (int id, void *priv)
{
20013a76:	7179                	addi	sp,sp,-48
20013a78:	d606                	sw	ra,44(sp)
20013a7a:	d422                	sw	s0,40(sp)
20013a7c:	1800                	addi	s0,sp,48
20013a7e:	fca42e23          	sw	a0,-36(s0)
20013a82:	fcb42c23          	sw	a1,-40(s0)
F:/HiFive-IoT/Workspace/sifive-hifive1-revb-hello/freedom-metal/src/drivers/riscv_plic0.c:70
    struct __metal_driver_riscv_plic0 *plic = priv;
20013a86:	fd842783          	lw	a5,-40(s0)
20013a8a:	fef42623          	sw	a5,-20(s0)
F:/HiFive-IoT/Workspace/sifive-hifive1-revb-hello/freedom-metal/src/drivers/riscv_plic0.c:71
    unsigned int idx = __metal_plic0_claim_interrupt(plic);
20013a8e:	fec42503          	lw	a0,-20(s0)
20013a92:	3589                	jal	200138d4 <__metal_plic0_claim_interrupt>
20013a94:	fea42423          	sw	a0,-24(s0)
F:/HiFive-IoT/Workspace/sifive-hifive1-revb-hello/freedom-metal/src/drivers/riscv_plic0.c:72
    int num_interrupts = __metal_driver_sifive_plic0_num_interrupts((struct metal_interrupt *)plic);
20013a98:	fec42503          	lw	a0,-20(s0)
20013a9c:	d85ff0ef          	jal	ra,20013820 <__metal_driver_sifive_plic0_num_interrupts>
20013aa0:	fea42223          	sw	a0,-28(s0)
F:/HiFive-IoT/Workspace/sifive-hifive1-revb-hello/freedom-metal/src/drivers/riscv_plic0.c:74

    if ( (idx < num_interrupts) && (plic->metal_exint_table[idx]) ) {
20013aa4:	fe442783          	lw	a5,-28(s0)
20013aa8:	fe842703          	lw	a4,-24(s0)
20013aac:	04f77263          	bgeu	a4,a5,20013af0 <__metal_plic0_handler+0x7a>
F:/HiFive-IoT/Workspace/sifive-hifive1-revb-hello/freedom-metal/src/drivers/riscv_plic0.c:74 (discriminator 1)
20013ab0:	fec42703          	lw	a4,-20(s0)
20013ab4:	fe842783          	lw	a5,-24(s0)
20013ab8:	078a                	slli	a5,a5,0x2
20013aba:	97ba                	add	a5,a5,a4
20013abc:	479c                	lw	a5,8(a5)
20013abe:	cb8d                	beqz	a5,20013af0 <__metal_plic0_handler+0x7a>
F:/HiFive-IoT/Workspace/sifive-hifive1-revb-hello/freedom-metal/src/drivers/riscv_plic0.c:75
	plic->metal_exint_table[idx](idx,
20013ac0:	fec42703          	lw	a4,-20(s0)
20013ac4:	fe842783          	lw	a5,-24(s0)
20013ac8:	078a                	slli	a5,a5,0x2
20013aca:	97ba                	add	a5,a5,a4
20013acc:	0087a803          	lw	a6,8(a5) # 2008 <__heap_size+0x1c08>
20013ad0:	fe842603          	lw	a2,-24(s0)
20013ad4:	fec42683          	lw	a3,-20(s0)
20013ad8:	fe842703          	lw	a4,-24(s0)
20013adc:	87ba                	mv	a5,a4
20013ade:	0786                	slli	a5,a5,0x1
20013ae0:	97ba                	add	a5,a5,a4
20013ae2:	078e                	slli	a5,a5,0x3
20013ae4:	97b6                	add	a5,a5,a3
20013ae6:	0887a783          	lw	a5,136(a5)
20013aea:	85be                	mv	a1,a5
20013aec:	8532                	mv	a0,a2
20013aee:	9802                	jalr	a6
F:/HiFive-IoT/Workspace/sifive-hifive1-revb-hello/freedom-metal/src/drivers/riscv_plic0.c:79
				  plic->metal_exdata_table[idx].exint_data);
    }

    __metal_plic0_complete_interrupt(plic, idx);
20013af0:	fe842583          	lw	a1,-24(s0)
20013af4:	fec42503          	lw	a0,-20(s0)
20013af8:	3529                	jal	20013902 <__metal_plic0_complete_interrupt>
F:/HiFive-IoT/Workspace/sifive-hifive1-revb-hello/freedom-metal/src/drivers/riscv_plic0.c:80
}
20013afa:	0001                	nop
20013afc:	50b2                	lw	ra,44(sp)
20013afe:	5422                	lw	s0,40(sp)
20013b00:	6145                	addi	sp,sp,48
20013b02:	8082                	ret

20013b04 <__metal_driver_riscv_plic0_init>:
__metal_driver_riscv_plic0_init():
F:/HiFive-IoT/Workspace/sifive-hifive1-revb-hello/freedom-metal/src/drivers/riscv_plic0.c:83

void __metal_driver_riscv_plic0_init (struct metal_interrupt *controller)
{
20013b04:	7139                	addi	sp,sp,-64
20013b06:	de06                	sw	ra,60(sp)
20013b08:	dc22                	sw	s0,56(sp)
20013b0a:	0080                	addi	s0,sp,64
20013b0c:	fca42623          	sw	a0,-52(s0)
F:/HiFive-IoT/Workspace/sifive-hifive1-revb-hello/freedom-metal/src/drivers/riscv_plic0.c:84
    struct __metal_driver_riscv_plic0 *plic = (void *)(controller);
20013b10:	fcc42783          	lw	a5,-52(s0)
20013b14:	fef42223          	sw	a5,-28(s0)
F:/HiFive-IoT/Workspace/sifive-hifive1-revb-hello/freedom-metal/src/drivers/riscv_plic0.c:86

    if ( !plic->init_done ) {
20013b18:	fe442783          	lw	a5,-28(s0)
20013b1c:	43dc                	lw	a5,4(a5)
20013b1e:	12079063          	bnez	a5,20013c3e <__metal_driver_riscv_plic0_init+0x13a>
F:/HiFive-IoT/Workspace/sifive-hifive1-revb-hello/freedom-metal/src/drivers/riscv_plic0.c:90
        int num_interrupts, line;
        struct metal_interrupt *intc;

	for(int parent = 0; parent < __METAL_PLIC_NUM_PARENTS; parent++) {
20013b22:	fe042623          	sw	zero,-20(s0)
20013b26:	a221                	j	20013c2e <__metal_driver_riscv_plic0_init+0x12a>
F:/HiFive-IoT/Workspace/sifive-hifive1-revb-hello/freedom-metal/src/drivers/riscv_plic0.c:91
	    num_interrupts = __metal_driver_sifive_plic0_num_interrupts(controller);
20013b28:	fcc42503          	lw	a0,-52(s0)
20013b2c:	cf5ff0ef          	jal	ra,20013820 <__metal_driver_sifive_plic0_num_interrupts>
20013b30:	fea42023          	sw	a0,-32(s0)
F:/HiFive-IoT/Workspace/sifive-hifive1-revb-hello/freedom-metal/src/drivers/riscv_plic0.c:92
	    intc = __metal_driver_sifive_plic0_interrupt_parents(controller, parent);
20013b34:	fec42583          	lw	a1,-20(s0)
20013b38:	fcc42503          	lw	a0,-52(s0)
20013b3c:	d35ff0ef          	jal	ra,20013870 <__metal_driver_sifive_plic0_interrupt_parents>
20013b40:	fca42e23          	sw	a0,-36(s0)
F:/HiFive-IoT/Workspace/sifive-hifive1-revb-hello/freedom-metal/src/drivers/riscv_plic0.c:93
	    line = __metal_driver_sifive_plic0_interrupt_lines(controller, parent);
20013b44:	fec42583          	lw	a1,-20(s0)
20013b48:	fcc42503          	lw	a0,-52(s0)
20013b4c:	d5dff0ef          	jal	ra,200138a8 <__metal_driver_sifive_plic0_interrupt_lines>
20013b50:	fca42c23          	sw	a0,-40(s0)
F:/HiFive-IoT/Workspace/sifive-hifive1-revb-hello/freedom-metal/src/drivers/riscv_plic0.c:96

	    /* Initialize ist parent controller, aka cpu_intc. */
	    intc->vtable->interrupt_init(intc);
20013b54:	fdc42783          	lw	a5,-36(s0)
20013b58:	439c                	lw	a5,0(a5)
20013b5a:	439c                	lw	a5,0(a5)
20013b5c:	fdc42503          	lw	a0,-36(s0)
20013b60:	9782                	jalr	a5
F:/HiFive-IoT/Workspace/sifive-hifive1-revb-hello/freedom-metal/src/drivers/riscv_plic0.c:98

	    for (int i = 0; i < num_interrupts; i++) {
20013b62:	fe042423          	sw	zero,-24(s0)
20013b66:	a085                	j	20013bc6 <__metal_driver_riscv_plic0_init+0xc2>
F:/HiFive-IoT/Workspace/sifive-hifive1-revb-hello/freedom-metal/src/drivers/riscv_plic0.c:99 (discriminator 3)
		__metal_plic0_enable(plic, i, METAL_DISABLE);
20013b68:	4601                	li	a2,0
20013b6a:	fe842583          	lw	a1,-24(s0)
20013b6e:	fe442503          	lw	a0,-28(s0)
20013b72:	3da1                	jal	200139ca <__metal_plic0_enable>
F:/HiFive-IoT/Workspace/sifive-hifive1-revb-hello/freedom-metal/src/drivers/riscv_plic0.c:100 (discriminator 3)
		__metal_plic0_set_priority(plic, i, 0);
20013b74:	4601                	li	a2,0
20013b76:	fe842583          	lw	a1,-24(s0)
20013b7a:	fe442503          	lw	a0,-28(s0)
20013b7e:	3bcd                	jal	20013970 <__metal_plic0_set_priority>
F:/HiFive-IoT/Workspace/sifive-hifive1-revb-hello/freedom-metal/src/drivers/riscv_plic0.c:101 (discriminator 3)
		plic->metal_exint_table[i] = NULL;
20013b80:	fe442703          	lw	a4,-28(s0)
20013b84:	fe842783          	lw	a5,-24(s0)
20013b88:	078a                	slli	a5,a5,0x2
20013b8a:	97ba                	add	a5,a5,a4
20013b8c:	0007a423          	sw	zero,8(a5)
F:/HiFive-IoT/Workspace/sifive-hifive1-revb-hello/freedom-metal/src/drivers/riscv_plic0.c:102 (discriminator 3)
		plic->metal_exdata_table[i].sub_int = NULL;
20013b90:	fe442683          	lw	a3,-28(s0)
20013b94:	fe842703          	lw	a4,-24(s0)
20013b98:	87ba                	mv	a5,a4
20013b9a:	0786                	slli	a5,a5,0x1
20013b9c:	97ba                	add	a5,a5,a4
20013b9e:	078e                	slli	a5,a5,0x3
20013ba0:	97b6                	add	a5,a5,a3
20013ba2:	0807a223          	sw	zero,132(a5)
F:/HiFive-IoT/Workspace/sifive-hifive1-revb-hello/freedom-metal/src/drivers/riscv_plic0.c:103 (discriminator 3)
		plic->metal_exdata_table[i].exint_data = NULL;
20013ba6:	fe442683          	lw	a3,-28(s0)
20013baa:	fe842703          	lw	a4,-24(s0)
20013bae:	87ba                	mv	a5,a4
20013bb0:	0786                	slli	a5,a5,0x1
20013bb2:	97ba                	add	a5,a5,a4
20013bb4:	078e                	slli	a5,a5,0x3
20013bb6:	97b6                	add	a5,a5,a3
20013bb8:	0807a423          	sw	zero,136(a5)
F:/HiFive-IoT/Workspace/sifive-hifive1-revb-hello/freedom-metal/src/drivers/riscv_plic0.c:98 (discriminator 3)
	    for (int i = 0; i < num_interrupts; i++) {
20013bbc:	fe842783          	lw	a5,-24(s0)
20013bc0:	0785                	addi	a5,a5,1
20013bc2:	fef42423          	sw	a5,-24(s0)
F:/HiFive-IoT/Workspace/sifive-hifive1-revb-hello/freedom-metal/src/drivers/riscv_plic0.c:98 (discriminator 1)
20013bc6:	fe842703          	lw	a4,-24(s0)
20013bca:	fe042783          	lw	a5,-32(s0)
20013bce:	f8f74de3          	blt	a4,a5,20013b68 <__metal_driver_riscv_plic0_init+0x64>
F:/HiFive-IoT/Workspace/sifive-hifive1-revb-hello/freedom-metal/src/drivers/riscv_plic0.c:106 (discriminator 2)
	    }

	    __metal_plic0_set_threshold(plic, 0);
20013bd2:	4581                	li	a1,0
20013bd4:	fe442503          	lw	a0,-28(s0)
20013bd8:	d63ff0ef          	jal	ra,2001393a <__metal_plic0_set_threshold>
F:/HiFive-IoT/Workspace/sifive-hifive1-revb-hello/freedom-metal/src/drivers/riscv_plic0.c:109 (discriminator 2)

	    /* Register plic (ext) interrupt with with parent controller */
	    intc->vtable->interrupt_register(intc, line, NULL, plic);
20013bdc:	fdc42783          	lw	a5,-36(s0)
20013be0:	439c                	lw	a5,0(a5)
20013be2:	43dc                	lw	a5,4(a5)
20013be4:	fe442683          	lw	a3,-28(s0)
20013be8:	4601                	li	a2,0
20013bea:	fd842583          	lw	a1,-40(s0)
20013bee:	fdc42503          	lw	a0,-36(s0)
20013bf2:	9782                	jalr	a5
F:/HiFive-IoT/Workspace/sifive-hifive1-revb-hello/freedom-metal/src/drivers/riscv_plic0.c:111 (discriminator 2)
	    /* Register plic handler for dispatching its device interrupts */
	    intc->vtable->interrupt_register(intc, line, __metal_plic0_handler, plic);
20013bf4:	fdc42783          	lw	a5,-36(s0)
20013bf8:	439c                	lw	a5,0(a5)
20013bfa:	43d8                	lw	a4,4(a5)
20013bfc:	fe442683          	lw	a3,-28(s0)
20013c00:	200147b7          	lui	a5,0x20014
20013c04:	a7678613          	addi	a2,a5,-1418 # 20013a76 <__metal_plic0_handler>
20013c08:	fd842583          	lw	a1,-40(s0)
20013c0c:	fdc42503          	lw	a0,-36(s0)
20013c10:	9702                	jalr	a4
F:/HiFive-IoT/Workspace/sifive-hifive1-revb-hello/freedom-metal/src/drivers/riscv_plic0.c:113 (discriminator 2)
	    /* Enable plic (ext) interrupt with with parent controller */
	    intc->vtable->interrupt_enable(intc, line);
20013c12:	fdc42783          	lw	a5,-36(s0)
20013c16:	439c                	lw	a5,0(a5)
20013c18:	479c                	lw	a5,8(a5)
20013c1a:	fd842583          	lw	a1,-40(s0)
20013c1e:	fdc42503          	lw	a0,-36(s0)
20013c22:	9782                	jalr	a5
F:/HiFive-IoT/Workspace/sifive-hifive1-revb-hello/freedom-metal/src/drivers/riscv_plic0.c:90 (discriminator 2)
	for(int parent = 0; parent < __METAL_PLIC_NUM_PARENTS; parent++) {
20013c24:	fec42783          	lw	a5,-20(s0)
20013c28:	0785                	addi	a5,a5,1
20013c2a:	fef42623          	sw	a5,-20(s0)
F:/HiFive-IoT/Workspace/sifive-hifive1-revb-hello/freedom-metal/src/drivers/riscv_plic0.c:90 (discriminator 1)
20013c2e:	fec42783          	lw	a5,-20(s0)
20013c32:	eef05be3          	blez	a5,20013b28 <__metal_driver_riscv_plic0_init+0x24>
F:/HiFive-IoT/Workspace/sifive-hifive1-revb-hello/freedom-metal/src/drivers/riscv_plic0.c:115
	}
        plic->init_done = 1;
20013c36:	fe442783          	lw	a5,-28(s0)
20013c3a:	4705                	li	a4,1
20013c3c:	c3d8                	sw	a4,4(a5)
F:/HiFive-IoT/Workspace/sifive-hifive1-revb-hello/freedom-metal/src/drivers/riscv_plic0.c:117
    }
}
20013c3e:	0001                	nop
20013c40:	50f2                	lw	ra,60(sp)
20013c42:	5462                	lw	s0,56(sp)
20013c44:	6121                	addi	sp,sp,64
20013c46:	8082                	ret

20013c48 <__metal_driver_riscv_plic0_register>:
__metal_driver_riscv_plic0_register():
F:/HiFive-IoT/Workspace/sifive-hifive1-revb-hello/freedom-metal/src/drivers/riscv_plic0.c:122

int __metal_driver_riscv_plic0_register (struct metal_interrupt *controller,
			               int id, metal_interrupt_handler_t isr,
			               void *priv)
{
20013c48:	7179                	addi	sp,sp,-48
20013c4a:	d606                	sw	ra,44(sp)
20013c4c:	d422                	sw	s0,40(sp)
20013c4e:	1800                	addi	s0,sp,48
20013c50:	fca42e23          	sw	a0,-36(s0)
20013c54:	fcb42c23          	sw	a1,-40(s0)
20013c58:	fcc42a23          	sw	a2,-44(s0)
20013c5c:	fcd42823          	sw	a3,-48(s0)
F:/HiFive-IoT/Workspace/sifive-hifive1-revb-hello/freedom-metal/src/drivers/riscv_plic0.c:123
    struct __metal_driver_riscv_plic0 *plic = (void *)(controller);
20013c60:	fdc42783          	lw	a5,-36(s0)
20013c64:	fef42623          	sw	a5,-20(s0)
F:/HiFive-IoT/Workspace/sifive-hifive1-revb-hello/freedom-metal/src/drivers/riscv_plic0.c:125

    if (id >= __metal_driver_sifive_plic0_num_interrupts(controller)) {
20013c68:	fdc42503          	lw	a0,-36(s0)
20013c6c:	bb5ff0ef          	jal	ra,20013820 <__metal_driver_sifive_plic0_num_interrupts>
20013c70:	872a                	mv	a4,a0
20013c72:	fd842783          	lw	a5,-40(s0)
20013c76:	00e7c463          	blt	a5,a4,20013c7e <__metal_driver_riscv_plic0_register+0x36>
F:/HiFive-IoT/Workspace/sifive-hifive1-revb-hello/freedom-metal/src/drivers/riscv_plic0.c:126
        return -1;
20013c7a:	57fd                	li	a5,-1
20013c7c:	a051                	j	20013d00 <__metal_driver_riscv_plic0_register+0xb8>
F:/HiFive-IoT/Workspace/sifive-hifive1-revb-hello/freedom-metal/src/drivers/riscv_plic0.c:129
    }
 
    if (isr) {
20013c7e:	fd442783          	lw	a5,-44(s0)
20013c82:	cf9d                	beqz	a5,20013cc0 <__metal_driver_riscv_plic0_register+0x78>
F:/HiFive-IoT/Workspace/sifive-hifive1-revb-hello/freedom-metal/src/drivers/riscv_plic0.c:130
        __metal_plic0_set_priority(plic ,id, 2);
20013c84:	4609                	li	a2,2
20013c86:	fd842583          	lw	a1,-40(s0)
20013c8a:	fec42503          	lw	a0,-20(s0)
20013c8e:	ce3ff0ef          	jal	ra,20013970 <__metal_plic0_set_priority>
F:/HiFive-IoT/Workspace/sifive-hifive1-revb-hello/freedom-metal/src/drivers/riscv_plic0.c:131
	plic->metal_exint_table[id] = isr;
20013c92:	fec42703          	lw	a4,-20(s0)
20013c96:	fd842783          	lw	a5,-40(s0)
20013c9a:	078a                	slli	a5,a5,0x2
20013c9c:	97ba                	add	a5,a5,a4
20013c9e:	fd442703          	lw	a4,-44(s0)
20013ca2:	c798                	sw	a4,8(a5)
F:/HiFive-IoT/Workspace/sifive-hifive1-revb-hello/freedom-metal/src/drivers/riscv_plic0.c:132
	plic->metal_exdata_table[id].exint_data = priv;
20013ca4:	fec42683          	lw	a3,-20(s0)
20013ca8:	fd842703          	lw	a4,-40(s0)
20013cac:	87ba                	mv	a5,a4
20013cae:	0786                	slli	a5,a5,0x1
20013cb0:	97ba                	add	a5,a5,a4
20013cb2:	078e                	slli	a5,a5,0x3
20013cb4:	97b6                	add	a5,a5,a3
20013cb6:	fd042703          	lw	a4,-48(s0)
20013cba:	08e7a423          	sw	a4,136(a5)
20013cbe:	a081                	j	20013cfe <__metal_driver_riscv_plic0_register+0xb6>
F:/HiFive-IoT/Workspace/sifive-hifive1-revb-hello/freedom-metal/src/drivers/riscv_plic0.c:134
    } else {
        __metal_plic0_set_priority(plic, id, 1);
20013cc0:	4605                	li	a2,1
20013cc2:	fd842583          	lw	a1,-40(s0)
20013cc6:	fec42503          	lw	a0,-20(s0)
20013cca:	ca7ff0ef          	jal	ra,20013970 <__metal_plic0_set_priority>
F:/HiFive-IoT/Workspace/sifive-hifive1-revb-hello/freedom-metal/src/drivers/riscv_plic0.c:135
	plic->metal_exint_table[id] = __metal_plic0_default_handler;
20013cce:	fec42703          	lw	a4,-20(s0)
20013cd2:	fd842783          	lw	a5,-40(s0)
20013cd6:	078a                	slli	a5,a5,0x2
20013cd8:	97ba                	add	a5,a5,a4
20013cda:	20014737          	lui	a4,0x20014
20013cde:	a5e70713          	addi	a4,a4,-1442 # 20013a5e <__metal_plic0_default_handler>
20013ce2:	c798                	sw	a4,8(a5)
F:/HiFive-IoT/Workspace/sifive-hifive1-revb-hello/freedom-metal/src/drivers/riscv_plic0.c:136
	plic->metal_exdata_table[id].sub_int = priv;
20013ce4:	fec42683          	lw	a3,-20(s0)
20013ce8:	fd842703          	lw	a4,-40(s0)
20013cec:	87ba                	mv	a5,a4
20013cee:	0786                	slli	a5,a5,0x1
20013cf0:	97ba                	add	a5,a5,a4
20013cf2:	078e                	slli	a5,a5,0x3
20013cf4:	97b6                	add	a5,a5,a3
20013cf6:	fd042703          	lw	a4,-48(s0)
20013cfa:	08e7a223          	sw	a4,132(a5)
F:/HiFive-IoT/Workspace/sifive-hifive1-revb-hello/freedom-metal/src/drivers/riscv_plic0.c:139
    }

    return 0;
20013cfe:	4781                	li	a5,0
F:/HiFive-IoT/Workspace/sifive-hifive1-revb-hello/freedom-metal/src/drivers/riscv_plic0.c:140
}
20013d00:	853e                	mv	a0,a5
20013d02:	50b2                	lw	ra,44(sp)
20013d04:	5422                	lw	s0,40(sp)
20013d06:	6145                	addi	sp,sp,48
20013d08:	8082                	ret

20013d0a <__metal_driver_riscv_plic0_enable>:
__metal_driver_riscv_plic0_enable():
F:/HiFive-IoT/Workspace/sifive-hifive1-revb-hello/freedom-metal/src/drivers/riscv_plic0.c:143

int __metal_driver_riscv_plic0_enable (struct metal_interrupt *controller, int id)
{
20013d0a:	7179                	addi	sp,sp,-48
20013d0c:	d606                	sw	ra,44(sp)
20013d0e:	d422                	sw	s0,40(sp)
20013d10:	1800                	addi	s0,sp,48
20013d12:	fca42e23          	sw	a0,-36(s0)
20013d16:	fcb42c23          	sw	a1,-40(s0)
F:/HiFive-IoT/Workspace/sifive-hifive1-revb-hello/freedom-metal/src/drivers/riscv_plic0.c:144
    struct __metal_driver_riscv_plic0 *plic = (void *)(controller);
20013d1a:	fdc42783          	lw	a5,-36(s0)
20013d1e:	fef42623          	sw	a5,-20(s0)
F:/HiFive-IoT/Workspace/sifive-hifive1-revb-hello/freedom-metal/src/drivers/riscv_plic0.c:146

    if (id >= __metal_driver_sifive_plic0_num_interrupts(controller)) {
20013d22:	fdc42503          	lw	a0,-36(s0)
20013d26:	afbff0ef          	jal	ra,20013820 <__metal_driver_sifive_plic0_num_interrupts>
20013d2a:	872a                	mv	a4,a0
20013d2c:	fd842783          	lw	a5,-40(s0)
20013d30:	00e7c463          	blt	a5,a4,20013d38 <__metal_driver_riscv_plic0_enable+0x2e>
F:/HiFive-IoT/Workspace/sifive-hifive1-revb-hello/freedom-metal/src/drivers/riscv_plic0.c:147
        return -1;
20013d34:	57fd                	li	a5,-1
20013d36:	a809                	j	20013d48 <__metal_driver_riscv_plic0_enable+0x3e>
F:/HiFive-IoT/Workspace/sifive-hifive1-revb-hello/freedom-metal/src/drivers/riscv_plic0.c:150
    }

    __metal_plic0_enable(plic, id, METAL_ENABLE);
20013d38:	4605                	li	a2,1
20013d3a:	fd842583          	lw	a1,-40(s0)
20013d3e:	fec42503          	lw	a0,-20(s0)
20013d42:	c89ff0ef          	jal	ra,200139ca <__metal_plic0_enable>
F:/HiFive-IoT/Workspace/sifive-hifive1-revb-hello/freedom-metal/src/drivers/riscv_plic0.c:151
    return 0;
20013d46:	4781                	li	a5,0
F:/HiFive-IoT/Workspace/sifive-hifive1-revb-hello/freedom-metal/src/drivers/riscv_plic0.c:152
}
20013d48:	853e                	mv	a0,a5
20013d4a:	50b2                	lw	ra,44(sp)
20013d4c:	5422                	lw	s0,40(sp)
20013d4e:	6145                	addi	sp,sp,48
20013d50:	8082                	ret

20013d52 <__metal_driver_riscv_plic0_disable>:
__metal_driver_riscv_plic0_disable():
F:/HiFive-IoT/Workspace/sifive-hifive1-revb-hello/freedom-metal/src/drivers/riscv_plic0.c:155

int __metal_driver_riscv_plic0_disable (struct metal_interrupt *controller, int id)
{
20013d52:	7179                	addi	sp,sp,-48
20013d54:	d606                	sw	ra,44(sp)
20013d56:	d422                	sw	s0,40(sp)
20013d58:	1800                	addi	s0,sp,48
20013d5a:	fca42e23          	sw	a0,-36(s0)
20013d5e:	fcb42c23          	sw	a1,-40(s0)
F:/HiFive-IoT/Workspace/sifive-hifive1-revb-hello/freedom-metal/src/drivers/riscv_plic0.c:156
    struct __metal_driver_riscv_plic0 *plic = (void *)(controller);
20013d62:	fdc42783          	lw	a5,-36(s0)
20013d66:	fef42623          	sw	a5,-20(s0)
F:/HiFive-IoT/Workspace/sifive-hifive1-revb-hello/freedom-metal/src/drivers/riscv_plic0.c:158

    if (id >= __metal_driver_sifive_plic0_num_interrupts(controller)) {
20013d6a:	fdc42503          	lw	a0,-36(s0)
20013d6e:	ab3ff0ef          	jal	ra,20013820 <__metal_driver_sifive_plic0_num_interrupts>
20013d72:	872a                	mv	a4,a0
20013d74:	fd842783          	lw	a5,-40(s0)
20013d78:	00e7c463          	blt	a5,a4,20013d80 <__metal_driver_riscv_plic0_disable+0x2e>
F:/HiFive-IoT/Workspace/sifive-hifive1-revb-hello/freedom-metal/src/drivers/riscv_plic0.c:159
        return -1;
20013d7c:	57fd                	li	a5,-1
20013d7e:	a809                	j	20013d90 <__metal_driver_riscv_plic0_disable+0x3e>
F:/HiFive-IoT/Workspace/sifive-hifive1-revb-hello/freedom-metal/src/drivers/riscv_plic0.c:161
    }
    __metal_plic0_enable(plic, id, METAL_DISABLE);
20013d80:	4601                	li	a2,0
20013d82:	fd842583          	lw	a1,-40(s0)
20013d86:	fec42503          	lw	a0,-20(s0)
20013d8a:	c41ff0ef          	jal	ra,200139ca <__metal_plic0_enable>
F:/HiFive-IoT/Workspace/sifive-hifive1-revb-hello/freedom-metal/src/drivers/riscv_plic0.c:162
    return 0;
20013d8e:	4781                	li	a5,0
F:/HiFive-IoT/Workspace/sifive-hifive1-revb-hello/freedom-metal/src/drivers/riscv_plic0.c:163
}
20013d90:	853e                	mv	a0,a5
20013d92:	50b2                	lw	ra,44(sp)
20013d94:	5422                	lw	s0,40(sp)
20013d96:	6145                	addi	sp,sp,48
20013d98:	8082                	ret

20013d9a <__metal_driver_sifive_fe310_g000_hfrosc_ref>:
__metal_driver_sifive_fe310_g000_hfrosc_ref():
F:\HiFive-IoT\Workspace\sifive-hifive1-revb-hello\bsp\build\debug/./metal/machine.h:698



/* --------------------- sifive_fe310_g000_hfrosc ------------ */
static inline struct metal_clock * __metal_driver_sifive_fe310_g000_hfrosc_ref(const struct metal_clock *clock)
{
20013d9a:	1101                	addi	sp,sp,-32
20013d9c:	ce22                	sw	s0,28(sp)
20013d9e:	1000                	addi	s0,sp,32
20013da0:	fea42623          	sw	a0,-20(s0)
F:\HiFive-IoT\Workspace\sifive-hifive1-revb-hello\bsp\build\debug/./metal/machine.h:699
		return (struct metal_clock *)&__metal_dt_clock_2.clock;
20013da4:	800007b7          	lui	a5,0x80000
20013da8:	07478793          	addi	a5,a5,116 # 80000074 <metal_segment_heap_target_end+0xffffefa8>
F:\HiFive-IoT\Workspace\sifive-hifive1-revb-hello\bsp\build\debug/./metal/machine.h:700
}
20013dac:	853e                	mv	a0,a5
20013dae:	4472                	lw	s0,28(sp)
20013db0:	6105                	addi	sp,sp,32
20013db2:	8082                	ret

20013db4 <__metal_driver_sifive_fe310_g000_hfrosc_config_base>:
__metal_driver_sifive_fe310_g000_hfrosc_config_base():
F:\HiFive-IoT\Workspace\sifive-hifive1-revb-hello\bsp\build\debug/./metal/machine.h:703

static inline struct __metal_driver_sifive_fe310_g000_prci * __metal_driver_sifive_fe310_g000_hfrosc_config_base(const struct metal_clock *clock)
{
20013db4:	1101                	addi	sp,sp,-32
20013db6:	ce22                	sw	s0,28(sp)
20013db8:	1000                	addi	s0,sp,32
20013dba:	fea42623          	sw	a0,-20(s0)
F:\HiFive-IoT\Workspace\sifive-hifive1-revb-hello\bsp\build\debug/./metal/machine.h:704
		return (struct __metal_driver_sifive_fe310_g000_prci *)&__metal_dt_prci_10008000;
20013dbe:	88418793          	addi	a5,gp,-1916 # 8000081c <__metal_dt_prci_10008000>
F:\HiFive-IoT\Workspace\sifive-hifive1-revb-hello\bsp\build\debug/./metal/machine.h:705
}
20013dc2:	853e                	mv	a0,a5
20013dc4:	4472                	lw	s0,28(sp)
20013dc6:	6105                	addi	sp,sp,32
20013dc8:	8082                	ret

20013dca <__metal_driver_sifive_fe310_g000_hfrosc_config_offset>:
__metal_driver_sifive_fe310_g000_hfrosc_config_offset():
F:\HiFive-IoT\Workspace\sifive-hifive1-revb-hello\bsp\build\debug/./metal/machine.h:713
{
		return &__metal_driver_vtable_sifive_fe310_g000_prci;
}

static inline long __metal_driver_sifive_fe310_g000_hfrosc_config_offset(const struct metal_clock *clock)
{
20013dca:	1101                	addi	sp,sp,-32
20013dcc:	ce22                	sw	s0,28(sp)
20013dce:	1000                	addi	s0,sp,32
20013dd0:	fea42623          	sw	a0,-20(s0)
F:\HiFive-IoT\Workspace\sifive-hifive1-revb-hello\bsp\build\debug/./metal/machine.h:714
		return METAL_SIFIVE_FE310_G000_PRCI_HFROSCCFG;
20013dd4:	4781                	li	a5,0
F:\HiFive-IoT\Workspace\sifive-hifive1-revb-hello\bsp\build\debug/./metal/machine.h:715
}
20013dd6:	853e                	mv	a0,a5
20013dd8:	4472                	lw	s0,28(sp)
20013dda:	6105                	addi	sp,sp,32
20013ddc:	8082                	ret

20013dde <__metal_driver_sifive_fe310_g000_prci_vtable>:
__metal_driver_sifive_fe310_g000_prci_vtable():
F:\HiFive-IoT\Workspace\sifive-hifive1-revb-hello\bsp\build\debug/./metal/machine.h:787
{
		return METAL_SIFIVE_FE310_G000_PRCI_10008000_SIZE;
}

static inline const struct __metal_driver_vtable_sifive_fe310_g000_prci * __metal_driver_sifive_fe310_g000_prci_vtable( )
{
20013dde:	1141                	addi	sp,sp,-16
20013de0:	c622                	sw	s0,12(sp)
20013de2:	0800                	addi	s0,sp,16
F:\HiFive-IoT\Workspace\sifive-hifive1-revb-hello\bsp\build\debug/./metal/machine.h:788
		return &__metal_driver_vtable_sifive_fe310_g000_prci;
20013de4:	86018793          	addi	a5,gp,-1952 # 800007f8 <__metal_driver_vtable_sifive_fe310_g000_prci>
F:\HiFive-IoT\Workspace\sifive-hifive1-revb-hello\bsp\build\debug/./metal/machine.h:789
}
20013de8:	853e                	mv	a0,a5
20013dea:	4432                	lw	s0,12(sp)
20013dec:	0141                	addi	sp,sp,16
20013dee:	8082                	ret

20013df0 <__metal_driver_sifive_fe310_g000_hfrosc_get_rate_hz>:
__metal_driver_sifive_fe310_g000_hfrosc_get_rate_hz():
F:/HiFive-IoT/Workspace/sifive-hifive1-revb-hello/freedom-metal/src/drivers/sifive_fe310-g000_hfrosc.c:17
#define CONFIG_TRIM    0x001F0000UL
#define CONFIG_ENABLE  0x40000000UL
#define CONFIG_READY   0x80000000UL

long __metal_driver_sifive_fe310_g000_hfrosc_get_rate_hz(const struct metal_clock *clock)
{
20013df0:	7139                	addi	sp,sp,-64
20013df2:	de06                	sw	ra,60(sp)
20013df4:	dc22                	sw	s0,56(sp)
20013df6:	0080                	addi	s0,sp,64
20013df8:	fca42623          	sw	a0,-52(s0)
F:/HiFive-IoT/Workspace/sifive-hifive1-revb-hello/freedom-metal/src/drivers/sifive_fe310-g000_hfrosc.c:18
    struct metal_clock *ref = __metal_driver_sifive_fe310_g000_hfrosc_ref(clock);
20013dfc:	fcc42503          	lw	a0,-52(s0)
20013e00:	3f69                	jal	20013d9a <__metal_driver_sifive_fe310_g000_hfrosc_ref>
20013e02:	fea42623          	sw	a0,-20(s0)
F:/HiFive-IoT/Workspace/sifive-hifive1-revb-hello/freedom-metal/src/drivers/sifive_fe310-g000_hfrosc.c:19
    long config_offset = __metal_driver_sifive_fe310_g000_hfrosc_config_offset(clock);
20013e06:	fcc42503          	lw	a0,-52(s0)
20013e0a:	37c1                	jal	20013dca <__metal_driver_sifive_fe310_g000_hfrosc_config_offset>
20013e0c:	fea42423          	sw	a0,-24(s0)
F:/HiFive-IoT/Workspace/sifive-hifive1-revb-hello/freedom-metal/src/drivers/sifive_fe310-g000_hfrosc.c:21
    struct __metal_driver_sifive_fe310_g000_prci *config_base =
      __metal_driver_sifive_fe310_g000_hfrosc_config_base(clock);
20013e10:	fcc42503          	lw	a0,-52(s0)
20013e14:	3745                	jal	20013db4 <__metal_driver_sifive_fe310_g000_hfrosc_config_base>
20013e16:	fea42223          	sw	a0,-28(s0)
F:/HiFive-IoT/Workspace/sifive-hifive1-revb-hello/freedom-metal/src/drivers/sifive_fe310-g000_hfrosc.c:23
    const struct __metal_driver_vtable_sifive_fe310_g000_prci *vtable =
      __metal_driver_sifive_fe310_g000_prci_vtable();
20013e1a:	37d1                	jal	20013dde <__metal_driver_sifive_fe310_g000_prci_vtable>
20013e1c:	fea42023          	sw	a0,-32(s0)
F:/HiFive-IoT/Workspace/sifive-hifive1-revb-hello/freedom-metal/src/drivers/sifive_fe310-g000_hfrosc.c:24
    long cfg = vtable->get_reg(config_base, config_offset);
20013e20:	fe042783          	lw	a5,-32(s0)
20013e24:	439c                	lw	a5,0(a5)
20013e26:	fe842583          	lw	a1,-24(s0)
20013e2a:	fe442503          	lw	a0,-28(s0)
20013e2e:	9782                	jalr	a5
20013e30:	fca42e23          	sw	a0,-36(s0)
F:/HiFive-IoT/Workspace/sifive-hifive1-revb-hello/freedom-metal/src/drivers/sifive_fe310-g000_hfrosc.c:30

    if (cfg & CONFIG_ENABLE == 0)
        return -1;
    if (cfg & CONFIG_READY == 0)
        return -1;
    return metal_clock_get_rate_hz(ref) / ((cfg & CONFIG_DIVIDER) + 1);
20013e34:	fec42503          	lw	a0,-20(s0)
20013e38:	466010ef          	jal	ra,2001529e <metal_clock_get_rate_hz>
20013e3c:	87aa                	mv	a5,a0
20013e3e:	873e                	mv	a4,a5
20013e40:	fdc42783          	lw	a5,-36(s0)
20013e44:	03f7f793          	andi	a5,a5,63
20013e48:	0785                	addi	a5,a5,1
20013e4a:	02f757b3          	divu	a5,a4,a5
F:/HiFive-IoT/Workspace/sifive-hifive1-revb-hello/freedom-metal/src/drivers/sifive_fe310-g000_hfrosc.c:31
}
20013e4e:	853e                	mv	a0,a5
20013e50:	50f2                	lw	ra,60(sp)
20013e52:	5462                	lw	s0,56(sp)
20013e54:	6121                	addi	sp,sp,64
20013e56:	8082                	ret

20013e58 <__metal_driver_sifive_fe310_g000_hfrosc_set_rate_hz>:
__metal_driver_sifive_fe310_g000_hfrosc_set_rate_hz():
F:/HiFive-IoT/Workspace/sifive-hifive1-revb-hello/freedom-metal/src/drivers/sifive_fe310-g000_hfrosc.c:34

long __metal_driver_sifive_fe310_g000_hfrosc_set_rate_hz(struct metal_clock *clock, long rate)
{
20013e58:	1101                	addi	sp,sp,-32
20013e5a:	ce06                	sw	ra,28(sp)
20013e5c:	cc22                	sw	s0,24(sp)
20013e5e:	1000                	addi	s0,sp,32
20013e60:	fea42623          	sw	a0,-20(s0)
20013e64:	feb42423          	sw	a1,-24(s0)
F:/HiFive-IoT/Workspace/sifive-hifive1-revb-hello/freedom-metal/src/drivers/sifive_fe310-g000_hfrosc.c:35
    return __metal_driver_sifive_fe310_g000_hfrosc_get_rate_hz(clock);
20013e68:	fec42503          	lw	a0,-20(s0)
20013e6c:	3751                	jal	20013df0 <__metal_driver_sifive_fe310_g000_hfrosc_get_rate_hz>
20013e6e:	87aa                	mv	a5,a0
F:/HiFive-IoT/Workspace/sifive-hifive1-revb-hello/freedom-metal/src/drivers/sifive_fe310-g000_hfrosc.c:36
}
20013e70:	853e                	mv	a0,a5
20013e72:	40f2                	lw	ra,28(sp)
20013e74:	4462                	lw	s0,24(sp)
20013e76:	6105                	addi	sp,sp,32
20013e78:	8082                	ret

20013e7a <__metal_driver_sifive_fe310_g000_hfxosc_ref>:
__metal_driver_sifive_fe310_g000_hfxosc_ref():
F:\HiFive-IoT\Workspace\sifive-hifive1-revb-hello\bsp\build\debug/./metal/machine.h:721
{
20013e7a:	1101                	addi	sp,sp,-32
20013e7c:	ce22                	sw	s0,28(sp)
20013e7e:	1000                	addi	s0,sp,32
20013e80:	fea42623          	sw	a0,-20(s0)
F:\HiFive-IoT\Workspace\sifive-hifive1-revb-hello\bsp\build\debug/./metal/machine.h:722
		return (struct metal_clock *)&__metal_dt_clock_0.clock;
20013e84:	800007b7          	lui	a5,0x80000
20013e88:	06078793          	addi	a5,a5,96 # 80000060 <metal_segment_heap_target_end+0xffffef94>
F:\HiFive-IoT\Workspace\sifive-hifive1-revb-hello\bsp\build\debug/./metal/machine.h:723
}
20013e8c:	853e                	mv	a0,a5
20013e8e:	4472                	lw	s0,28(sp)
20013e90:	6105                	addi	sp,sp,32
20013e92:	8082                	ret

20013e94 <__metal_driver_sifive_fe310_g000_hfxosc_config_base>:
__metal_driver_sifive_fe310_g000_hfxosc_config_base():
F:\HiFive-IoT\Workspace\sifive-hifive1-revb-hello\bsp\build\debug/./metal/machine.h:726
{
20013e94:	1101                	addi	sp,sp,-32
20013e96:	ce22                	sw	s0,28(sp)
20013e98:	1000                	addi	s0,sp,32
20013e9a:	fea42623          	sw	a0,-20(s0)
F:\HiFive-IoT\Workspace\sifive-hifive1-revb-hello\bsp\build\debug/./metal/machine.h:727
		return (struct __metal_driver_sifive_fe310_g000_prci *)&__metal_dt_prci_10008000;
20013e9e:	88418793          	addi	a5,gp,-1916 # 8000081c <__metal_dt_prci_10008000>
F:\HiFive-IoT\Workspace\sifive-hifive1-revb-hello\bsp\build\debug/./metal/machine.h:728
}
20013ea2:	853e                	mv	a0,a5
20013ea4:	4472                	lw	s0,28(sp)
20013ea6:	6105                	addi	sp,sp,32
20013ea8:	8082                	ret

20013eaa <__metal_driver_sifive_fe310_g000_hfxosc_config_offset>:
__metal_driver_sifive_fe310_g000_hfxosc_config_offset():
F:\HiFive-IoT\Workspace\sifive-hifive1-revb-hello\bsp\build\debug/./metal/machine.h:731
{
20013eaa:	1101                	addi	sp,sp,-32
20013eac:	ce22                	sw	s0,28(sp)
20013eae:	1000                	addi	s0,sp,32
20013eb0:	fea42623          	sw	a0,-20(s0)
F:\HiFive-IoT\Workspace\sifive-hifive1-revb-hello\bsp\build\debug/./metal/machine.h:732
		return METAL_SIFIVE_FE310_G000_PRCI_HFXOSCCFG;
20013eb4:	4791                	li	a5,4
F:\HiFive-IoT\Workspace\sifive-hifive1-revb-hello\bsp\build\debug/./metal/machine.h:733
}
20013eb6:	853e                	mv	a0,a5
20013eb8:	4472                	lw	s0,28(sp)
20013eba:	6105                	addi	sp,sp,32
20013ebc:	8082                	ret

20013ebe <__metal_driver_sifive_fe310_g000_prci_vtable>:
__metal_driver_sifive_fe310_g000_prci_vtable():
F:\HiFive-IoT\Workspace\sifive-hifive1-revb-hello\bsp\build\debug/./metal/machine.h:787
{
20013ebe:	1141                	addi	sp,sp,-16
20013ec0:	c622                	sw	s0,12(sp)
20013ec2:	0800                	addi	s0,sp,16
F:\HiFive-IoT\Workspace\sifive-hifive1-revb-hello\bsp\build\debug/./metal/machine.h:788
		return &__metal_driver_vtable_sifive_fe310_g000_prci;
20013ec4:	86018793          	addi	a5,gp,-1952 # 800007f8 <__metal_driver_vtable_sifive_fe310_g000_prci>
F:\HiFive-IoT\Workspace\sifive-hifive1-revb-hello\bsp\build\debug/./metal/machine.h:789
}
20013ec8:	853e                	mv	a0,a5
20013eca:	4432                	lw	s0,12(sp)
20013ecc:	0141                	addi	sp,sp,16
20013ece:	8082                	ret

20013ed0 <__metal_driver_sifive_fe310_g000_hfxosc_get_rate_hz>:
__metal_driver_sifive_fe310_g000_hfxosc_get_rate_hz():
F:/HiFive-IoT/Workspace/sifive-hifive1-revb-hello/freedom-metal/src/drivers/sifive_fe310-g000_hfxosc.c:15

#define CONFIG_ENABLE  0x40000000UL
#define CONFIG_READY   0x80000000UL

long __metal_driver_sifive_fe310_g000_hfxosc_get_rate_hz(const struct metal_clock *clock)
{
20013ed0:	7139                	addi	sp,sp,-64
20013ed2:	de06                	sw	ra,60(sp)
20013ed4:	dc22                	sw	s0,56(sp)
20013ed6:	0080                	addi	s0,sp,64
20013ed8:	fca42623          	sw	a0,-52(s0)
F:/HiFive-IoT/Workspace/sifive-hifive1-revb-hello/freedom-metal/src/drivers/sifive_fe310-g000_hfxosc.c:16
    struct metal_clock *ref = __metal_driver_sifive_fe310_g000_hfxosc_ref(clock);
20013edc:	fcc42503          	lw	a0,-52(s0)
20013ee0:	3f69                	jal	20013e7a <__metal_driver_sifive_fe310_g000_hfxosc_ref>
20013ee2:	fea42623          	sw	a0,-20(s0)
F:/HiFive-IoT/Workspace/sifive-hifive1-revb-hello/freedom-metal/src/drivers/sifive_fe310-g000_hfxosc.c:17
    long config_offset = __metal_driver_sifive_fe310_g000_hfxosc_config_offset(clock);
20013ee6:	fcc42503          	lw	a0,-52(s0)
20013eea:	37c1                	jal	20013eaa <__metal_driver_sifive_fe310_g000_hfxosc_config_offset>
20013eec:	fea42423          	sw	a0,-24(s0)
F:/HiFive-IoT/Workspace/sifive-hifive1-revb-hello/freedom-metal/src/drivers/sifive_fe310-g000_hfxosc.c:19
    struct __metal_driver_sifive_fe310_g000_prci *config_base =
      __metal_driver_sifive_fe310_g000_hfxosc_config_base(clock);
20013ef0:	fcc42503          	lw	a0,-52(s0)
20013ef4:	3745                	jal	20013e94 <__metal_driver_sifive_fe310_g000_hfxosc_config_base>
20013ef6:	fea42223          	sw	a0,-28(s0)
F:/HiFive-IoT/Workspace/sifive-hifive1-revb-hello/freedom-metal/src/drivers/sifive_fe310-g000_hfxosc.c:21
    const struct __metal_driver_vtable_sifive_fe310_g000_prci *vtable =
      __metal_driver_sifive_fe310_g000_prci_vtable();
20013efa:	37d1                	jal	20013ebe <__metal_driver_sifive_fe310_g000_prci_vtable>
20013efc:	fea42023          	sw	a0,-32(s0)
F:/HiFive-IoT/Workspace/sifive-hifive1-revb-hello/freedom-metal/src/drivers/sifive_fe310-g000_hfxosc.c:22
    long cfg = vtable->get_reg(config_base, config_offset);
20013f00:	fe042783          	lw	a5,-32(s0)
20013f04:	439c                	lw	a5,0(a5)
20013f06:	fe842583          	lw	a1,-24(s0)
20013f0a:	fe442503          	lw	a0,-28(s0)
20013f0e:	9782                	jalr	a5
20013f10:	fca42e23          	sw	a0,-36(s0)
F:/HiFive-IoT/Workspace/sifive-hifive1-revb-hello/freedom-metal/src/drivers/sifive_fe310-g000_hfxosc.c:28

    if (cfg & CONFIG_ENABLE == 0)
        return -1;
    if (cfg & CONFIG_READY == 0)
        return -1;
    return metal_clock_get_rate_hz(ref);
20013f14:	fec42503          	lw	a0,-20(s0)
20013f18:	386010ef          	jal	ra,2001529e <metal_clock_get_rate_hz>
20013f1c:	87aa                	mv	a5,a0
F:/HiFive-IoT/Workspace/sifive-hifive1-revb-hello/freedom-metal/src/drivers/sifive_fe310-g000_hfxosc.c:29
}
20013f1e:	853e                	mv	a0,a5
20013f20:	50f2                	lw	ra,60(sp)
20013f22:	5462                	lw	s0,56(sp)
20013f24:	6121                	addi	sp,sp,64
20013f26:	8082                	ret

20013f28 <__metal_driver_sifive_fe310_g000_hfxosc_set_rate_hz>:
__metal_driver_sifive_fe310_g000_hfxosc_set_rate_hz():
F:/HiFive-IoT/Workspace/sifive-hifive1-revb-hello/freedom-metal/src/drivers/sifive_fe310-g000_hfxosc.c:32

long __metal_driver_sifive_fe310_g000_hfxosc_set_rate_hz(struct metal_clock *clock, long rate)
{
20013f28:	1101                	addi	sp,sp,-32
20013f2a:	ce06                	sw	ra,28(sp)
20013f2c:	cc22                	sw	s0,24(sp)
20013f2e:	1000                	addi	s0,sp,32
20013f30:	fea42623          	sw	a0,-20(s0)
20013f34:	feb42423          	sw	a1,-24(s0)
F:/HiFive-IoT/Workspace/sifive-hifive1-revb-hello/freedom-metal/src/drivers/sifive_fe310-g000_hfxosc.c:33
    return __metal_driver_sifive_fe310_g000_hfxosc_get_rate_hz(clock);
20013f38:	fec42503          	lw	a0,-20(s0)
20013f3c:	3f51                	jal	20013ed0 <__metal_driver_sifive_fe310_g000_hfxosc_get_rate_hz>
20013f3e:	87aa                	mv	a5,a0
F:/HiFive-IoT/Workspace/sifive-hifive1-revb-hello/freedom-metal/src/drivers/sifive_fe310-g000_hfxosc.c:34
}
20013f40:	853e                	mv	a0,a5
20013f42:	40f2                	lw	ra,28(sp)
20013f44:	4462                	lw	s0,24(sp)
20013f46:	6105                	addi	sp,sp,32
20013f48:	8082                	ret

20013f4a <__metal_driver_sifive_fe310_g000_pll_pllsel0>:
__metal_driver_sifive_fe310_g000_pll_pllsel0():
F:\HiFive-IoT\Workspace\sifive-hifive1-revb-hello\bsp\build\debug/./metal/machine.h:739
{
20013f4a:	1101                	addi	sp,sp,-32
20013f4c:	ce22                	sw	s0,28(sp)
20013f4e:	1000                	addi	s0,sp,32
20013f50:	fea42623          	sw	a0,-20(s0)
F:\HiFive-IoT\Workspace\sifive-hifive1-revb-hello\bsp\build\debug/./metal/machine.h:740
		return (struct metal_clock *)&__metal_dt_clock_3.clock;
20013f54:	800007b7          	lui	a5,0x80000
20013f58:	75878793          	addi	a5,a5,1880 # 80000758 <metal_segment_heap_target_end+0xfffff68c>
F:\HiFive-IoT\Workspace\sifive-hifive1-revb-hello\bsp\build\debug/./metal/machine.h:741
}
20013f5c:	853e                	mv	a0,a5
20013f5e:	4472                	lw	s0,28(sp)
20013f60:	6105                	addi	sp,sp,32
20013f62:	8082                	ret

20013f64 <__metal_driver_sifive_fe310_g000_pll_pllref>:
__metal_driver_sifive_fe310_g000_pll_pllref():
F:\HiFive-IoT\Workspace\sifive-hifive1-revb-hello\bsp\build\debug/./metal/machine.h:744
{
20013f64:	1101                	addi	sp,sp,-32
20013f66:	ce22                	sw	s0,28(sp)
20013f68:	1000                	addi	s0,sp,32
20013f6a:	fea42623          	sw	a0,-20(s0)
F:\HiFive-IoT\Workspace\sifive-hifive1-revb-hello\bsp\build\debug/./metal/machine.h:745
		return (struct metal_clock *)&__metal_dt_clock_1.clock;
20013f6e:	800007b7          	lui	a5,0x80000
20013f72:	76c78793          	addi	a5,a5,1900 # 8000076c <metal_segment_heap_target_end+0xfffff6a0>
F:\HiFive-IoT\Workspace\sifive-hifive1-revb-hello\bsp\build\debug/./metal/machine.h:746
}
20013f76:	853e                	mv	a0,a5
20013f78:	4472                	lw	s0,28(sp)
20013f7a:	6105                	addi	sp,sp,32
20013f7c:	8082                	ret

20013f7e <__metal_driver_sifive_fe310_g000_pll_divider_base>:
__metal_driver_sifive_fe310_g000_pll_divider_base():
F:\HiFive-IoT\Workspace\sifive-hifive1-revb-hello\bsp\build\debug/./metal/machine.h:749
{
20013f7e:	1101                	addi	sp,sp,-32
20013f80:	ce22                	sw	s0,28(sp)
20013f82:	1000                	addi	s0,sp,32
20013f84:	fea42623          	sw	a0,-20(s0)
F:\HiFive-IoT\Workspace\sifive-hifive1-revb-hello\bsp\build\debug/./metal/machine.h:750
		return (struct __metal_driver_sifive_fe310_g000_prci *)&__metal_dt_prci_10008000;
20013f88:	88418793          	addi	a5,gp,-1916 # 8000081c <__metal_dt_prci_10008000>
F:\HiFive-IoT\Workspace\sifive-hifive1-revb-hello\bsp\build\debug/./metal/machine.h:751
}
20013f8c:	853e                	mv	a0,a5
20013f8e:	4472                	lw	s0,28(sp)
20013f90:	6105                	addi	sp,sp,32
20013f92:	8082                	ret

20013f94 <__metal_driver_sifive_fe310_g000_pll_divider_offset>:
__metal_driver_sifive_fe310_g000_pll_divider_offset():
F:\HiFive-IoT\Workspace\sifive-hifive1-revb-hello\bsp\build\debug/./metal/machine.h:754
{
20013f94:	1101                	addi	sp,sp,-32
20013f96:	ce22                	sw	s0,28(sp)
20013f98:	1000                	addi	s0,sp,32
20013f9a:	fea42623          	sw	a0,-20(s0)
F:\HiFive-IoT\Workspace\sifive-hifive1-revb-hello\bsp\build\debug/./metal/machine.h:755
		return METAL_SIFIVE_FE310_G000_PRCI_PLLOUTDIV;
20013f9e:	47b1                	li	a5,12
F:\HiFive-IoT\Workspace\sifive-hifive1-revb-hello\bsp\build\debug/./metal/machine.h:756
}
20013fa0:	853e                	mv	a0,a5
20013fa2:	4472                	lw	s0,28(sp)
20013fa4:	6105                	addi	sp,sp,32
20013fa6:	8082                	ret

20013fa8 <__metal_driver_sifive_fe310_g000_pll_config_base>:
__metal_driver_sifive_fe310_g000_pll_config_base():
F:\HiFive-IoT\Workspace\sifive-hifive1-revb-hello\bsp\build\debug/./metal/machine.h:759
{
20013fa8:	1141                	addi	sp,sp,-16
20013faa:	c622                	sw	s0,12(sp)
20013fac:	0800                	addi	s0,sp,16
F:\HiFive-IoT\Workspace\sifive-hifive1-revb-hello\bsp\build\debug/./metal/machine.h:760
		return (struct __metal_driver_sifive_fe310_g000_prci *)&__metal_dt_prci_10008000;
20013fae:	88418793          	addi	a5,gp,-1916 # 8000081c <__metal_dt_prci_10008000>
F:\HiFive-IoT\Workspace\sifive-hifive1-revb-hello\bsp\build\debug/./metal/machine.h:761
}
20013fb2:	853e                	mv	a0,a5
20013fb4:	4432                	lw	s0,12(sp)
20013fb6:	0141                	addi	sp,sp,16
20013fb8:	8082                	ret

20013fba <__metal_driver_sifive_fe310_g000_pll_config_offset>:
__metal_driver_sifive_fe310_g000_pll_config_offset():
F:\HiFive-IoT\Workspace\sifive-hifive1-revb-hello\bsp\build\debug/./metal/machine.h:764
{
20013fba:	1141                	addi	sp,sp,-16
20013fbc:	c622                	sw	s0,12(sp)
20013fbe:	0800                	addi	s0,sp,16
F:\HiFive-IoT\Workspace\sifive-hifive1-revb-hello\bsp\build\debug/./metal/machine.h:765
		return METAL_SIFIVE_FE310_G000_PRCI_PLLCFG;
20013fc0:	47a1                	li	a5,8
F:\HiFive-IoT\Workspace\sifive-hifive1-revb-hello\bsp\build\debug/./metal/machine.h:766
}
20013fc2:	853e                	mv	a0,a5
20013fc4:	4432                	lw	s0,12(sp)
20013fc6:	0141                	addi	sp,sp,16
20013fc8:	8082                	ret

20013fca <__metal_driver_sifive_fe310_g000_pll_init_rate>:
__metal_driver_sifive_fe310_g000_pll_init_rate():
F:\HiFive-IoT\Workspace\sifive-hifive1-revb-hello\bsp\build\debug/./metal/machine.h:769
{
20013fca:	1141                	addi	sp,sp,-16
20013fcc:	c622                	sw	s0,12(sp)
20013fce:	0800                	addi	s0,sp,16
F:\HiFive-IoT\Workspace\sifive-hifive1-revb-hello\bsp\build\debug/./metal/machine.h:770
		return 16000000;
20013fd0:	00f427b7          	lui	a5,0xf42
20013fd4:	40078793          	addi	a5,a5,1024 # f42400 <__heap_size+0xf42000>
F:\HiFive-IoT\Workspace\sifive-hifive1-revb-hello\bsp\build\debug/./metal/machine.h:771
}
20013fd8:	853e                	mv	a0,a5
20013fda:	4432                	lw	s0,12(sp)
20013fdc:	0141                	addi	sp,sp,16
20013fde:	8082                	ret

20013fe0 <__metal_driver_sifive_fe310_g000_prci_base>:
__metal_driver_sifive_fe310_g000_prci_base():
F:\HiFive-IoT\Workspace\sifive-hifive1-revb-hello\bsp\build\debug/./metal/machine.h:777
{
20013fe0:	1141                	addi	sp,sp,-16
20013fe2:	c622                	sw	s0,12(sp)
20013fe4:	0800                	addi	s0,sp,16
F:\HiFive-IoT\Workspace\sifive-hifive1-revb-hello\bsp\build\debug/./metal/machine.h:778
		return METAL_SIFIVE_FE310_G000_PRCI_10008000_BASE_ADDRESS;
20013fe6:	100087b7          	lui	a5,0x10008
F:\HiFive-IoT\Workspace\sifive-hifive1-revb-hello\bsp\build\debug/./metal/machine.h:779
}
20013fea:	853e                	mv	a0,a5
20013fec:	4432                	lw	s0,12(sp)
20013fee:	0141                	addi	sp,sp,16
20013ff0:	8082                	ret

20013ff2 <__metal_driver_sifive_fe310_g000_prci_vtable>:
__metal_driver_sifive_fe310_g000_prci_vtable():
F:\HiFive-IoT\Workspace\sifive-hifive1-revb-hello\bsp\build\debug/./metal/machine.h:787
{
20013ff2:	1141                	addi	sp,sp,-16
20013ff4:	c622                	sw	s0,12(sp)
20013ff6:	0800                	addi	s0,sp,16
F:\HiFive-IoT\Workspace\sifive-hifive1-revb-hello\bsp\build\debug/./metal/machine.h:788
		return &__metal_driver_vtable_sifive_fe310_g000_prci;
20013ff8:	86018793          	addi	a5,gp,-1952 # 800007f8 <__metal_driver_vtable_sifive_fe310_g000_prci>
F:\HiFive-IoT\Workspace\sifive-hifive1-revb-hello\bsp\build\debug/./metal/machine.h:789
}
20013ffc:	853e                	mv	a0,a5
20013ffe:	4432                	lw	s0,12(sp)
20014000:	0141                	addi	sp,sp,16
20014002:	8082                	ret

20014004 <get_pll_config_freq>:
get_pll_config_freq():
F:/HiFive-IoT/Workspace/sifive-hifive1-revb-hello/freedom-metal/src/drivers/sifive_fe310-g000_pll.c:137
 *  - config the PLL configuration
 * Returns:
 *  - PLL_CONFIG_NOT_VALID if the configuration is not valid for the input frequency
 *  - the output frequency, in hertz */
static long get_pll_config_freq(long pll_input_rate, const struct pll_config_t *config)
{
20014004:	1101                	addi	sp,sp,-32
20014006:	ce22                	sw	s0,28(sp)
20014008:	1000                	addi	s0,sp,32
2001400a:	fea42623          	sw	a0,-20(s0)
2001400e:	feb42423          	sw	a1,-24(s0)
F:/HiFive-IoT/Workspace/sifive-hifive1-revb-hello/freedom-metal/src/drivers/sifive_fe310-g000_pll.c:138
    if(pll_input_rate < config->min_input_rate || pll_input_rate > config->max_input_rate)
20014012:	fe842783          	lw	a5,-24(s0)
20014016:	4798                	lw	a4,8(a5)
20014018:	fec42783          	lw	a5,-20(s0)
2001401c:	00e7e963          	bltu	a5,a4,2001402e <get_pll_config_freq+0x2a>
F:/HiFive-IoT/Workspace/sifive-hifive1-revb-hello/freedom-metal/src/drivers/sifive_fe310-g000_pll.c:138 (discriminator 1)
20014020:	fe842783          	lw	a5,-24(s0)
20014024:	47d8                	lw	a4,12(a5)
20014026:	fec42783          	lw	a5,-20(s0)
2001402a:	00f77463          	bgeu	a4,a5,20014032 <get_pll_config_freq+0x2e>
F:/HiFive-IoT/Workspace/sifive-hifive1-revb-hello/freedom-metal/src/drivers/sifive_fe310-g000_pll.c:139
        return PLL_CONFIG_NOT_VALID;
2001402e:	57fd                	li	a5,-1
20014030:	a829                	j	2001404a <get_pll_config_freq+0x46>
F:/HiFive-IoT/Workspace/sifive-hifive1-revb-hello/freedom-metal/src/drivers/sifive_fe310-g000_pll.c:141

    return pll_input_rate * config->multiplier / config->divisor;
20014032:	fe842783          	lw	a5,-24(s0)
20014036:	4398                	lw	a4,0(a5)
20014038:	fec42783          	lw	a5,-20(s0)
2001403c:	02f70733          	mul	a4,a4,a5
20014040:	fe842783          	lw	a5,-24(s0)
20014044:	43dc                	lw	a5,4(a5)
20014046:	02f757b3          	divu	a5,a4,a5
F:/HiFive-IoT/Workspace/sifive-hifive1-revb-hello/freedom-metal/src/drivers/sifive_fe310-g000_pll.c:142
}
2001404a:	853e                	mv	a0,a5
2001404c:	4472                	lw	s0,28(sp)
2001404e:	6105                	addi	sp,sp,32
20014050:	8082                	ret

20014052 <metal_sifive_fe310_g000_pll_init>:
metal_sifive_fe310_g000_pll_init():
F:/HiFive-IoT/Workspace/sifive-hifive1-revb-hello/freedom-metal/src/drivers/sifive_fe310-g000_pll.c:147

#ifdef __METAL_DT_SIFIVE_FE310_G000_PLL_HANDLE

static void metal_sifive_fe310_g000_pll_init(void) __attribute__((constructor));
static void metal_sifive_fe310_g000_pll_init(void) {
20014052:	1101                	addi	sp,sp,-32
20014054:	ce06                	sw	ra,28(sp)
20014056:	cc22                	sw	s0,24(sp)
20014058:	1000                	addi	s0,sp,32
F:/HiFive-IoT/Workspace/sifive-hifive1-revb-hello/freedom-metal/src/drivers/sifive_fe310-g000_pll.c:148
    long init_rate = __metal_driver_sifive_fe310_g000_pll_init_rate();
2001405a:	3f85                	jal	20013fca <__metal_driver_sifive_fe310_g000_pll_init_rate>
2001405c:	fea42623          	sw	a0,-20(s0)
F:/HiFive-IoT/Workspace/sifive-hifive1-revb-hello/freedom-metal/src/drivers/sifive_fe310-g000_pll.c:150
    /* If the PLL init_rate is zero, don't initialize the PLL */
    if(init_rate != 0)
20014060:	fec42783          	lw	a5,-20(s0)
20014064:	c791                	beqz	a5,20014070 <metal_sifive_fe310_g000_pll_init+0x1e>
F:/HiFive-IoT/Workspace/sifive-hifive1-revb-hello/freedom-metal/src/drivers/sifive_fe310-g000_pll.c:151
        __metal_driver_sifive_fe310_g000_pll_init(__METAL_DT_SIFIVE_FE310_G000_PLL_HANDLE);
20014066:	800007b7          	lui	a5,0x80000
2001406a:	78078513          	addi	a0,a5,1920 # 80000780 <metal_segment_heap_target_end+0xfffff6b4>
2001406e:	2031                	jal	2001407a <__metal_driver_sifive_fe310_g000_pll_init>
F:/HiFive-IoT/Workspace/sifive-hifive1-revb-hello/freedom-metal/src/drivers/sifive_fe310-g000_pll.c:152
}
20014070:	0001                	nop
20014072:	40f2                	lw	ra,28(sp)
20014074:	4462                	lw	s0,24(sp)
20014076:	6105                	addi	sp,sp,32
20014078:	8082                	ret

2001407a <__metal_driver_sifive_fe310_g000_pll_init>:
__metal_driver_sifive_fe310_g000_pll_init():
F:/HiFive-IoT/Workspace/sifive-hifive1-revb-hello/freedom-metal/src/drivers/sifive_fe310-g000_pll.c:156

#endif /* __METAL_DT_SIFIVE_FE310_G000__PLL_HANDLE */

void __metal_driver_sifive_fe310_g000_pll_init(struct __metal_driver_sifive_fe310_g000_pll *pll) {
2001407a:	7139                	addi	sp,sp,-64
2001407c:	de06                	sw	ra,60(sp)
2001407e:	dc22                	sw	s0,56(sp)
20014080:	0080                	addi	s0,sp,64
20014082:	fca42623          	sw	a0,-52(s0)
F:/HiFive-IoT/Workspace/sifive-hifive1-revb-hello/freedom-metal/src/drivers/sifive_fe310-g000_pll.c:157
    struct metal_clock *pllref = __metal_driver_sifive_fe310_g000_pll_pllref(&(pll->clock));
20014086:	fcc42783          	lw	a5,-52(s0)
2001408a:	853e                	mv	a0,a5
2001408c:	3de1                	jal	20013f64 <__metal_driver_sifive_fe310_g000_pll_pllref>
2001408e:	fea42623          	sw	a0,-20(s0)
F:/HiFive-IoT/Workspace/sifive-hifive1-revb-hello/freedom-metal/src/drivers/sifive_fe310-g000_pll.c:158
    long init_rate = __metal_driver_sifive_fe310_g000_pll_init_rate();
20014092:	3f25                	jal	20013fca <__metal_driver_sifive_fe310_g000_pll_init_rate>
20014094:	fea42423          	sw	a0,-24(s0)
F:/HiFive-IoT/Workspace/sifive-hifive1-revb-hello/freedom-metal/src/drivers/sifive_fe310-g000_pll.c:159
    long config_offset = __metal_driver_sifive_fe310_g000_pll_config_offset();
20014098:	370d                	jal	20013fba <__metal_driver_sifive_fe310_g000_pll_config_offset>
2001409a:	fea42223          	sw	a0,-28(s0)
F:/HiFive-IoT/Workspace/sifive-hifive1-revb-hello/freedom-metal/src/drivers/sifive_fe310-g000_pll.c:160
    long base = __metal_driver_sifive_fe310_g000_prci_base();
2001409e:	3789                	jal	20013fe0 <__metal_driver_sifive_fe310_g000_prci_base>
200140a0:	fea42023          	sw	a0,-32(s0)
F:/HiFive-IoT/Workspace/sifive-hifive1-revb-hello/freedom-metal/src/drivers/sifive_fe310-g000_pll.c:162

    __metal_io_u32 *pllcfg = (__metal_io_u32 *) (base + config_offset);
200140a4:	fe042703          	lw	a4,-32(s0)
200140a8:	fe442783          	lw	a5,-28(s0)
200140ac:	97ba                	add	a5,a5,a4
200140ae:	fcf42e23          	sw	a5,-36(s0)
F:/HiFive-IoT/Workspace/sifive-hifive1-revb-hello/freedom-metal/src/drivers/sifive_fe310-g000_pll.c:165

    /* If the PLL clock has had a _pre_rate_change_callback configured, call it */
    if(pll->clock._pre_rate_change_callback != NULL)
200140b2:	fcc42783          	lw	a5,-52(s0)
200140b6:	43dc                	lw	a5,4(a5)
200140b8:	cb89                	beqz	a5,200140ca <__metal_driver_sifive_fe310_g000_pll_init+0x50>
F:/HiFive-IoT/Workspace/sifive-hifive1-revb-hello/freedom-metal/src/drivers/sifive_fe310-g000_pll.c:166
        pll->clock._pre_rate_change_callback(pll->clock._pre_rate_change_callback_priv);
200140ba:	fcc42783          	lw	a5,-52(s0)
200140be:	43d8                	lw	a4,4(a5)
200140c0:	fcc42783          	lw	a5,-52(s0)
200140c4:	479c                	lw	a5,8(a5)
200140c6:	853e                	mv	a0,a5
200140c8:	9702                	jalr	a4
F:/HiFive-IoT/Workspace/sifive-hifive1-revb-hello/freedom-metal/src/drivers/sifive_fe310-g000_pll.c:169

    /* If we're running off of the PLL, switch off before we start configuring it*/
    if((__METAL_ACCESS_ONCE(pllcfg) & PLL_SEL) == 0)
200140ca:	fdc42783          	lw	a5,-36(s0)
200140ce:	4398                	lw	a4,0(a5)
200140d0:	67c1                	lui	a5,0x10
200140d2:	8ff9                	and	a5,a5,a4
200140d4:	eb91                	bnez	a5,200140e8 <__metal_driver_sifive_fe310_g000_pll_init+0x6e>
F:/HiFive-IoT/Workspace/sifive-hifive1-revb-hello/freedom-metal/src/drivers/sifive_fe310-g000_pll.c:170
        __METAL_ACCESS_ONCE(pllcfg) &= ~(PLL_SEL);
200140d6:	fdc42783          	lw	a5,-36(s0)
200140da:	4398                	lw	a4,0(a5)
200140dc:	77c1                	lui	a5,0xffff0
200140de:	17fd                	addi	a5,a5,-1
200140e0:	8f7d                	and	a4,a4,a5
200140e2:	fdc42783          	lw	a5,-36(s0)
200140e6:	c398                	sw	a4,0(a5)
F:/HiFive-IoT/Workspace/sifive-hifive1-revb-hello/freedom-metal/src/drivers/sifive_fe310-g000_pll.c:173

    /* Make sure we're running off of the external oscillator for stability */
    if(pllref != NULL)
200140e8:	fec42783          	lw	a5,-20(s0)
200140ec:	cb91                	beqz	a5,20014100 <__metal_driver_sifive_fe310_g000_pll_init+0x86>
F:/HiFive-IoT/Workspace/sifive-hifive1-revb-hello/freedom-metal/src/drivers/sifive_fe310-g000_pll.c:174
        __METAL_ACCESS_ONCE(pllcfg) |= PLL_REFSEL;
200140ee:	fdc42783          	lw	a5,-36(s0)
200140f2:	4398                	lw	a4,0(a5)
200140f4:	000207b7          	lui	a5,0x20
200140f8:	8f5d                	or	a4,a4,a5
200140fa:	fdc42783          	lw	a5,-36(s0)
200140fe:	c398                	sw	a4,0(a5)
F:/HiFive-IoT/Workspace/sifive-hifive1-revb-hello/freedom-metal/src/drivers/sifive_fe310-g000_pll.c:179

    /* Configure the PLL to run at the requested init frequency.
     * Using the vtable instead of the user API because we want to control
     * when the callbacks occur. */
    pll->clock.vtable->set_rate_hz(&(pll->clock), init_rate);
20014100:	fcc42783          	lw	a5,-52(s0)
20014104:	439c                	lw	a5,0(a5)
20014106:	43d8                	lw	a4,4(a5)
20014108:	fcc42783          	lw	a5,-52(s0)
2001410c:	fe842583          	lw	a1,-24(s0)
20014110:	853e                	mv	a0,a5
20014112:	9702                	jalr	a4
F:/HiFive-IoT/Workspace/sifive-hifive1-revb-hello/freedom-metal/src/drivers/sifive_fe310-g000_pll.c:182

    /* If the PLL clock has had a rate_change_callback configured, call it */
    if(pll->clock._post_rate_change_callback != NULL)
20014114:	fcc42783          	lw	a5,-52(s0)
20014118:	47dc                	lw	a5,12(a5)
2001411a:	cb89                	beqz	a5,2001412c <__metal_driver_sifive_fe310_g000_pll_init+0xb2>
F:/HiFive-IoT/Workspace/sifive-hifive1-revb-hello/freedom-metal/src/drivers/sifive_fe310-g000_pll.c:183
        pll->clock._post_rate_change_callback(pll->clock._post_rate_change_callback_priv);
2001411c:	fcc42783          	lw	a5,-52(s0)
20014120:	47d8                	lw	a4,12(a5)
20014122:	fcc42783          	lw	a5,-52(s0)
20014126:	4b9c                	lw	a5,16(a5)
20014128:	853e                	mv	a0,a5
2001412a:	9702                	jalr	a4
F:/HiFive-IoT/Workspace/sifive-hifive1-revb-hello/freedom-metal/src/drivers/sifive_fe310-g000_pll.c:184
}
2001412c:	0001                	nop
2001412e:	50f2                	lw	ra,60(sp)
20014130:	5462                	lw	s0,56(sp)
20014132:	6121                	addi	sp,sp,64
20014134:	8082                	ret

20014136 <__metal_driver_sifive_fe310_g000_pll_get_rate_hz>:
__metal_driver_sifive_fe310_g000_pll_get_rate_hz():
F:/HiFive-IoT/Workspace/sifive-hifive1-revb-hello/freedom-metal/src/drivers/sifive_fe310-g000_pll.c:187

long __metal_driver_sifive_fe310_g000_pll_get_rate_hz(const struct metal_clock *clock)
{
20014136:	711d                	addi	sp,sp,-96
20014138:	ce86                	sw	ra,92(sp)
2001413a:	cca2                	sw	s0,88(sp)
2001413c:	1080                	addi	s0,sp,96
2001413e:	faa42623          	sw	a0,-84(s0)
F:/HiFive-IoT/Workspace/sifive-hifive1-revb-hello/freedom-metal/src/drivers/sifive_fe310-g000_pll.c:188
    struct metal_clock *pllref = __metal_driver_sifive_fe310_g000_pll_pllref(clock);
20014142:	fac42503          	lw	a0,-84(s0)
20014146:	e1fff0ef          	jal	ra,20013f64 <__metal_driver_sifive_fe310_g000_pll_pllref>
2001414a:	fea42623          	sw	a0,-20(s0)
F:/HiFive-IoT/Workspace/sifive-hifive1-revb-hello/freedom-metal/src/drivers/sifive_fe310-g000_pll.c:189
    struct metal_clock *pllsel0 = __metal_driver_sifive_fe310_g000_pll_pllsel0(clock);
2001414e:	fac42503          	lw	a0,-84(s0)
20014152:	df9ff0ef          	jal	ra,20013f4a <__metal_driver_sifive_fe310_g000_pll_pllsel0>
20014156:	fea42423          	sw	a0,-24(s0)
F:/HiFive-IoT/Workspace/sifive-hifive1-revb-hello/freedom-metal/src/drivers/sifive_fe310-g000_pll.c:190
    long config_offset = __metal_driver_sifive_fe310_g000_pll_config_offset(clock);
2001415a:	fac42503          	lw	a0,-84(s0)
2001415e:	e5dff0ef          	jal	ra,20013fba <__metal_driver_sifive_fe310_g000_pll_config_offset>
20014162:	fea42223          	sw	a0,-28(s0)
F:/HiFive-IoT/Workspace/sifive-hifive1-revb-hello/freedom-metal/src/drivers/sifive_fe310-g000_pll.c:192
    struct __metal_driver_sifive_fe310_g000_prci *config_base =
      __metal_driver_sifive_fe310_g000_pll_config_base(clock);
20014166:	fac42503          	lw	a0,-84(s0)
2001416a:	e3fff0ef          	jal	ra,20013fa8 <__metal_driver_sifive_fe310_g000_pll_config_base>
2001416e:	fea42023          	sw	a0,-32(s0)
F:/HiFive-IoT/Workspace/sifive-hifive1-revb-hello/freedom-metal/src/drivers/sifive_fe310-g000_pll.c:193
    long divider_offset = __metal_driver_sifive_fe310_g000_pll_divider_offset(clock);
20014172:	fac42503          	lw	a0,-84(s0)
20014176:	e1fff0ef          	jal	ra,20013f94 <__metal_driver_sifive_fe310_g000_pll_divider_offset>
2001417a:	fca42e23          	sw	a0,-36(s0)
F:/HiFive-IoT/Workspace/sifive-hifive1-revb-hello/freedom-metal/src/drivers/sifive_fe310-g000_pll.c:195
    struct __metal_driver_sifive_fe310_g000_prci *divider_base =
      __metal_driver_sifive_fe310_g000_pll_divider_base(clock);
2001417e:	fac42503          	lw	a0,-84(s0)
20014182:	dfdff0ef          	jal	ra,20013f7e <__metal_driver_sifive_fe310_g000_pll_divider_base>
20014186:	fca42c23          	sw	a0,-40(s0)
F:/HiFive-IoT/Workspace/sifive-hifive1-revb-hello/freedom-metal/src/drivers/sifive_fe310-g000_pll.c:197
    const struct __metal_driver_vtable_sifive_fe310_g000_prci *vtable =
      __metal_driver_sifive_fe310_g000_prci_vtable();
2001418a:	e69ff0ef          	jal	ra,20013ff2 <__metal_driver_sifive_fe310_g000_prci_vtable>
2001418e:	fca42a23          	sw	a0,-44(s0)
F:/HiFive-IoT/Workspace/sifive-hifive1-revb-hello/freedom-metal/src/drivers/sifive_fe310-g000_pll.c:199

    long cfg = vtable->get_reg(config_base, config_offset);
20014192:	fd442783          	lw	a5,-44(s0)
20014196:	439c                	lw	a5,0(a5)
20014198:	fe442583          	lw	a1,-28(s0)
2001419c:	fe042503          	lw	a0,-32(s0)
200141a0:	9782                	jalr	a5
200141a2:	fca42823          	sw	a0,-48(s0)
F:/HiFive-IoT/Workspace/sifive-hifive1-revb-hello/freedom-metal/src/drivers/sifive_fe310-g000_pll.c:200
    long div = vtable->get_reg(divider_base, divider_offset);
200141a6:	fd442783          	lw	a5,-44(s0)
200141aa:	439c                	lw	a5,0(a5)
200141ac:	fdc42583          	lw	a1,-36(s0)
200141b0:	fd842503          	lw	a0,-40(s0)
200141b4:	9782                	jalr	a5
200141b6:	fca42623          	sw	a0,-52(s0)
F:/HiFive-IoT/Workspace/sifive-hifive1-revb-hello/freedom-metal/src/drivers/sifive_fe310-g000_pll.c:204

    /* At the end of the PLL there's one big mux: it either selects the HFROSC
     * (bypassing the PLL entirely) or uses the PLL. */
    if (__METAL_GET_FIELD(cfg, PLL_SEL) == 0)
200141ba:	fd042703          	lw	a4,-48(s0)
200141be:	67c1                	lui	a5,0x10
200141c0:	8f7d                	and	a4,a4,a5
200141c2:	67c1                	lui	a5,0x10
200141c4:	00f77863          	bgeu	a4,a5,200141d4 <__metal_driver_sifive_fe310_g000_pll_get_rate_hz+0x9e>
F:/HiFive-IoT/Workspace/sifive-hifive1-revb-hello/freedom-metal/src/drivers/sifive_fe310-g000_pll.c:205
        return metal_clock_get_rate_hz(pllsel0);
200141c8:	fe842503          	lw	a0,-24(s0)
200141cc:	0d2010ef          	jal	ra,2001529e <metal_clock_get_rate_hz>
200141d0:	87aa                	mv	a5,a0
200141d2:	a8e1                	j	200142aa <__metal_driver_sifive_fe310_g000_pll_get_rate_hz+0x174>
F:/HiFive-IoT/Workspace/sifive-hifive1-revb-hello/freedom-metal/src/drivers/sifive_fe310-g000_pll.c:209

    /* There's a clock mux before the PLL that selects between the HFROSC adn
     * the HFXOSC as the PLL's input clock. */
    long ref_hz = metal_clock_get_rate_hz(__METAL_GET_FIELD(cfg, PLL_REFSEL) ? pllref : pllsel0);
200141d4:	fd042703          	lw	a4,-48(s0)
200141d8:	000207b7          	lui	a5,0x20
200141dc:	8f7d                	and	a4,a4,a5
200141de:	000207b7          	lui	a5,0x20
200141e2:	00f76563          	bltu	a4,a5,200141ec <__metal_driver_sifive_fe310_g000_pll_get_rate_hz+0xb6>
F:/HiFive-IoT/Workspace/sifive-hifive1-revb-hello/freedom-metal/src/drivers/sifive_fe310-g000_pll.c:209 (discriminator 1)
200141e6:	fec42783          	lw	a5,-20(s0)
200141ea:	a019                	j	200141f0 <__metal_driver_sifive_fe310_g000_pll_get_rate_hz+0xba>
F:/HiFive-IoT/Workspace/sifive-hifive1-revb-hello/freedom-metal/src/drivers/sifive_fe310-g000_pll.c:209 (discriminator 2)
200141ec:	fe842783          	lw	a5,-24(s0)
F:/HiFive-IoT/Workspace/sifive-hifive1-revb-hello/freedom-metal/src/drivers/sifive_fe310-g000_pll.c:209 (discriminator 4)
200141f0:	853e                	mv	a0,a5
200141f2:	0ac010ef          	jal	ra,2001529e <metal_clock_get_rate_hz>
200141f6:	fca42423          	sw	a0,-56(s0)
F:/HiFive-IoT/Workspace/sifive-hifive1-revb-hello/freedom-metal/src/drivers/sifive_fe310-g000_pll.c:213 (discriminator 4)

    /* It's possible to bypass the PLL, which is an internal bpyass.  This
     * still obays the PLL's input clock mu. */
    if (__METAL_GET_FIELD(cfg, PLL_BYPASS))
200141fa:	fd042703          	lw	a4,-48(s0)
200141fe:	000407b7          	lui	a5,0x40
20014202:	8f7d                	and	a4,a4,a5
20014204:	000407b7          	lui	a5,0x40
20014208:	00f76563          	bltu	a4,a5,20014212 <__metal_driver_sifive_fe310_g000_pll_get_rate_hz+0xdc>
F:/HiFive-IoT/Workspace/sifive-hifive1-revb-hello/freedom-metal/src/drivers/sifive_fe310-g000_pll.c:214
        return ref_hz;
2001420c:	fc842783          	lw	a5,-56(s0)
20014210:	a869                	j	200142aa <__metal_driver_sifive_fe310_g000_pll_get_rate_hz+0x174>
F:/HiFive-IoT/Workspace/sifive-hifive1-revb-hello/freedom-metal/src/drivers/sifive_fe310-g000_pll.c:217

    /* Logically the PLL is a three stage div-mul-div. */
    long div_r = __METAL_GET_FIELD(cfg, PLL_R) + 1;
20014212:	fd042783          	lw	a5,-48(s0)
20014216:	8b9d                	andi	a5,a5,7
20014218:	0785                	addi	a5,a5,1
2001421a:	fcf42223          	sw	a5,-60(s0)
F:/HiFive-IoT/Workspace/sifive-hifive1-revb-hello/freedom-metal/src/drivers/sifive_fe310-g000_pll.c:218
    long mul_f = 2 * (__METAL_GET_FIELD(cfg, PLL_F) + 1);
2001421e:	fd042783          	lw	a5,-48(s0)
20014222:	3f07f793          	andi	a5,a5,1008
20014226:	8391                	srli	a5,a5,0x4
20014228:	0785                	addi	a5,a5,1
2001422a:	0786                	slli	a5,a5,0x1
2001422c:	fcf42023          	sw	a5,-64(s0)
F:/HiFive-IoT/Workspace/sifive-hifive1-revb-hello/freedom-metal/src/drivers/sifive_fe310-g000_pll.c:219
    if (__METAL_GET_FIELD(cfg, PLL_Q) == 0)
20014230:	fd042703          	lw	a4,-48(s0)
20014234:	6785                	lui	a5,0x1
20014236:	c0078793          	addi	a5,a5,-1024 # c00 <__heap_size+0x800>
2001423a:	8f7d                	and	a4,a4,a5
2001423c:	3ff00793          	li	a5,1023
20014240:	00e7e463          	bltu	a5,a4,20014248 <__metal_driver_sifive_fe310_g000_pll_get_rate_hz+0x112>
F:/HiFive-IoT/Workspace/sifive-hifive1-revb-hello/freedom-metal/src/drivers/sifive_fe310-g000_pll.c:220
        return -1;
20014244:	57fd                	li	a5,-1
20014246:	a095                	j	200142aa <__metal_driver_sifive_fe310_g000_pll_get_rate_hz+0x174>
F:/HiFive-IoT/Workspace/sifive-hifive1-revb-hello/freedom-metal/src/drivers/sifive_fe310-g000_pll.c:221
    long div_q = 1 << __METAL_GET_FIELD(cfg, PLL_Q);
20014248:	fd042703          	lw	a4,-48(s0)
2001424c:	6785                	lui	a5,0x1
2001424e:	c0078793          	addi	a5,a5,-1024 # c00 <__heap_size+0x800>
20014252:	8ff9                	and	a5,a5,a4
20014254:	83a9                	srli	a5,a5,0xa
20014256:	4705                	li	a4,1
20014258:	00f717b3          	sll	a5,a4,a5
2001425c:	faf42e23          	sw	a5,-68(s0)
F:/HiFive-IoT/Workspace/sifive-hifive1-revb-hello/freedom-metal/src/drivers/sifive_fe310-g000_pll.c:226

    /* In addition to the dividers inherent in the PLL, there's an additional
     * clock divider that lives after the PLL and lets us pick a more
     * interesting range of frequencies. */
    long pllout = (((ref_hz / div_r) * mul_f) / div_q);
20014260:	fc842703          	lw	a4,-56(s0)
20014264:	fc442783          	lw	a5,-60(s0)
20014268:	02f74733          	div	a4,a4,a5
2001426c:	fc042783          	lw	a5,-64(s0)
20014270:	02f70733          	mul	a4,a4,a5
20014274:	fbc42783          	lw	a5,-68(s0)
20014278:	02f747b3          	div	a5,a4,a5
2001427c:	faf42c23          	sw	a5,-72(s0)
F:/HiFive-IoT/Workspace/sifive-hifive1-revb-hello/freedom-metal/src/drivers/sifive_fe310-g000_pll.c:227
    if (__METAL_GET_FIELD(div, DIV_1))
20014280:	fcc42783          	lw	a5,-52(s0)
20014284:	1007f713          	andi	a4,a5,256
20014288:	0ff00793          	li	a5,255
2001428c:	00e7f563          	bgeu	a5,a4,20014296 <__metal_driver_sifive_fe310_g000_pll_get_rate_hz+0x160>
F:/HiFive-IoT/Workspace/sifive-hifive1-revb-hello/freedom-metal/src/drivers/sifive_fe310-g000_pll.c:228
        return pllout;
20014290:	fb842783          	lw	a5,-72(s0)
20014294:	a819                	j	200142aa <__metal_driver_sifive_fe310_g000_pll_get_rate_hz+0x174>
F:/HiFive-IoT/Workspace/sifive-hifive1-revb-hello/freedom-metal/src/drivers/sifive_fe310-g000_pll.c:230

    return pllout / (2 * (__METAL_GET_FIELD(div, DIV_DIV) + 1));
20014296:	fb842703          	lw	a4,-72(s0)
2001429a:	fcc42783          	lw	a5,-52(s0)
2001429e:	03f7f793          	andi	a5,a5,63
200142a2:	0785                	addi	a5,a5,1
200142a4:	0786                	slli	a5,a5,0x1
200142a6:	02f757b3          	divu	a5,a4,a5
F:/HiFive-IoT/Workspace/sifive-hifive1-revb-hello/freedom-metal/src/drivers/sifive_fe310-g000_pll.c:231
}
200142aa:	853e                	mv	a0,a5
200142ac:	40f6                	lw	ra,92(sp)
200142ae:	4466                	lw	s0,88(sp)
200142b0:	6125                	addi	sp,sp,96
200142b2:	8082                	ret

200142b4 <find_closest_config>:
find_closest_config():
F:/HiFive-IoT/Workspace/sifive-hifive1-revb-hello/freedom-metal/src/drivers/sifive_fe310-g000_pll.c:242
 *  - rate desired PLL output frequency
 * Returns:
 *  -1 if no valid configuration is available
 *  the index into pll_configs of a valid configuration */
static int find_closest_config(long ref_hz, long rate)
{
200142b4:	7139                	addi	sp,sp,-64
200142b6:	de06                	sw	ra,60(sp)
200142b8:	dc22                	sw	s0,56(sp)
200142ba:	0080                	addi	s0,sp,64
200142bc:	fca42623          	sw	a0,-52(s0)
200142c0:	fcb42423          	sw	a1,-56(s0)
F:/HiFive-IoT/Workspace/sifive-hifive1-revb-hello/freedom-metal/src/drivers/sifive_fe310-g000_pll.c:243
    int closest_index = -1;
200142c4:	57fd                	li	a5,-1
200142c6:	fef42623          	sw	a5,-20(s0)
F:/HiFive-IoT/Workspace/sifive-hifive1-revb-hello/freedom-metal/src/drivers/sifive_fe310-g000_pll.c:244
    long closest_diff = LONG_MAX;
200142ca:	800007b7          	lui	a5,0x80000
200142ce:	fff7c793          	not	a5,a5
200142d2:	fef42423          	sw	a5,-24(s0)
F:/HiFive-IoT/Workspace/sifive-hifive1-revb-hello/freedom-metal/src/drivers/sifive_fe310-g000_pll.c:248

    /* We're probably trying for a fast output frequency, so start from
     * the high end of the configs. */
    for(int i = (sizeof(pll_configs) / sizeof(pll_configs[0])) - 1; i >= 0; i--)
200142d6:	04300793          	li	a5,67
200142da:	fef42223          	sw	a5,-28(s0)
200142de:	a0ad                	j	20014348 <find_closest_config+0x94>
F:/HiFive-IoT/Workspace/sifive-hifive1-revb-hello/freedom-metal/src/drivers/sifive_fe310-g000_pll.c:250
    {
        long config_freq = get_pll_config_freq(ref_hz, &(pll_configs[i]));
200142e0:	fe442783          	lw	a5,-28(s0)
200142e4:	00579713          	slli	a4,a5,0x5
200142e8:	200167b7          	lui	a5,0x20016
200142ec:	7f078793          	addi	a5,a5,2032 # 200167f0 <pll_configs>
200142f0:	97ba                	add	a5,a5,a4
200142f2:	85be                	mv	a1,a5
200142f4:	fcc42503          	lw	a0,-52(s0)
200142f8:	d0dff0ef          	jal	ra,20014004 <get_pll_config_freq>
200142fc:	fea42023          	sw	a0,-32(s0)
F:/HiFive-IoT/Workspace/sifive-hifive1-revb-hello/freedom-metal/src/drivers/sifive_fe310-g000_pll.c:251
        if(config_freq != PLL_CONFIG_NOT_VALID)
20014300:	fe042703          	lw	a4,-32(s0)
20014304:	57fd                	li	a5,-1
20014306:	02f70c63          	beq	a4,a5,2001433e <find_closest_config+0x8a>
F:/HiFive-IoT/Workspace/sifive-hifive1-revb-hello/freedom-metal/src/drivers/sifive_fe310-g000_pll.c:253
        {
            long freq_diff = abs(config_freq - rate);
2001430a:	fe042703          	lw	a4,-32(s0)
2001430e:	fc842783          	lw	a5,-56(s0)
20014312:	8f1d                	sub	a4,a4,a5
20014314:	41f75793          	srai	a5,a4,0x1f
20014318:	8f3d                	xor	a4,a4,a5
2001431a:	40f707b3          	sub	a5,a4,a5
2001431e:	fcf42e23          	sw	a5,-36(s0)
F:/HiFive-IoT/Workspace/sifive-hifive1-revb-hello/freedom-metal/src/drivers/sifive_fe310-g000_pll.c:254
            if(freq_diff < closest_diff)
20014322:	fdc42703          	lw	a4,-36(s0)
20014326:	fe842783          	lw	a5,-24(s0)
2001432a:	00f75a63          	bge	a4,a5,2001433e <find_closest_config+0x8a>
F:/HiFive-IoT/Workspace/sifive-hifive1-revb-hello/freedom-metal/src/drivers/sifive_fe310-g000_pll.c:256
            {
                closest_index = i;
2001432e:	fe442783          	lw	a5,-28(s0)
20014332:	fef42623          	sw	a5,-20(s0)
F:/HiFive-IoT/Workspace/sifive-hifive1-revb-hello/freedom-metal/src/drivers/sifive_fe310-g000_pll.c:257
                closest_diff = freq_diff;
20014336:	fdc42783          	lw	a5,-36(s0)
2001433a:	fef42423          	sw	a5,-24(s0)
F:/HiFive-IoT/Workspace/sifive-hifive1-revb-hello/freedom-metal/src/drivers/sifive_fe310-g000_pll.c:248 (discriminator 2)
    for(int i = (sizeof(pll_configs) / sizeof(pll_configs[0])) - 1; i >= 0; i--)
2001433e:	fe442783          	lw	a5,-28(s0)
20014342:	17fd                	addi	a5,a5,-1
20014344:	fef42223          	sw	a5,-28(s0)
F:/HiFive-IoT/Workspace/sifive-hifive1-revb-hello/freedom-metal/src/drivers/sifive_fe310-g000_pll.c:248 (discriminator 1)
20014348:	fe442783          	lw	a5,-28(s0)
2001434c:	f807dae3          	bgez	a5,200142e0 <find_closest_config+0x2c>
F:/HiFive-IoT/Workspace/sifive-hifive1-revb-hello/freedom-metal/src/drivers/sifive_fe310-g000_pll.c:262
            }
        }
    }

    return closest_index;
20014350:	fec42783          	lw	a5,-20(s0)
F:/HiFive-IoT/Workspace/sifive-hifive1-revb-hello/freedom-metal/src/drivers/sifive_fe310-g000_pll.c:263
}
20014354:	853e                	mv	a0,a5
20014356:	50f2                	lw	ra,60(sp)
20014358:	5462                	lw	s0,56(sp)
2001435a:	6121                	addi	sp,sp,64
2001435c:	8082                	ret

2001435e <configure_pll>:
configure_pll():
F:/HiFive-IoT/Workspace/sifive-hifive1-revb-hello/freedom-metal/src/drivers/sifive_fe310-g000_pll.c:267

/* Configure the PLL and wait for it to lock */
static void configure_pll(__metal_io_u32 *pllcfg, __metal_io_u32 *plloutdiv, const struct pll_config_t *config)
{
2001435e:	1101                	addi	sp,sp,-32
20014360:	ce22                	sw	s0,28(sp)
20014362:	1000                	addi	s0,sp,32
20014364:	fea42623          	sw	a0,-20(s0)
20014368:	feb42423          	sw	a1,-24(s0)
2001436c:	fec42223          	sw	a2,-28(s0)
F:/HiFive-IoT/Workspace/sifive-hifive1-revb-hello/freedom-metal/src/drivers/sifive_fe310-g000_pll.c:268
    __METAL_ACCESS_ONCE(pllcfg) &= ~(PLL_R);
20014370:	fec42783          	lw	a5,-20(s0)
20014374:	439c                	lw	a5,0(a5)
20014376:	ff87f713          	andi	a4,a5,-8
2001437a:	fec42783          	lw	a5,-20(s0)
2001437e:	c398                	sw	a4,0(a5)
F:/HiFive-IoT/Workspace/sifive-hifive1-revb-hello/freedom-metal/src/drivers/sifive_fe310-g000_pll.c:269
    __METAL_ACCESS_ONCE(pllcfg) |= PLL_R_SHIFT(config->r);
20014380:	fec42783          	lw	a5,-20(s0)
20014384:	4398                	lw	a4,0(a5)
20014386:	fe442783          	lw	a5,-28(s0)
2001438a:	4b9c                	lw	a5,16(a5)
2001438c:	8b9d                	andi	a5,a5,7
2001438e:	8f5d                	or	a4,a4,a5
20014390:	fec42783          	lw	a5,-20(s0)
20014394:	c398                	sw	a4,0(a5)
F:/HiFive-IoT/Workspace/sifive-hifive1-revb-hello/freedom-metal/src/drivers/sifive_fe310-g000_pll.c:271

    __METAL_ACCESS_ONCE(pllcfg) &= ~(PLL_F);
20014396:	fec42783          	lw	a5,-20(s0)
2001439a:	439c                	lw	a5,0(a5)
2001439c:	c0f7f713          	andi	a4,a5,-1009
200143a0:	fec42783          	lw	a5,-20(s0)
200143a4:	c398                	sw	a4,0(a5)
F:/HiFive-IoT/Workspace/sifive-hifive1-revb-hello/freedom-metal/src/drivers/sifive_fe310-g000_pll.c:272
    __METAL_ACCESS_ONCE(pllcfg) |= PLL_F_SHIFT(config->f);
200143a6:	fec42783          	lw	a5,-20(s0)
200143aa:	4398                	lw	a4,0(a5)
200143ac:	fe442783          	lw	a5,-28(s0)
200143b0:	4bdc                	lw	a5,20(a5)
200143b2:	0792                	slli	a5,a5,0x4
200143b4:	3f07f793          	andi	a5,a5,1008
200143b8:	8f5d                	or	a4,a4,a5
200143ba:	fec42783          	lw	a5,-20(s0)
200143be:	c398                	sw	a4,0(a5)
F:/HiFive-IoT/Workspace/sifive-hifive1-revb-hello/freedom-metal/src/drivers/sifive_fe310-g000_pll.c:274

    __METAL_ACCESS_ONCE(pllcfg) &= ~(PLL_Q);
200143c0:	fec42783          	lw	a5,-20(s0)
200143c4:	4398                	lw	a4,0(a5)
200143c6:	77fd                	lui	a5,0xfffff
200143c8:	3ff78793          	addi	a5,a5,1023 # fffff3ff <metal_segment_heap_target_end+0x7fffe333>
200143cc:	8f7d                	and	a4,a4,a5
200143ce:	fec42783          	lw	a5,-20(s0)
200143d2:	c398                	sw	a4,0(a5)
F:/HiFive-IoT/Workspace/sifive-hifive1-revb-hello/freedom-metal/src/drivers/sifive_fe310-g000_pll.c:275
    __METAL_ACCESS_ONCE(pllcfg) |= PLL_Q_SHIFT(config->q);
200143d4:	fec42783          	lw	a5,-20(s0)
200143d8:	4398                	lw	a4,0(a5)
200143da:	fe442783          	lw	a5,-28(s0)
200143de:	4f9c                	lw	a5,24(a5)
200143e0:	00a79693          	slli	a3,a5,0xa
200143e4:	6785                	lui	a5,0x1
200143e6:	c0078793          	addi	a5,a5,-1024 # c00 <__heap_size+0x800>
200143ea:	8ff5                	and	a5,a5,a3
200143ec:	8f5d                	or	a4,a4,a5
200143ee:	fec42783          	lw	a5,-20(s0)
200143f2:	c398                	sw	a4,0(a5)
F:/HiFive-IoT/Workspace/sifive-hifive1-revb-hello/freedom-metal/src/drivers/sifive_fe310-g000_pll.c:277

    if(config->d < 0)
200143f4:	fe442783          	lw	a5,-28(s0)
200143f8:	4fdc                	lw	a5,28(a5)
200143fa:	0207db63          	bgez	a5,20014430 <configure_pll+0xd2>
F:/HiFive-IoT/Workspace/sifive-hifive1-revb-hello/freedom-metal/src/drivers/sifive_fe310-g000_pll.c:280
    {
        /* disable final divider */
        __METAL_ACCESS_ONCE(plloutdiv) |= DIV_1;
200143fe:	fe842783          	lw	a5,-24(s0)
20014402:	439c                	lw	a5,0(a5)
20014404:	1007e713          	ori	a4,a5,256
20014408:	fe842783          	lw	a5,-24(s0)
2001440c:	c398                	sw	a4,0(a5)
F:/HiFive-IoT/Workspace/sifive-hifive1-revb-hello/freedom-metal/src/drivers/sifive_fe310-g000_pll.c:282

        __METAL_ACCESS_ONCE(plloutdiv) &= ~(DIV_DIV);
2001440e:	fe842783          	lw	a5,-24(s0)
20014412:	439c                	lw	a5,0(a5)
20014414:	fc07f713          	andi	a4,a5,-64
20014418:	fe842783          	lw	a5,-24(s0)
2001441c:	c398                	sw	a4,0(a5)
F:/HiFive-IoT/Workspace/sifive-hifive1-revb-hello/freedom-metal/src/drivers/sifive_fe310-g000_pll.c:283
        __METAL_ACCESS_ONCE(plloutdiv) |= PLL_DIV_SHIFT(1);
2001441e:	fe842783          	lw	a5,-24(s0)
20014422:	439c                	lw	a5,0(a5)
20014424:	0017e713          	ori	a4,a5,1
20014428:	fe842783          	lw	a5,-24(s0)
2001442c:	c398                	sw	a4,0(a5)
2001442e:	a82d                	j	20014468 <configure_pll+0x10a>
F:/HiFive-IoT/Workspace/sifive-hifive1-revb-hello/freedom-metal/src/drivers/sifive_fe310-g000_pll.c:287
    }
    else
    {
        __METAL_ACCESS_ONCE(plloutdiv) &= ~(DIV_1);
20014430:	fe842783          	lw	a5,-24(s0)
20014434:	439c                	lw	a5,0(a5)
20014436:	eff7f713          	andi	a4,a5,-257
2001443a:	fe842783          	lw	a5,-24(s0)
2001443e:	c398                	sw	a4,0(a5)
F:/HiFive-IoT/Workspace/sifive-hifive1-revb-hello/freedom-metal/src/drivers/sifive_fe310-g000_pll.c:289

        __METAL_ACCESS_ONCE(plloutdiv) &= ~(DIV_DIV);
20014440:	fe842783          	lw	a5,-24(s0)
20014444:	439c                	lw	a5,0(a5)
20014446:	fc07f713          	andi	a4,a5,-64
2001444a:	fe842783          	lw	a5,-24(s0)
2001444e:	c398                	sw	a4,0(a5)
F:/HiFive-IoT/Workspace/sifive-hifive1-revb-hello/freedom-metal/src/drivers/sifive_fe310-g000_pll.c:290
        __METAL_ACCESS_ONCE(plloutdiv) |= PLL_DIV_SHIFT(config->d);
20014450:	fe842783          	lw	a5,-24(s0)
20014454:	4398                	lw	a4,0(a5)
20014456:	fe442783          	lw	a5,-28(s0)
2001445a:	4fdc                	lw	a5,28(a5)
2001445c:	03f7f793          	andi	a5,a5,63
20014460:	8f5d                	or	a4,a4,a5
20014462:	fe842783          	lw	a5,-24(s0)
20014466:	c398                	sw	a4,0(a5)
F:/HiFive-IoT/Workspace/sifive-hifive1-revb-hello/freedom-metal/src/drivers/sifive_fe310-g000_pll.c:293
    }

    __METAL_ACCESS_ONCE(pllcfg) &= ~(PLL_BYPASS);
20014468:	fec42783          	lw	a5,-20(s0)
2001446c:	4398                	lw	a4,0(a5)
2001446e:	fffc07b7          	lui	a5,0xfffc0
20014472:	17fd                	addi	a5,a5,-1
20014474:	8f7d                	and	a4,a4,a5
20014476:	fec42783          	lw	a5,-20(s0)
2001447a:	c398                	sw	a4,0(a5)
F:/HiFive-IoT/Workspace/sifive-hifive1-revb-hello/freedom-metal/src/drivers/sifive_fe310-g000_pll.c:296

    /* Wait for PLL to lock */
    while((__METAL_ACCESS_ONCE(pllcfg) & PLL_LOCK) == 0) ;
2001447c:	0001                	nop
F:/HiFive-IoT/Workspace/sifive-hifive1-revb-hello/freedom-metal/src/drivers/sifive_fe310-g000_pll.c:296 (discriminator 1)
2001447e:	fec42783          	lw	a5,-20(s0)
20014482:	439c                	lw	a5,0(a5)
20014484:	fe07dde3          	bgez	a5,2001447e <configure_pll+0x120>
F:/HiFive-IoT/Workspace/sifive-hifive1-revb-hello/freedom-metal/src/drivers/sifive_fe310-g000_pll.c:297
}
20014488:	0001                	nop
2001448a:	4472                	lw	s0,28(sp)
2001448c:	6105                	addi	sp,sp,32
2001448e:	8082                	ret

20014490 <__metal_driver_sifive_fe310_g000_pll_set_rate_hz>:
__metal_driver_sifive_fe310_g000_pll_set_rate_hz():
F:/HiFive-IoT/Workspace/sifive-hifive1-revb-hello/freedom-metal/src/drivers/sifive_fe310-g000_pll.c:300

long __metal_driver_sifive_fe310_g000_pll_set_rate_hz(struct metal_clock *clock, long rate)
{
20014490:	715d                	addi	sp,sp,-80
20014492:	c686                	sw	ra,76(sp)
20014494:	c4a2                	sw	s0,72(sp)
20014496:	0880                	addi	s0,sp,80
20014498:	faa42e23          	sw	a0,-68(s0)
2001449c:	fab42c23          	sw	a1,-72(s0)
F:/HiFive-IoT/Workspace/sifive-hifive1-revb-hello/freedom-metal/src/drivers/sifive_fe310-g000_pll.c:301
    struct metal_clock *pllref = __metal_driver_sifive_fe310_g000_pll_pllref(clock);
200144a0:	fbc42503          	lw	a0,-68(s0)
200144a4:	ac1ff0ef          	jal	ra,20013f64 <__metal_driver_sifive_fe310_g000_pll_pllref>
200144a8:	fea42623          	sw	a0,-20(s0)
F:/HiFive-IoT/Workspace/sifive-hifive1-revb-hello/freedom-metal/src/drivers/sifive_fe310-g000_pll.c:302
    struct metal_clock *pllsel0 = __metal_driver_sifive_fe310_g000_pll_pllsel0(clock);
200144ac:	fbc42503          	lw	a0,-68(s0)
200144b0:	a9bff0ef          	jal	ra,20013f4a <__metal_driver_sifive_fe310_g000_pll_pllsel0>
200144b4:	fea42423          	sw	a0,-24(s0)
F:/HiFive-IoT/Workspace/sifive-hifive1-revb-hello/freedom-metal/src/drivers/sifive_fe310-g000_pll.c:303
    long config_offset = __metal_driver_sifive_fe310_g000_pll_config_offset(clock);
200144b8:	fbc42503          	lw	a0,-68(s0)
200144bc:	affff0ef          	jal	ra,20013fba <__metal_driver_sifive_fe310_g000_pll_config_offset>
200144c0:	fea42223          	sw	a0,-28(s0)
F:/HiFive-IoT/Workspace/sifive-hifive1-revb-hello/freedom-metal/src/drivers/sifive_fe310-g000_pll.c:304
    long divider_offset = __metal_driver_sifive_fe310_g000_pll_divider_offset(clock);
200144c4:	fbc42503          	lw	a0,-68(s0)
200144c8:	acdff0ef          	jal	ra,20013f94 <__metal_driver_sifive_fe310_g000_pll_divider_offset>
200144cc:	fea42023          	sw	a0,-32(s0)
F:/HiFive-IoT/Workspace/sifive-hifive1-revb-hello/freedom-metal/src/drivers/sifive_fe310-g000_pll.c:305
    long base = __metal_driver_sifive_fe310_g000_prci_base();
200144d0:	b11ff0ef          	jal	ra,20013fe0 <__metal_driver_sifive_fe310_g000_prci_base>
200144d4:	fca42e23          	sw	a0,-36(s0)
F:/HiFive-IoT/Workspace/sifive-hifive1-revb-hello/freedom-metal/src/drivers/sifive_fe310-g000_pll.c:307

    __metal_io_u32 *pllcfg = (__metal_io_u32 *) (base + config_offset);
200144d8:	fdc42703          	lw	a4,-36(s0)
200144dc:	fe442783          	lw	a5,-28(s0)
200144e0:	97ba                	add	a5,a5,a4
200144e2:	fcf42c23          	sw	a5,-40(s0)
F:/HiFive-IoT/Workspace/sifive-hifive1-revb-hello/freedom-metal/src/drivers/sifive_fe310-g000_pll.c:308
    __metal_io_u32 *plloutdiv = (__metal_io_u32 *) (base + divider_offset);
200144e6:	fdc42703          	lw	a4,-36(s0)
200144ea:	fe042783          	lw	a5,-32(s0)
200144ee:	97ba                	add	a5,a5,a4
200144f0:	fcf42a23          	sw	a5,-44(s0)
F:/HiFive-IoT/Workspace/sifive-hifive1-revb-hello/freedom-metal/src/drivers/sifive_fe310-g000_pll.c:311

    /* We can't modify the PLL if coreclk is driven by it, so switch it off */
    if (__METAL_ACCESS_ONCE(pllcfg) & PLL_SEL)
200144f4:	fd842783          	lw	a5,-40(s0)
200144f8:	4398                	lw	a4,0(a5)
200144fa:	67c1                	lui	a5,0x10
200144fc:	8ff9                	and	a5,a5,a4
200144fe:	cb91                	beqz	a5,20014512 <__metal_driver_sifive_fe310_g000_pll_set_rate_hz+0x82>
F:/HiFive-IoT/Workspace/sifive-hifive1-revb-hello/freedom-metal/src/drivers/sifive_fe310-g000_pll.c:312
        __METAL_ACCESS_ONCE(pllcfg) &= ~(PLL_SEL);
20014500:	fd842783          	lw	a5,-40(s0)
20014504:	4398                	lw	a4,0(a5)
20014506:	77c1                	lui	a5,0xffff0
20014508:	17fd                	addi	a5,a5,-1
2001450a:	8f7d                	and	a4,a4,a5
2001450c:	fd842783          	lw	a5,-40(s0)
20014510:	c398                	sw	a4,0(a5)
F:/HiFive-IoT/Workspace/sifive-hifive1-revb-hello/freedom-metal/src/drivers/sifive_fe310-g000_pll.c:316

    /* There's a clock mux before the PLL that selects between the HFROSC and
     * the HFXOSC as the PLL's input clock. */
    long ref_hz = metal_clock_get_rate_hz(__METAL_ACCESS_ONCE(pllcfg) & PLL_REFSEL ? pllref : pllsel0);
20014512:	fd842783          	lw	a5,-40(s0)
20014516:	4398                	lw	a4,0(a5)
20014518:	000207b7          	lui	a5,0x20
2001451c:	8ff9                	and	a5,a5,a4
2001451e:	c781                	beqz	a5,20014526 <__metal_driver_sifive_fe310_g000_pll_set_rate_hz+0x96>
F:/HiFive-IoT/Workspace/sifive-hifive1-revb-hello/freedom-metal/src/drivers/sifive_fe310-g000_pll.c:316 (discriminator 1)
20014520:	fec42783          	lw	a5,-20(s0)
20014524:	a019                	j	2001452a <__metal_driver_sifive_fe310_g000_pll_set_rate_hz+0x9a>
F:/HiFive-IoT/Workspace/sifive-hifive1-revb-hello/freedom-metal/src/drivers/sifive_fe310-g000_pll.c:316 (discriminator 2)
20014526:	fe842783          	lw	a5,-24(s0)
F:/HiFive-IoT/Workspace/sifive-hifive1-revb-hello/freedom-metal/src/drivers/sifive_fe310-g000_pll.c:316 (discriminator 4)
2001452a:	853e                	mv	a0,a5
2001452c:	573000ef          	jal	ra,2001529e <metal_clock_get_rate_hz>
20014530:	fca42823          	sw	a0,-48(s0)
F:/HiFive-IoT/Workspace/sifive-hifive1-revb-hello/freedom-metal/src/drivers/sifive_fe310-g000_pll.c:319 (discriminator 4)

    /* if the desired rate is within 75%-125% of the input clock, bypass the PLL */
    if((ref_hz * 3 / 4) <= rate && (ref_hz * 5 / 4) >= rate)
20014534:	fd042703          	lw	a4,-48(s0)
20014538:	87ba                	mv	a5,a4
2001453a:	0786                	slli	a5,a5,0x1
2001453c:	97ba                	add	a5,a5,a4
2001453e:	41f7d713          	srai	a4,a5,0x1f
20014542:	8b0d                	andi	a4,a4,3
20014544:	97ba                	add	a5,a5,a4
20014546:	8789                	srai	a5,a5,0x2
20014548:	873e                	mv	a4,a5
2001454a:	fb842783          	lw	a5,-72(s0)
2001454e:	02e7cb63          	blt	a5,a4,20014584 <__metal_driver_sifive_fe310_g000_pll_set_rate_hz+0xf4>
F:/HiFive-IoT/Workspace/sifive-hifive1-revb-hello/freedom-metal/src/drivers/sifive_fe310-g000_pll.c:319 (discriminator 1)
20014552:	fd042703          	lw	a4,-48(s0)
20014556:	87ba                	mv	a5,a4
20014558:	078a                	slli	a5,a5,0x2
2001455a:	97ba                	add	a5,a5,a4
2001455c:	41f7d713          	srai	a4,a5,0x1f
20014560:	8b0d                	andi	a4,a4,3
20014562:	97ba                	add	a5,a5,a4
20014564:	8789                	srai	a5,a5,0x2
20014566:	873e                	mv	a4,a5
20014568:	fb842783          	lw	a5,-72(s0)
2001456c:	00f74c63          	blt	a4,a5,20014584 <__metal_driver_sifive_fe310_g000_pll_set_rate_hz+0xf4>
F:/HiFive-IoT/Workspace/sifive-hifive1-revb-hello/freedom-metal/src/drivers/sifive_fe310-g000_pll.c:321
    {
        __METAL_ACCESS_ONCE(pllcfg) |= PLL_BYPASS;
20014570:	fd842783          	lw	a5,-40(s0)
20014574:	4398                	lw	a4,0(a5)
20014576:	000407b7          	lui	a5,0x40
2001457a:	8f5d                	or	a4,a4,a5
2001457c:	fd842783          	lw	a5,-40(s0)
20014580:	c398                	sw	a4,0(a5)
20014582:	a881                	j	200145d2 <__metal_driver_sifive_fe310_g000_pll_set_rate_hz+0x142>
F:/HiFive-IoT/Workspace/sifive-hifive1-revb-hello/freedom-metal/src/drivers/sifive_fe310-g000_pll.c:325
    }
    else
    {
        int config_index = find_closest_config(ref_hz, rate);
20014584:	fb842583          	lw	a1,-72(s0)
20014588:	fd042503          	lw	a0,-48(s0)
2001458c:	d29ff0ef          	jal	ra,200142b4 <find_closest_config>
20014590:	fca42623          	sw	a0,-52(s0)
F:/HiFive-IoT/Workspace/sifive-hifive1-revb-hello/freedom-metal/src/drivers/sifive_fe310-g000_pll.c:326
        if(config_index != -1)
20014594:	fcc42703          	lw	a4,-52(s0)
20014598:	57fd                	li	a5,-1
2001459a:	02f70363          	beq	a4,a5,200145c0 <__metal_driver_sifive_fe310_g000_pll_set_rate_hz+0x130>
F:/HiFive-IoT/Workspace/sifive-hifive1-revb-hello/freedom-metal/src/drivers/sifive_fe310-g000_pll.c:328
        {
            configure_pll(pllcfg, plloutdiv, &(pll_configs[config_index]));
2001459e:	fcc42783          	lw	a5,-52(s0)
200145a2:	00579713          	slli	a4,a5,0x5
200145a6:	200167b7          	lui	a5,0x20016
200145aa:	7f078793          	addi	a5,a5,2032 # 200167f0 <pll_configs>
200145ae:	97ba                	add	a5,a5,a4
200145b0:	863e                	mv	a2,a5
200145b2:	fd442583          	lw	a1,-44(s0)
200145b6:	fd842503          	lw	a0,-40(s0)
200145ba:	da5ff0ef          	jal	ra,2001435e <configure_pll>
200145be:	a811                	j	200145d2 <__metal_driver_sifive_fe310_g000_pll_set_rate_hz+0x142>
F:/HiFive-IoT/Workspace/sifive-hifive1-revb-hello/freedom-metal/src/drivers/sifive_fe310-g000_pll.c:333
        }
        else
        {
            /* unable to find a valid configuration */
            __METAL_ACCESS_ONCE(pllcfg) |= PLL_BYPASS;
200145c0:	fd842783          	lw	a5,-40(s0)
200145c4:	4398                	lw	a4,0(a5)
200145c6:	000407b7          	lui	a5,0x40
200145ca:	8f5d                	or	a4,a4,a5
200145cc:	fd842783          	lw	a5,-40(s0)
200145d0:	c398                	sw	a4,0(a5)
F:/HiFive-IoT/Workspace/sifive-hifive1-revb-hello/freedom-metal/src/drivers/sifive_fe310-g000_pll.c:338
        }
    }

    /* Enable the PLL */
    __METAL_ACCESS_ONCE(pllcfg) |= PLL_SEL;
200145d2:	fd842783          	lw	a5,-40(s0)
200145d6:	4398                	lw	a4,0(a5)
200145d8:	67c1                	lui	a5,0x10
200145da:	8f5d                	or	a4,a4,a5
200145dc:	fd842783          	lw	a5,-40(s0)
200145e0:	c398                	sw	a4,0(a5)
F:/HiFive-IoT/Workspace/sifive-hifive1-revb-hello/freedom-metal/src/drivers/sifive_fe310-g000_pll.c:340

    return __metal_driver_sifive_fe310_g000_pll_get_rate_hz(clock);
200145e2:	fbc42503          	lw	a0,-68(s0)
200145e6:	b51ff0ef          	jal	ra,20014136 <__metal_driver_sifive_fe310_g000_pll_get_rate_hz>
200145ea:	87aa                	mv	a5,a0
F:/HiFive-IoT/Workspace/sifive-hifive1-revb-hello/freedom-metal/src/drivers/sifive_fe310-g000_pll.c:341
}
200145ec:	853e                	mv	a0,a5
200145ee:	40b6                	lw	ra,76(sp)
200145f0:	4426                	lw	s0,72(sp)
200145f2:	6161                	addi	sp,sp,80
200145f4:	8082                	ret

200145f6 <use_hfxosc>:
use_hfxosc():
F:/HiFive-IoT/Workspace/sifive-hifive1-revb-hello/freedom-metal/src/drivers/sifive_fe310-g000_pll.c:346

#ifdef __METAL_DT_SIFIVE_FE310_G000_PLL_HANDLE
static void use_hfxosc(void) __attribute__((constructor));
static void use_hfxosc(void)
{
200145f6:	1101                	addi	sp,sp,-32
200145f8:	ce06                	sw	ra,28(sp)
200145fa:	cc22                	sw	s0,24(sp)
200145fc:	1000                	addi	s0,sp,32
F:/HiFive-IoT/Workspace/sifive-hifive1-revb-hello/freedom-metal/src/drivers/sifive_fe310-g000_pll.c:347
    long init_rate = __metal_driver_sifive_fe310_g000_pll_init_rate();
200145fe:	9cdff0ef          	jal	ra,20013fca <__metal_driver_sifive_fe310_g000_pll_init_rate>
20014602:	fea42623          	sw	a0,-20(s0)
F:/HiFive-IoT/Workspace/sifive-hifive1-revb-hello/freedom-metal/src/drivers/sifive_fe310-g000_pll.c:348
    metal_clock_set_rate_hz(
20014606:	fec42583          	lw	a1,-20(s0)
2001460a:	800007b7          	lui	a5,0x80000
2001460e:	78078513          	addi	a0,a5,1920 # 80000780 <metal_segment_heap_target_end+0xfffff6b4>
20014612:	4b3000ef          	jal	ra,200152c4 <metal_clock_set_rate_hz>
F:/HiFive-IoT/Workspace/sifive-hifive1-revb-hello/freedom-metal/src/drivers/sifive_fe310-g000_pll.c:351
        &__METAL_DT_SIFIVE_FE310_G000_PLL_HANDLE->clock, init_rate
    );
}
20014616:	0001                	nop
20014618:	40f2                	lw	ra,28(sp)
2001461a:	4462                	lw	s0,24(sp)
2001461c:	6105                	addi	sp,sp,32
2001461e:	8082                	ret

20014620 <__metal_driver_sifive_fe310_g000_prci_base>:
__metal_driver_sifive_fe310_g000_prci_base():
F:\HiFive-IoT\Workspace\sifive-hifive1-revb-hello\bsp\build\debug/./metal/machine.h:777
{
20014620:	1141                	addi	sp,sp,-16
20014622:	c622                	sw	s0,12(sp)
20014624:	0800                	addi	s0,sp,16
F:\HiFive-IoT\Workspace\sifive-hifive1-revb-hello\bsp\build\debug/./metal/machine.h:778
		return METAL_SIFIVE_FE310_G000_PRCI_10008000_BASE_ADDRESS;
20014626:	100087b7          	lui	a5,0x10008
F:\HiFive-IoT\Workspace\sifive-hifive1-revb-hello\bsp\build\debug/./metal/machine.h:779
}
2001462a:	853e                	mv	a0,a5
2001462c:	4432                	lw	s0,12(sp)
2001462e:	0141                	addi	sp,sp,16
20014630:	8082                	ret

20014632 <__metal_driver_sifive_fe310_g000_prci_get_reg>:
__metal_driver_sifive_fe310_g000_prci_get_reg():
F:/HiFive-IoT/Workspace/sifive-hifive1-revb-hello/freedom-metal/src/drivers/sifive_fe310-g000_prci.c:11
#ifdef METAL_SIFIVE_FE310_G000_PRCI

#include <metal/drivers/sifive_fe310-g000_prci.h>
#include <metal/machine.h>

long __metal_driver_sifive_fe310_g000_prci_get_reg(const struct __metal_driver_sifive_fe310_g000_prci *prci, long offset) {
20014632:	7179                	addi	sp,sp,-48
20014634:	d606                	sw	ra,44(sp)
20014636:	d422                	sw	s0,40(sp)
20014638:	1800                	addi	s0,sp,48
2001463a:	fca42e23          	sw	a0,-36(s0)
2001463e:	fcb42c23          	sw	a1,-40(s0)
F:/HiFive-IoT/Workspace/sifive-hifive1-revb-hello/freedom-metal/src/drivers/sifive_fe310-g000_prci.c:12
    unsigned long base = __metal_driver_sifive_fe310_g000_prci_base();
20014642:	3ff9                	jal	20014620 <__metal_driver_sifive_fe310_g000_prci_base>
20014644:	87aa                	mv	a5,a0
20014646:	fef42623          	sw	a5,-20(s0)
F:/HiFive-IoT/Workspace/sifive-hifive1-revb-hello/freedom-metal/src/drivers/sifive_fe310-g000_prci.c:13
    return __METAL_ACCESS_ONCE((__metal_io_u32 *)(base + offset));
2001464a:	fd842703          	lw	a4,-40(s0)
2001464e:	fec42783          	lw	a5,-20(s0)
20014652:	97ba                	add	a5,a5,a4
20014654:	439c                	lw	a5,0(a5)
F:/HiFive-IoT/Workspace/sifive-hifive1-revb-hello/freedom-metal/src/drivers/sifive_fe310-g000_prci.c:14
}
20014656:	853e                	mv	a0,a5
20014658:	50b2                	lw	ra,44(sp)
2001465a:	5422                	lw	s0,40(sp)
2001465c:	6145                	addi	sp,sp,48
2001465e:	8082                	ret

20014660 <__metal_driver_sifive_fe310_g000_prci_set_reg>:
__metal_driver_sifive_fe310_g000_prci_set_reg():
F:/HiFive-IoT/Workspace/sifive-hifive1-revb-hello/freedom-metal/src/drivers/sifive_fe310-g000_prci.c:16

long __metal_driver_sifive_fe310_g000_prci_set_reg(const struct __metal_driver_sifive_fe310_g000_prci *prci, long offset, long value) {
20014660:	7179                	addi	sp,sp,-48
20014662:	d606                	sw	ra,44(sp)
20014664:	d422                	sw	s0,40(sp)
20014666:	1800                	addi	s0,sp,48
20014668:	fca42e23          	sw	a0,-36(s0)
2001466c:	fcb42c23          	sw	a1,-40(s0)
20014670:	fcc42a23          	sw	a2,-44(s0)
F:/HiFive-IoT/Workspace/sifive-hifive1-revb-hello/freedom-metal/src/drivers/sifive_fe310-g000_prci.c:17
    unsigned long base = __metal_driver_sifive_fe310_g000_prci_base();
20014674:	3775                	jal	20014620 <__metal_driver_sifive_fe310_g000_prci_base>
20014676:	87aa                	mv	a5,a0
20014678:	fef42623          	sw	a5,-20(s0)
F:/HiFive-IoT/Workspace/sifive-hifive1-revb-hello/freedom-metal/src/drivers/sifive_fe310-g000_prci.c:18
    return __METAL_ACCESS_ONCE((__metal_io_u32 *)(base + offset)) = value;
2001467c:	fd842703          	lw	a4,-40(s0)
20014680:	fec42783          	lw	a5,-20(s0)
20014684:	97ba                	add	a5,a5,a4
20014686:	873e                	mv	a4,a5
20014688:	fd442783          	lw	a5,-44(s0)
2001468c:	c31c                	sw	a5,0(a4)
F:/HiFive-IoT/Workspace/sifive-hifive1-revb-hello/freedom-metal/src/drivers/sifive_fe310-g000_prci.c:19
}
2001468e:	853e                	mv	a0,a5
20014690:	50b2                	lw	ra,44(sp)
20014692:	5422                	lw	s0,40(sp)
20014694:	6145                	addi	sp,sp,48
20014696:	8082                	ret

20014698 <__metal_driver_sifive_gpio0_base>:
__metal_driver_sifive_gpio0_base():
F:\HiFive-IoT\Workspace\sifive-hifive1-revb-hello\bsp\build\debug/./metal/machine.h:429
{
20014698:	1101                	addi	sp,sp,-32
2001469a:	ce22                	sw	s0,28(sp)
2001469c:	1000                	addi	s0,sp,32
2001469e:	fea42623          	sw	a0,-20(s0)
F:\HiFive-IoT\Workspace\sifive-hifive1-revb-hello\bsp\build\debug/./metal/machine.h:430
	if ((uintptr_t)gpio == (uintptr_t)&__metal_dt_gpio_10012000) {
200146a2:	fec42703          	lw	a4,-20(s0)
200146a6:	83c18793          	addi	a5,gp,-1988 # 800007d4 <__metal_dt_gpio_10012000>
200146aa:	00f71563          	bne	a4,a5,200146b4 <__metal_driver_sifive_gpio0_base+0x1c>
F:\HiFive-IoT\Workspace\sifive-hifive1-revb-hello\bsp\build\debug/./metal/machine.h:431
		return METAL_SIFIVE_GPIO0_10012000_BASE_ADDRESS;
200146ae:	100127b7          	lui	a5,0x10012
200146b2:	a011                	j	200146b6 <__metal_driver_sifive_gpio0_base+0x1e>
F:\HiFive-IoT\Workspace\sifive-hifive1-revb-hello\bsp\build\debug/./metal/machine.h:434
		return 0;
200146b4:	4781                	li	a5,0
F:\HiFive-IoT\Workspace\sifive-hifive1-revb-hello\bsp\build\debug/./metal/machine.h:436
}
200146b6:	853e                	mv	a0,a5
200146b8:	4472                	lw	s0,28(sp)
200146ba:	6105                	addi	sp,sp,32
200146bc:	8082                	ret

200146be <__metal_driver_sifive_gpio0_disable_input>:
__metal_driver_sifive_gpio0_disable_input():
F:/HiFive-IoT/Workspace/sifive-hifive1-revb-hello/freedom-metal/src/drivers/sifive_gpio0.c:13
#include <metal/drivers/sifive_gpio0.h>
#include <metal/io.h>
#include <metal/machine.h>

int __metal_driver_sifive_gpio0_disable_input(struct metal_gpio *ggpio, long source)
{
200146be:	7179                	addi	sp,sp,-48
200146c0:	d606                	sw	ra,44(sp)
200146c2:	d422                	sw	s0,40(sp)
200146c4:	1800                	addi	s0,sp,48
200146c6:	fca42e23          	sw	a0,-36(s0)
200146ca:	fcb42c23          	sw	a1,-40(s0)
F:/HiFive-IoT/Workspace/sifive-hifive1-revb-hello/freedom-metal/src/drivers/sifive_gpio0.c:14
    long base = __metal_driver_sifive_gpio0_base(ggpio);
200146ce:	fdc42503          	lw	a0,-36(s0)
200146d2:	37d9                	jal	20014698 <__metal_driver_sifive_gpio0_base>
200146d4:	87aa                	mv	a5,a0
200146d6:	fef42623          	sw	a5,-20(s0)
F:/HiFive-IoT/Workspace/sifive-hifive1-revb-hello/freedom-metal/src/drivers/sifive_gpio0.c:16

    __METAL_ACCESS_ONCE((__metal_io_u32 *)(base + METAL_SIFIVE_GPIO0_INPUT_EN))  &= ~source;
200146da:	fec42783          	lw	a5,-20(s0)
200146de:	0791                	addi	a5,a5,4
200146e0:	439c                	lw	a5,0(a5)
200146e2:	fd842703          	lw	a4,-40(s0)
200146e6:	fff74713          	not	a4,a4
200146ea:	86ba                	mv	a3,a4
200146ec:	fec42703          	lw	a4,-20(s0)
200146f0:	0711                	addi	a4,a4,4
200146f2:	8ff5                	and	a5,a5,a3
200146f4:	c31c                	sw	a5,0(a4)
F:/HiFive-IoT/Workspace/sifive-hifive1-revb-hello/freedom-metal/src/drivers/sifive_gpio0.c:18

    return 0;
200146f6:	4781                	li	a5,0
F:/HiFive-IoT/Workspace/sifive-hifive1-revb-hello/freedom-metal/src/drivers/sifive_gpio0.c:19
}
200146f8:	853e                	mv	a0,a5
200146fa:	50b2                	lw	ra,44(sp)
200146fc:	5422                	lw	s0,40(sp)
200146fe:	6145                	addi	sp,sp,48
20014700:	8082                	ret

20014702 <__metal_driver_sifive_gpio0_output>:
__metal_driver_sifive_gpio0_output():
F:/HiFive-IoT/Workspace/sifive-hifive1-revb-hello/freedom-metal/src/drivers/sifive_gpio0.c:22

long __metal_driver_sifive_gpio0_output(struct metal_gpio *ggpio)
{
20014702:	7179                	addi	sp,sp,-48
20014704:	d606                	sw	ra,44(sp)
20014706:	d422                	sw	s0,40(sp)
20014708:	1800                	addi	s0,sp,48
2001470a:	fca42e23          	sw	a0,-36(s0)
F:/HiFive-IoT/Workspace/sifive-hifive1-revb-hello/freedom-metal/src/drivers/sifive_gpio0.c:23
    long base = __metal_driver_sifive_gpio0_base(ggpio);
2001470e:	fdc42503          	lw	a0,-36(s0)
20014712:	3759                	jal	20014698 <__metal_driver_sifive_gpio0_base>
20014714:	87aa                	mv	a5,a0
20014716:	fef42623          	sw	a5,-20(s0)
F:/HiFive-IoT/Workspace/sifive-hifive1-revb-hello/freedom-metal/src/drivers/sifive_gpio0.c:25

    return __METAL_ACCESS_ONCE((__metal_io_u32 *)(base + METAL_SIFIVE_GPIO0_PORT));
2001471a:	fec42783          	lw	a5,-20(s0)
2001471e:	07b1                	addi	a5,a5,12
20014720:	439c                	lw	a5,0(a5)
F:/HiFive-IoT/Workspace/sifive-hifive1-revb-hello/freedom-metal/src/drivers/sifive_gpio0.c:26
}
20014722:	853e                	mv	a0,a5
20014724:	50b2                	lw	ra,44(sp)
20014726:	5422                	lw	s0,40(sp)
20014728:	6145                	addi	sp,sp,48
2001472a:	8082                	ret

2001472c <__metal_driver_sifive_gpio0_enable_output>:
__metal_driver_sifive_gpio0_enable_output():
F:/HiFive-IoT/Workspace/sifive-hifive1-revb-hello/freedom-metal/src/drivers/sifive_gpio0.c:29

int __metal_driver_sifive_gpio0_enable_output(struct metal_gpio *ggpio, long source)
{
2001472c:	7179                	addi	sp,sp,-48
2001472e:	d606                	sw	ra,44(sp)
20014730:	d422                	sw	s0,40(sp)
20014732:	1800                	addi	s0,sp,48
20014734:	fca42e23          	sw	a0,-36(s0)
20014738:	fcb42c23          	sw	a1,-40(s0)
F:/HiFive-IoT/Workspace/sifive-hifive1-revb-hello/freedom-metal/src/drivers/sifive_gpio0.c:30
    long base = __metal_driver_sifive_gpio0_base(ggpio);
2001473c:	fdc42503          	lw	a0,-36(s0)
20014740:	3fa1                	jal	20014698 <__metal_driver_sifive_gpio0_base>
20014742:	87aa                	mv	a5,a0
20014744:	fef42623          	sw	a5,-20(s0)
F:/HiFive-IoT/Workspace/sifive-hifive1-revb-hello/freedom-metal/src/drivers/sifive_gpio0.c:32

    __METAL_ACCESS_ONCE((__metal_io_u32 *)(base + METAL_SIFIVE_GPIO0_OUTPUT_EN))  |= source;
20014748:	fec42783          	lw	a5,-20(s0)
2001474c:	07a1                	addi	a5,a5,8
2001474e:	4398                	lw	a4,0(a5)
20014750:	fd842783          	lw	a5,-40(s0)
20014754:	fec42683          	lw	a3,-20(s0)
20014758:	06a1                	addi	a3,a3,8
2001475a:	8fd9                	or	a5,a5,a4
2001475c:	c29c                	sw	a5,0(a3)
F:/HiFive-IoT/Workspace/sifive-hifive1-revb-hello/freedom-metal/src/drivers/sifive_gpio0.c:34

    return 0;
2001475e:	4781                	li	a5,0
F:/HiFive-IoT/Workspace/sifive-hifive1-revb-hello/freedom-metal/src/drivers/sifive_gpio0.c:35
}
20014760:	853e                	mv	a0,a5
20014762:	50b2                	lw	ra,44(sp)
20014764:	5422                	lw	s0,40(sp)
20014766:	6145                	addi	sp,sp,48
20014768:	8082                	ret

2001476a <__metal_driver_sifive_gpio0_output_set>:
__metal_driver_sifive_gpio0_output_set():
F:/HiFive-IoT/Workspace/sifive-hifive1-revb-hello/freedom-metal/src/drivers/sifive_gpio0.c:38

int __metal_driver_sifive_gpio0_output_set(struct metal_gpio *ggpio, long value)
{
2001476a:	7179                	addi	sp,sp,-48
2001476c:	d606                	sw	ra,44(sp)
2001476e:	d422                	sw	s0,40(sp)
20014770:	1800                	addi	s0,sp,48
20014772:	fca42e23          	sw	a0,-36(s0)
20014776:	fcb42c23          	sw	a1,-40(s0)
F:/HiFive-IoT/Workspace/sifive-hifive1-revb-hello/freedom-metal/src/drivers/sifive_gpio0.c:39
    long base = __metal_driver_sifive_gpio0_base(ggpio);
2001477a:	fdc42503          	lw	a0,-36(s0)
2001477e:	3f29                	jal	20014698 <__metal_driver_sifive_gpio0_base>
20014780:	87aa                	mv	a5,a0
20014782:	fef42623          	sw	a5,-20(s0)
F:/HiFive-IoT/Workspace/sifive-hifive1-revb-hello/freedom-metal/src/drivers/sifive_gpio0.c:41

    __METAL_ACCESS_ONCE((__metal_io_u32 *)(base + METAL_SIFIVE_GPIO0_PORT)) |= value;
20014786:	fec42783          	lw	a5,-20(s0)
2001478a:	07b1                	addi	a5,a5,12
2001478c:	4398                	lw	a4,0(a5)
2001478e:	fd842783          	lw	a5,-40(s0)
20014792:	fec42683          	lw	a3,-20(s0)
20014796:	06b1                	addi	a3,a3,12
20014798:	8fd9                	or	a5,a5,a4
2001479a:	c29c                	sw	a5,0(a3)
F:/HiFive-IoT/Workspace/sifive-hifive1-revb-hello/freedom-metal/src/drivers/sifive_gpio0.c:43

    return 0;
2001479c:	4781                	li	a5,0
F:/HiFive-IoT/Workspace/sifive-hifive1-revb-hello/freedom-metal/src/drivers/sifive_gpio0.c:44
}
2001479e:	853e                	mv	a0,a5
200147a0:	50b2                	lw	ra,44(sp)
200147a2:	5422                	lw	s0,40(sp)
200147a4:	6145                	addi	sp,sp,48
200147a6:	8082                	ret

200147a8 <__metal_driver_sifive_gpio0_output_clear>:
__metal_driver_sifive_gpio0_output_clear():
F:/HiFive-IoT/Workspace/sifive-hifive1-revb-hello/freedom-metal/src/drivers/sifive_gpio0.c:47

int __metal_driver_sifive_gpio0_output_clear(struct metal_gpio *ggpio, long value)
{
200147a8:	7179                	addi	sp,sp,-48
200147aa:	d606                	sw	ra,44(sp)
200147ac:	d422                	sw	s0,40(sp)
200147ae:	1800                	addi	s0,sp,48
200147b0:	fca42e23          	sw	a0,-36(s0)
200147b4:	fcb42c23          	sw	a1,-40(s0)
F:/HiFive-IoT/Workspace/sifive-hifive1-revb-hello/freedom-metal/src/drivers/sifive_gpio0.c:48
    long base = __metal_driver_sifive_gpio0_base(ggpio);
200147b8:	fdc42503          	lw	a0,-36(s0)
200147bc:	eddff0ef          	jal	ra,20014698 <__metal_driver_sifive_gpio0_base>
200147c0:	87aa                	mv	a5,a0
200147c2:	fef42623          	sw	a5,-20(s0)
F:/HiFive-IoT/Workspace/sifive-hifive1-revb-hello/freedom-metal/src/drivers/sifive_gpio0.c:50

    __METAL_ACCESS_ONCE((__metal_io_u32 *)(base + METAL_SIFIVE_GPIO0_PORT)) &= ~value;
200147c6:	fec42783          	lw	a5,-20(s0)
200147ca:	07b1                	addi	a5,a5,12
200147cc:	439c                	lw	a5,0(a5)
200147ce:	fd842703          	lw	a4,-40(s0)
200147d2:	fff74713          	not	a4,a4
200147d6:	86ba                	mv	a3,a4
200147d8:	fec42703          	lw	a4,-20(s0)
200147dc:	0731                	addi	a4,a4,12
200147de:	8ff5                	and	a5,a5,a3
200147e0:	c31c                	sw	a5,0(a4)
F:/HiFive-IoT/Workspace/sifive-hifive1-revb-hello/freedom-metal/src/drivers/sifive_gpio0.c:52

    return 0;
200147e2:	4781                	li	a5,0
F:/HiFive-IoT/Workspace/sifive-hifive1-revb-hello/freedom-metal/src/drivers/sifive_gpio0.c:53
}
200147e4:	853e                	mv	a0,a5
200147e6:	50b2                	lw	ra,44(sp)
200147e8:	5422                	lw	s0,40(sp)
200147ea:	6145                	addi	sp,sp,48
200147ec:	8082                	ret

200147ee <__metal_driver_sifive_gpio0_output_toggle>:
__metal_driver_sifive_gpio0_output_toggle():
F:/HiFive-IoT/Workspace/sifive-hifive1-revb-hello/freedom-metal/src/drivers/sifive_gpio0.c:56

int __metal_driver_sifive_gpio0_output_toggle(struct metal_gpio *ggpio, long value)
{
200147ee:	7179                	addi	sp,sp,-48
200147f0:	d606                	sw	ra,44(sp)
200147f2:	d422                	sw	s0,40(sp)
200147f4:	1800                	addi	s0,sp,48
200147f6:	fca42e23          	sw	a0,-36(s0)
200147fa:	fcb42c23          	sw	a1,-40(s0)
F:/HiFive-IoT/Workspace/sifive-hifive1-revb-hello/freedom-metal/src/drivers/sifive_gpio0.c:57
    long base = __metal_driver_sifive_gpio0_base(ggpio);
200147fe:	fdc42503          	lw	a0,-36(s0)
20014802:	e97ff0ef          	jal	ra,20014698 <__metal_driver_sifive_gpio0_base>
20014806:	87aa                	mv	a5,a0
20014808:	fef42623          	sw	a5,-20(s0)
F:/HiFive-IoT/Workspace/sifive-hifive1-revb-hello/freedom-metal/src/drivers/sifive_gpio0.c:60

    __METAL_ACCESS_ONCE((__metal_io_u32 *)(base + METAL_SIFIVE_GPIO0_PORT)) =
	__METAL_ACCESS_ONCE((__metal_io_u32 *)(base + METAL_SIFIVE_GPIO0_PORT)) ^ value;
2001480c:	fec42783          	lw	a5,-20(s0)
20014810:	07b1                	addi	a5,a5,12
20014812:	4398                	lw	a4,0(a5)
20014814:	fd842783          	lw	a5,-40(s0)
F:/HiFive-IoT/Workspace/sifive-hifive1-revb-hello/freedom-metal/src/drivers/sifive_gpio0.c:59
    __METAL_ACCESS_ONCE((__metal_io_u32 *)(base + METAL_SIFIVE_GPIO0_PORT)) =
20014818:	fec42683          	lw	a3,-20(s0)
2001481c:	06b1                	addi	a3,a3,12
F:/HiFive-IoT/Workspace/sifive-hifive1-revb-hello/freedom-metal/src/drivers/sifive_gpio0.c:60
	__METAL_ACCESS_ONCE((__metal_io_u32 *)(base + METAL_SIFIVE_GPIO0_PORT)) ^ value;
2001481e:	8fb9                	xor	a5,a5,a4
F:/HiFive-IoT/Workspace/sifive-hifive1-revb-hello/freedom-metal/src/drivers/sifive_gpio0.c:59
    __METAL_ACCESS_ONCE((__metal_io_u32 *)(base + METAL_SIFIVE_GPIO0_PORT)) =
20014820:	c29c                	sw	a5,0(a3)
F:/HiFive-IoT/Workspace/sifive-hifive1-revb-hello/freedom-metal/src/drivers/sifive_gpio0.c:62

    return 0;
20014822:	4781                	li	a5,0
F:/HiFive-IoT/Workspace/sifive-hifive1-revb-hello/freedom-metal/src/drivers/sifive_gpio0.c:63
}
20014824:	853e                	mv	a0,a5
20014826:	50b2                	lw	ra,44(sp)
20014828:	5422                	lw	s0,40(sp)
2001482a:	6145                	addi	sp,sp,48
2001482c:	8082                	ret

2001482e <__metal_driver_sifive_gpio0_enable_io>:
__metal_driver_sifive_gpio0_enable_io():
F:/HiFive-IoT/Workspace/sifive-hifive1-revb-hello/freedom-metal/src/drivers/sifive_gpio0.c:66

int __metal_driver_sifive_gpio0_enable_io(struct metal_gpio *ggpio, long source, long dest)
{
2001482e:	7179                	addi	sp,sp,-48
20014830:	d606                	sw	ra,44(sp)
20014832:	d422                	sw	s0,40(sp)
20014834:	1800                	addi	s0,sp,48
20014836:	fca42e23          	sw	a0,-36(s0)
2001483a:	fcb42c23          	sw	a1,-40(s0)
2001483e:	fcc42a23          	sw	a2,-44(s0)
F:/HiFive-IoT/Workspace/sifive-hifive1-revb-hello/freedom-metal/src/drivers/sifive_gpio0.c:67
    long base = __metal_driver_sifive_gpio0_base(ggpio);
20014842:	fdc42503          	lw	a0,-36(s0)
20014846:	e53ff0ef          	jal	ra,20014698 <__metal_driver_sifive_gpio0_base>
2001484a:	87aa                	mv	a5,a0
2001484c:	fef42623          	sw	a5,-20(s0)
F:/HiFive-IoT/Workspace/sifive-hifive1-revb-hello/freedom-metal/src/drivers/sifive_gpio0.c:69

    __METAL_ACCESS_ONCE((__metal_io_u32 *)(base + METAL_SIFIVE_GPIO0_IOF_SEL)) &= ~source;
20014850:	fec42783          	lw	a5,-20(s0)
20014854:	03c78793          	addi	a5,a5,60 # 1001203c <__heap_size+0x10011c3c>
20014858:	439c                	lw	a5,0(a5)
2001485a:	fd842703          	lw	a4,-40(s0)
2001485e:	fff74713          	not	a4,a4
20014862:	86ba                	mv	a3,a4
20014864:	fec42703          	lw	a4,-20(s0)
20014868:	03c70713          	addi	a4,a4,60
2001486c:	8ff5                	and	a5,a5,a3
2001486e:	c31c                	sw	a5,0(a4)
F:/HiFive-IoT/Workspace/sifive-hifive1-revb-hello/freedom-metal/src/drivers/sifive_gpio0.c:70
    __METAL_ACCESS_ONCE((__metal_io_u32 *)(base + METAL_SIFIVE_GPIO0_IOF_EN))  |= dest;
20014870:	fec42783          	lw	a5,-20(s0)
20014874:	03878793          	addi	a5,a5,56
20014878:	4398                	lw	a4,0(a5)
2001487a:	fd442783          	lw	a5,-44(s0)
2001487e:	fec42683          	lw	a3,-20(s0)
20014882:	03868693          	addi	a3,a3,56
20014886:	8fd9                	or	a5,a5,a4
20014888:	c29c                	sw	a5,0(a3)
F:/HiFive-IoT/Workspace/sifive-hifive1-revb-hello/freedom-metal/src/drivers/sifive_gpio0.c:72

    return 0;
2001488a:	4781                	li	a5,0
F:/HiFive-IoT/Workspace/sifive-hifive1-revb-hello/freedom-metal/src/drivers/sifive_gpio0.c:73
}
2001488c:	853e                	mv	a0,a5
2001488e:	50b2                	lw	ra,44(sp)
20014890:	5422                	lw	s0,40(sp)
20014892:	6145                	addi	sp,sp,48
20014894:	8082                	ret

20014896 <__metal_driver_sifive_spi0_control_base>:
__metal_driver_sifive_spi0_control_base():
F:\HiFive-IoT\Workspace\sifive-hifive1-revb-hello\bsp\build\debug/./metal/machine.h:584
{
20014896:	1101                	addi	sp,sp,-32
20014898:	ce22                	sw	s0,28(sp)
2001489a:	1000                	addi	s0,sp,32
2001489c:	fea42623          	sw	a0,-20(s0)
F:\HiFive-IoT\Workspace\sifive-hifive1-revb-hello\bsp\build\debug/./metal/machine.h:585
	if ((uintptr_t)spi == (uintptr_t)&__metal_dt_spi_10014000) {
200148a0:	fec42703          	lw	a4,-20(s0)
200148a4:	84018793          	addi	a5,gp,-1984 # 800007d8 <__metal_dt_spi_10014000>
200148a8:	00f71563          	bne	a4,a5,200148b2 <__metal_driver_sifive_spi0_control_base+0x1c>
F:\HiFive-IoT\Workspace\sifive-hifive1-revb-hello\bsp\build\debug/./metal/machine.h:586
		return METAL_SIFIVE_SPI0_10014000_BASE_ADDRESS;
200148ac:	100147b7          	lui	a5,0x10014
200148b0:	a011                	j	200148b4 <__metal_driver_sifive_spi0_control_base+0x1e>
F:\HiFive-IoT\Workspace\sifive-hifive1-revb-hello\bsp\build\debug/./metal/machine.h:589
		return 0;
200148b2:	4781                	li	a5,0
F:\HiFive-IoT\Workspace\sifive-hifive1-revb-hello\bsp\build\debug/./metal/machine.h:591
}
200148b4:	853e                	mv	a0,a5
200148b6:	4472                	lw	s0,28(sp)
200148b8:	6105                	addi	sp,sp,32
200148ba:	8082                	ret

200148bc <__metal_driver_sifive_spi0_clock>:
__metal_driver_sifive_spi0_clock():
F:\HiFive-IoT\Workspace\sifive-hifive1-revb-hello\bsp\build\debug/./metal/machine.h:604
{
200148bc:	1101                	addi	sp,sp,-32
200148be:	ce22                	sw	s0,28(sp)
200148c0:	1000                	addi	s0,sp,32
200148c2:	fea42623          	sw	a0,-20(s0)
F:\HiFive-IoT\Workspace\sifive-hifive1-revb-hello\bsp\build\debug/./metal/machine.h:605
		return (struct metal_clock *)&__metal_dt_clock_4.clock;
200148c6:	800007b7          	lui	a5,0x80000
200148ca:	78078793          	addi	a5,a5,1920 # 80000780 <metal_segment_heap_target_end+0xfffff6b4>
F:\HiFive-IoT\Workspace\sifive-hifive1-revb-hello\bsp\build\debug/./metal/machine.h:606
}
200148ce:	853e                	mv	a0,a5
200148d0:	4472                	lw	s0,28(sp)
200148d2:	6105                	addi	sp,sp,32
200148d4:	8082                	ret

200148d6 <__metal_driver_sifive_spi0_pinmux>:
__metal_driver_sifive_spi0_pinmux():
F:\HiFive-IoT\Workspace\sifive-hifive1-revb-hello\bsp\build\debug/./metal/machine.h:609
{
200148d6:	1101                	addi	sp,sp,-32
200148d8:	ce22                	sw	s0,28(sp)
200148da:	1000                	addi	s0,sp,32
200148dc:	fea42623          	sw	a0,-20(s0)
F:\HiFive-IoT\Workspace\sifive-hifive1-revb-hello\bsp\build\debug/./metal/machine.h:610
		return (struct __metal_driver_sifive_gpio0 *)&__metal_dt_gpio_10012000;
200148e0:	83c18793          	addi	a5,gp,-1988 # 800007d4 <__metal_dt_gpio_10012000>
F:\HiFive-IoT\Workspace\sifive-hifive1-revb-hello\bsp\build\debug/./metal/machine.h:611
}
200148e4:	853e                	mv	a0,a5
200148e6:	4472                	lw	s0,28(sp)
200148e8:	6105                	addi	sp,sp,32
200148ea:	8082                	ret

200148ec <__metal_driver_sifive_spi0_pinmux_output_selector>:
__metal_driver_sifive_spi0_pinmux_output_selector():
F:\HiFive-IoT\Workspace\sifive-hifive1-revb-hello\bsp\build\debug/./metal/machine.h:614
{
200148ec:	1101                	addi	sp,sp,-32
200148ee:	ce22                	sw	s0,28(sp)
200148f0:	1000                	addi	s0,sp,32
200148f2:	fea42623          	sw	a0,-20(s0)
F:\HiFive-IoT\Workspace\sifive-hifive1-revb-hello\bsp\build\debug/./metal/machine.h:615
		return 60;
200148f6:	03c00793          	li	a5,60
F:\HiFive-IoT\Workspace\sifive-hifive1-revb-hello\bsp\build\debug/./metal/machine.h:616
}
200148fa:	853e                	mv	a0,a5
200148fc:	4472                	lw	s0,28(sp)
200148fe:	6105                	addi	sp,sp,32
20014900:	8082                	ret

20014902 <__metal_driver_sifive_spi0_pinmux_source_selector>:
__metal_driver_sifive_spi0_pinmux_source_selector():
F:\HiFive-IoT\Workspace\sifive-hifive1-revb-hello\bsp\build\debug/./metal/machine.h:619
{
20014902:	1101                	addi	sp,sp,-32
20014904:	ce22                	sw	s0,28(sp)
20014906:	1000                	addi	s0,sp,32
20014908:	fea42623          	sw	a0,-20(s0)
F:\HiFive-IoT\Workspace\sifive-hifive1-revb-hello\bsp\build\debug/./metal/machine.h:620
		return 60;
2001490c:	03c00793          	li	a5,60
F:\HiFive-IoT\Workspace\sifive-hifive1-revb-hello\bsp\build\debug/./metal/machine.h:621
}
20014910:	853e                	mv	a0,a5
20014912:	4472                	lw	s0,28(sp)
20014914:	6105                	addi	sp,sp,32
20014916:	8082                	ret

20014918 <configure_spi>:
configure_spi():
F:/HiFive-IoT/Workspace/sifive-hifive1-revb-hello/freedom-metal/src/drivers/sifive_spi0.c:53
#define METAL_SPI_REGW(offset)  (__METAL_ACCESS_ONCE((__metal_io_u32 *)METAL_SPI_REG(offset)))

#define METAL_SPI_RXDATA_TIMEOUT      1

static int configure_spi(struct __metal_driver_sifive_spi0 *spi, struct metal_spi_config *config)
{
20014918:	7179                	addi	sp,sp,-48
2001491a:	d606                	sw	ra,44(sp)
2001491c:	d422                	sw	s0,40(sp)
2001491e:	1800                	addi	s0,sp,48
20014920:	fca42e23          	sw	a0,-36(s0)
20014924:	fcb42c23          	sw	a1,-40(s0)
F:/HiFive-IoT/Workspace/sifive-hifive1-revb-hello/freedom-metal/src/drivers/sifive_spi0.c:54
    long control_base = __metal_driver_sifive_spi0_control_base((struct metal_spi *)spi);
20014928:	fdc42503          	lw	a0,-36(s0)
2001492c:	37ad                	jal	20014896 <__metal_driver_sifive_spi0_control_base>
2001492e:	87aa                	mv	a5,a0
20014930:	fef42623          	sw	a5,-20(s0)
F:/HiFive-IoT/Workspace/sifive-hifive1-revb-hello/freedom-metal/src/drivers/sifive_spi0.c:56
    /* Set protocol */
    METAL_SPI_REGW(METAL_SIFIVE_SPI0_FMT) &= ~(METAL_SPI_PROTO_MASK);
20014934:	fec42783          	lw	a5,-20(s0)
20014938:	04078793          	addi	a5,a5,64
2001493c:	439c                	lw	a5,0(a5)
2001493e:	fec42703          	lw	a4,-20(s0)
20014942:	04070713          	addi	a4,a4,64
20014946:	9bf1                	andi	a5,a5,-4
20014948:	c31c                	sw	a5,0(a4)
F:/HiFive-IoT/Workspace/sifive-hifive1-revb-hello/freedom-metal/src/drivers/sifive_spi0.c:57
    switch(config->protocol) {
2001494a:	fd842783          	lw	a5,-40(s0)
2001494e:	439c                	lw	a5,0(a5)
20014950:	4705                	li	a4,1
20014952:	02e78463          	beq	a5,a4,2001497a <configure_spi+0x62>
20014956:	c789                	beqz	a5,20014960 <configure_spi+0x48>
20014958:	4709                	li	a4,2
2001495a:	02e78d63          	beq	a5,a4,20014994 <configure_spi+0x7c>
2001495e:	a881                	j	200149ae <configure_spi+0x96>
F:/HiFive-IoT/Workspace/sifive-hifive1-revb-hello/freedom-metal/src/drivers/sifive_spi0.c:59
        case METAL_SPI_SINGLE:
            METAL_SPI_REGW(METAL_SIFIVE_SPI0_FMT) |= METAL_SPI_PROTO_SINGLE;
20014960:	fec42783          	lw	a5,-20(s0)
20014964:	04078793          	addi	a5,a5,64
20014968:	86be                	mv	a3,a5
2001496a:	fec42783          	lw	a5,-20(s0)
2001496e:	04078793          	addi	a5,a5,64
20014972:	873e                	mv	a4,a5
20014974:	429c                	lw	a5,0(a3)
20014976:	c31c                	sw	a5,0(a4)
F:/HiFive-IoT/Workspace/sifive-hifive1-revb-hello/freedom-metal/src/drivers/sifive_spi0.c:60
            break;
20014978:	a82d                	j	200149b2 <configure_spi+0x9a>
F:/HiFive-IoT/Workspace/sifive-hifive1-revb-hello/freedom-metal/src/drivers/sifive_spi0.c:62
        case METAL_SPI_DUAL:
            METAL_SPI_REGW(METAL_SIFIVE_SPI0_FMT) |= METAL_SPI_PROTO_DUAL;
2001497a:	fec42783          	lw	a5,-20(s0)
2001497e:	04078793          	addi	a5,a5,64
20014982:	439c                	lw	a5,0(a5)
20014984:	fec42703          	lw	a4,-20(s0)
20014988:	04070713          	addi	a4,a4,64
2001498c:	0017e793          	ori	a5,a5,1
20014990:	c31c                	sw	a5,0(a4)
F:/HiFive-IoT/Workspace/sifive-hifive1-revb-hello/freedom-metal/src/drivers/sifive_spi0.c:63
            break;
20014992:	a005                	j	200149b2 <configure_spi+0x9a>
F:/HiFive-IoT/Workspace/sifive-hifive1-revb-hello/freedom-metal/src/drivers/sifive_spi0.c:65
        case METAL_SPI_QUAD:
            METAL_SPI_REGW(METAL_SIFIVE_SPI0_FMT) |= METAL_SPI_PROTO_QUAD;
20014994:	fec42783          	lw	a5,-20(s0)
20014998:	04078793          	addi	a5,a5,64
2001499c:	439c                	lw	a5,0(a5)
2001499e:	fec42703          	lw	a4,-20(s0)
200149a2:	04070713          	addi	a4,a4,64
200149a6:	0027e793          	ori	a5,a5,2
200149aa:	c31c                	sw	a5,0(a4)
F:/HiFive-IoT/Workspace/sifive-hifive1-revb-hello/freedom-metal/src/drivers/sifive_spi0.c:66
            break;
200149ac:	a019                	j	200149b2 <configure_spi+0x9a>
F:/HiFive-IoT/Workspace/sifive-hifive1-revb-hello/freedom-metal/src/drivers/sifive_spi0.c:69
        default:
            /* Unsupported value */
            return -1;
200149ae:	57fd                	li	a5,-1
200149b0:	a285                	j	20014b10 <configure_spi+0x1f8>
F:/HiFive-IoT/Workspace/sifive-hifive1-revb-hello/freedom-metal/src/drivers/sifive_spi0.c:73
    }

    /* Set Polarity */
    if(config->polarity) {
200149b2:	fd842783          	lw	a5,-40(s0)
200149b6:	0047c783          	lbu	a5,4(a5)
200149ba:	8b85                	andi	a5,a5,1
200149bc:	0ff7f793          	andi	a5,a5,255
200149c0:	cf81                	beqz	a5,200149d8 <configure_spi+0xc0>
F:/HiFive-IoT/Workspace/sifive-hifive1-revb-hello/freedom-metal/src/drivers/sifive_spi0.c:74
        METAL_SPI_REGW(METAL_SIFIVE_SPI0_SCKMODE) |= (1 << METAL_SPI_SCKMODE_PHA_SHIFT);
200149c2:	fec42783          	lw	a5,-20(s0)
200149c6:	0791                	addi	a5,a5,4
200149c8:	439c                	lw	a5,0(a5)
200149ca:	fec42703          	lw	a4,-20(s0)
200149ce:	0711                	addi	a4,a4,4
200149d0:	0017e793          	ori	a5,a5,1
200149d4:	c31c                	sw	a5,0(a4)
200149d6:	a811                	j	200149ea <configure_spi+0xd2>
F:/HiFive-IoT/Workspace/sifive-hifive1-revb-hello/freedom-metal/src/drivers/sifive_spi0.c:76
    } else {
        METAL_SPI_REGW(METAL_SIFIVE_SPI0_SCKMODE) &= ~(1 << METAL_SPI_SCKMODE_PHA_SHIFT);
200149d8:	fec42783          	lw	a5,-20(s0)
200149dc:	0791                	addi	a5,a5,4
200149de:	439c                	lw	a5,0(a5)
200149e0:	fec42703          	lw	a4,-20(s0)
200149e4:	0711                	addi	a4,a4,4
200149e6:	9bf9                	andi	a5,a5,-2
200149e8:	c31c                	sw	a5,0(a4)
F:/HiFive-IoT/Workspace/sifive-hifive1-revb-hello/freedom-metal/src/drivers/sifive_spi0.c:80
    }

    /* Set Phase */
    if(config->phase) {
200149ea:	fd842783          	lw	a5,-40(s0)
200149ee:	0047c783          	lbu	a5,4(a5)
200149f2:	8b89                	andi	a5,a5,2
200149f4:	0ff7f793          	andi	a5,a5,255
200149f8:	cf81                	beqz	a5,20014a10 <configure_spi+0xf8>
F:/HiFive-IoT/Workspace/sifive-hifive1-revb-hello/freedom-metal/src/drivers/sifive_spi0.c:81
        METAL_SPI_REGW(METAL_SIFIVE_SPI0_SCKMODE) |= (1 << METAL_SPI_SCKMODE_POL_SHIFT);
200149fa:	fec42783          	lw	a5,-20(s0)
200149fe:	0791                	addi	a5,a5,4
20014a00:	439c                	lw	a5,0(a5)
20014a02:	fec42703          	lw	a4,-20(s0)
20014a06:	0711                	addi	a4,a4,4
20014a08:	0027e793          	ori	a5,a5,2
20014a0c:	c31c                	sw	a5,0(a4)
20014a0e:	a811                	j	20014a22 <configure_spi+0x10a>
F:/HiFive-IoT/Workspace/sifive-hifive1-revb-hello/freedom-metal/src/drivers/sifive_spi0.c:83
    } else {
        METAL_SPI_REGW(METAL_SIFIVE_SPI0_SCKMODE) &= ~(1 << METAL_SPI_SCKMODE_POL_SHIFT);
20014a10:	fec42783          	lw	a5,-20(s0)
20014a14:	0791                	addi	a5,a5,4
20014a16:	439c                	lw	a5,0(a5)
20014a18:	fec42703          	lw	a4,-20(s0)
20014a1c:	0711                	addi	a4,a4,4
20014a1e:	9bf5                	andi	a5,a5,-3
20014a20:	c31c                	sw	a5,0(a4)
F:/HiFive-IoT/Workspace/sifive-hifive1-revb-hello/freedom-metal/src/drivers/sifive_spi0.c:87
    }

    /* Set Endianness */
    if(config->little_endian) {
20014a22:	fd842783          	lw	a5,-40(s0)
20014a26:	0047c783          	lbu	a5,4(a5)
20014a2a:	8b91                	andi	a5,a5,4
20014a2c:	0ff7f793          	andi	a5,a5,255
20014a30:	cf91                	beqz	a5,20014a4c <configure_spi+0x134>
F:/HiFive-IoT/Workspace/sifive-hifive1-revb-hello/freedom-metal/src/drivers/sifive_spi0.c:88
        METAL_SPI_REGW(METAL_SIFIVE_SPI0_FMT) |= METAL_SPI_ENDIAN_LSB;
20014a32:	fec42783          	lw	a5,-20(s0)
20014a36:	04078793          	addi	a5,a5,64
20014a3a:	439c                	lw	a5,0(a5)
20014a3c:	fec42703          	lw	a4,-20(s0)
20014a40:	04070713          	addi	a4,a4,64
20014a44:	0047e793          	ori	a5,a5,4
20014a48:	c31c                	sw	a5,0(a4)
20014a4a:	a821                	j	20014a62 <configure_spi+0x14a>
F:/HiFive-IoT/Workspace/sifive-hifive1-revb-hello/freedom-metal/src/drivers/sifive_spi0.c:90
    } else {
        METAL_SPI_REGW(METAL_SIFIVE_SPI0_FMT) &= ~(METAL_SPI_ENDIAN_LSB);
20014a4c:	fec42783          	lw	a5,-20(s0)
20014a50:	04078793          	addi	a5,a5,64
20014a54:	439c                	lw	a5,0(a5)
20014a56:	fec42703          	lw	a4,-20(s0)
20014a5a:	04070713          	addi	a4,a4,64
20014a5e:	9bed                	andi	a5,a5,-5
20014a60:	c31c                	sw	a5,0(a4)
F:/HiFive-IoT/Workspace/sifive-hifive1-revb-hello/freedom-metal/src/drivers/sifive_spi0.c:94
    }

    /* Always populate receive FIFO */
    METAL_SPI_REGW(METAL_SIFIVE_SPI0_FMT) &= ~(METAL_SPI_DISABLE_RX);
20014a62:	fec42783          	lw	a5,-20(s0)
20014a66:	04078793          	addi	a5,a5,64
20014a6a:	439c                	lw	a5,0(a5)
20014a6c:	fec42703          	lw	a4,-20(s0)
20014a70:	04070713          	addi	a4,a4,64
20014a74:	9bdd                	andi	a5,a5,-9
20014a76:	c31c                	sw	a5,0(a4)
F:/HiFive-IoT/Workspace/sifive-hifive1-revb-hello/freedom-metal/src/drivers/sifive_spi0.c:97

    /* Set CS Active */
    if(config->cs_active_high) {
20014a78:	fd842783          	lw	a5,-40(s0)
20014a7c:	0047c783          	lbu	a5,4(a5)
20014a80:	8ba1                	andi	a5,a5,8
20014a82:	0ff7f793          	andi	a5,a5,255
20014a86:	c799                	beqz	a5,20014a94 <configure_spi+0x17c>
F:/HiFive-IoT/Workspace/sifive-hifive1-revb-hello/freedom-metal/src/drivers/sifive_spi0.c:98
        METAL_SPI_REGW(METAL_SIFIVE_SPI0_CSDEF) = 0;
20014a88:	fec42783          	lw	a5,-20(s0)
20014a8c:	07d1                	addi	a5,a5,20
20014a8e:	0007a023          	sw	zero,0(a5)
20014a92:	a039                	j	20014aa0 <configure_spi+0x188>
F:/HiFive-IoT/Workspace/sifive-hifive1-revb-hello/freedom-metal/src/drivers/sifive_spi0.c:100
    } else {
        METAL_SPI_REGW(METAL_SIFIVE_SPI0_CSDEF) = 1;
20014a94:	fec42783          	lw	a5,-20(s0)
20014a98:	07d1                	addi	a5,a5,20
20014a9a:	873e                	mv	a4,a5
20014a9c:	4785                	li	a5,1
20014a9e:	c31c                	sw	a5,0(a4)
F:/HiFive-IoT/Workspace/sifive-hifive1-revb-hello/freedom-metal/src/drivers/sifive_spi0.c:104
    }

    /* Set frame length */
    if((METAL_SPI_REGW(METAL_SIFIVE_SPI0_FMT) & METAL_SPI_FRAME_LEN_MASK) != (8 << METAL_SPI_FRAME_LEN_SHIFT)) {
20014aa0:	fec42783          	lw	a5,-20(s0)
20014aa4:	04078793          	addi	a5,a5,64
20014aa8:	4398                	lw	a4,0(a5)
20014aaa:	000f07b7          	lui	a5,0xf0
20014aae:	8f7d                	and	a4,a4,a5
20014ab0:	000807b7          	lui	a5,0x80
20014ab4:	02f70f63          	beq	a4,a5,20014af2 <configure_spi+0x1da>
F:/HiFive-IoT/Workspace/sifive-hifive1-revb-hello/freedom-metal/src/drivers/sifive_spi0.c:105
        METAL_SPI_REGW(METAL_SIFIVE_SPI0_FMT) &= ~(METAL_SPI_FRAME_LEN_MASK);
20014ab8:	fec42783          	lw	a5,-20(s0)
20014abc:	04078793          	addi	a5,a5,64 # 80040 <__heap_size+0x7fc40>
20014ac0:	4398                	lw	a4,0(a5)
20014ac2:	fec42783          	lw	a5,-20(s0)
20014ac6:	04078793          	addi	a5,a5,64
20014aca:	86be                	mv	a3,a5
20014acc:	fff107b7          	lui	a5,0xfff10
20014ad0:	17fd                	addi	a5,a5,-1
20014ad2:	8ff9                	and	a5,a5,a4
20014ad4:	c29c                	sw	a5,0(a3)
F:/HiFive-IoT/Workspace/sifive-hifive1-revb-hello/freedom-metal/src/drivers/sifive_spi0.c:106
        METAL_SPI_REGW(METAL_SIFIVE_SPI0_FMT) |= (8 << METAL_SPI_FRAME_LEN_SHIFT);
20014ad6:	fec42783          	lw	a5,-20(s0)
20014ada:	04078793          	addi	a5,a5,64 # fff10040 <metal_segment_heap_target_end+0x7ff0ef74>
20014ade:	4398                	lw	a4,0(a5)
20014ae0:	fec42783          	lw	a5,-20(s0)
20014ae4:	04078793          	addi	a5,a5,64
20014ae8:	86be                	mv	a3,a5
20014aea:	000807b7          	lui	a5,0x80
20014aee:	8fd9                	or	a5,a5,a4
20014af0:	c29c                	sw	a5,0(a3)
F:/HiFive-IoT/Workspace/sifive-hifive1-revb-hello/freedom-metal/src/drivers/sifive_spi0.c:110
    }

    /* Set CS line */
    METAL_SPI_REGW(METAL_SIFIVE_SPI0_CSID) = config->csid;
20014af2:	fec42783          	lw	a5,-20(s0)
20014af6:	07c1                	addi	a5,a5,16
20014af8:	873e                	mv	a4,a5
20014afa:	fd842783          	lw	a5,-40(s0)
20014afe:	479c                	lw	a5,8(a5)
20014b00:	c31c                	sw	a5,0(a4)
F:/HiFive-IoT/Workspace/sifive-hifive1-revb-hello/freedom-metal/src/drivers/sifive_spi0.c:119
     * to the chip at all because it assumes the chip is in memory-mapped mode. 
     * I have to compile the code with this line commented and launch gdb,
     * reset cores, reset $pc, set *((int *) 0x20004060) = 0, (set the flash
     * interface control register to programmable I/O mode) and then continue
     * Alternative, comment out the "flash" line in openocd.cfg */
    METAL_SPI_REGW(METAL_SIFIVE_SPI0_FCTRL) = METAL_SPI_CONTROL_IO;
20014b02:	fec42783          	lw	a5,-20(s0)
20014b06:	06078793          	addi	a5,a5,96 # 80060 <__heap_size+0x7fc60>
20014b0a:	0007a023          	sw	zero,0(a5)
F:/HiFive-IoT/Workspace/sifive-hifive1-revb-hello/freedom-metal/src/drivers/sifive_spi0.c:121

    return 0;
20014b0e:	4781                	li	a5,0
F:/HiFive-IoT/Workspace/sifive-hifive1-revb-hello/freedom-metal/src/drivers/sifive_spi0.c:122
}
20014b10:	853e                	mv	a0,a5
20014b12:	50b2                	lw	ra,44(sp)
20014b14:	5422                	lw	s0,40(sp)
20014b16:	6145                	addi	sp,sp,48
20014b18:	8082                	ret

20014b1a <__metal_driver_sifive_spi0_transfer>:
__metal_driver_sifive_spi0_transfer():
F:/HiFive-IoT/Workspace/sifive-hifive1-revb-hello/freedom-metal/src/drivers/sifive_spi0.c:129
int __metal_driver_sifive_spi0_transfer(struct metal_spi *gspi,
                                      struct metal_spi_config *config,
                                      size_t len,
                                      char *tx_buf,
                                      char *rx_buf)
{
20014b1a:	715d                	addi	sp,sp,-80
20014b1c:	c686                	sw	ra,76(sp)
20014b1e:	c4a2                	sw	s0,72(sp)
20014b20:	0880                	addi	s0,sp,80
20014b22:	fca42623          	sw	a0,-52(s0)
20014b26:	fcb42423          	sw	a1,-56(s0)
20014b2a:	fcc42223          	sw	a2,-60(s0)
20014b2e:	fcd42023          	sw	a3,-64(s0)
20014b32:	fae42e23          	sw	a4,-68(s0)
F:/HiFive-IoT/Workspace/sifive-hifive1-revb-hello/freedom-metal/src/drivers/sifive_spi0.c:130
    struct __metal_driver_sifive_spi0 *spi = (void *)gspi;
20014b36:	fcc42783          	lw	a5,-52(s0)
20014b3a:	fef42423          	sw	a5,-24(s0)
F:/HiFive-IoT/Workspace/sifive-hifive1-revb-hello/freedom-metal/src/drivers/sifive_spi0.c:131
    long control_base = __metal_driver_sifive_spi0_control_base(gspi);
20014b3e:	fcc42503          	lw	a0,-52(s0)
20014b42:	d55ff0ef          	jal	ra,20014896 <__metal_driver_sifive_spi0_control_base>
20014b46:	87aa                	mv	a5,a0
20014b48:	fef42223          	sw	a5,-28(s0)
F:/HiFive-IoT/Workspace/sifive-hifive1-revb-hello/freedom-metal/src/drivers/sifive_spi0.c:132
    int rc = 0;
20014b4c:	fe042023          	sw	zero,-32(s0)
F:/HiFive-IoT/Workspace/sifive-hifive1-revb-hello/freedom-metal/src/drivers/sifive_spi0.c:134

    rc = configure_spi(spi, config);
20014b50:	fc842583          	lw	a1,-56(s0)
20014b54:	fe842503          	lw	a0,-24(s0)
20014b58:	dc1ff0ef          	jal	ra,20014918 <configure_spi>
20014b5c:	fea42023          	sw	a0,-32(s0)
F:/HiFive-IoT/Workspace/sifive-hifive1-revb-hello/freedom-metal/src/drivers/sifive_spi0.c:135
    if(rc != 0) {
20014b60:	fe042783          	lw	a5,-32(s0)
20014b64:	c781                	beqz	a5,20014b6c <__metal_driver_sifive_spi0_transfer+0x52>
F:/HiFive-IoT/Workspace/sifive-hifive1-revb-hello/freedom-metal/src/drivers/sifive_spi0.c:136
        return rc;
20014b66:	fe042783          	lw	a5,-32(s0)
20014b6a:	aa0d                	j	20014c9c <__metal_driver_sifive_spi0_transfer+0x182>
F:/HiFive-IoT/Workspace/sifive-hifive1-revb-hello/freedom-metal/src/drivers/sifive_spi0.c:140
    }

    /* Hold the chip select line for all len transferred */
    METAL_SPI_REGW(METAL_SIFIVE_SPI0_CSMODE) &= ~(METAL_SPI_CSMODE_MASK);
20014b6c:	fe442783          	lw	a5,-28(s0)
20014b70:	07e1                	addi	a5,a5,24
20014b72:	439c                	lw	a5,0(a5)
20014b74:	fe442703          	lw	a4,-28(s0)
20014b78:	0761                	addi	a4,a4,24
20014b7a:	9bf1                	andi	a5,a5,-4
20014b7c:	c31c                	sw	a5,0(a4)
F:/HiFive-IoT/Workspace/sifive-hifive1-revb-hello/freedom-metal/src/drivers/sifive_spi0.c:141
    METAL_SPI_REGW(METAL_SIFIVE_SPI0_CSMODE) |= METAL_SPI_CSMODE_HOLD;
20014b7e:	fe442783          	lw	a5,-28(s0)
20014b82:	07e1                	addi	a5,a5,24
20014b84:	439c                	lw	a5,0(a5)
20014b86:	fe442703          	lw	a4,-28(s0)
20014b8a:	0761                	addi	a4,a4,24
20014b8c:	0027e793          	ori	a5,a5,2
20014b90:	c31c                	sw	a5,0(a4)
F:/HiFive-IoT/Workspace/sifive-hifive1-revb-hello/freedom-metal/src/drivers/sifive_spi0.c:148
    unsigned long rxdata;
    
    /* Declare time_t variables to break out of infinite while loop */
    time_t endwait;

    for(int i = 0; i < len; i++) {
20014b92:	fe042623          	sw	zero,-20(s0)
20014b96:	a0dd                	j	20014c7c <__metal_driver_sifive_spi0_transfer+0x162>
F:/HiFive-IoT/Workspace/sifive-hifive1-revb-hello/freedom-metal/src/drivers/sifive_spi0.c:152
        /* Master send bytes to the slave */

        /* Wait for TXFIFO to not be full */
        while (METAL_SPI_REGW(METAL_SIFIVE_SPI0_TXDATA) & METAL_SPI_TXDATA_FULL);
20014b98:	0001                	nop
F:/HiFive-IoT/Workspace/sifive-hifive1-revb-hello/freedom-metal/src/drivers/sifive_spi0.c:152 (discriminator 1)
20014b9a:	fe442783          	lw	a5,-28(s0)
20014b9e:	04878793          	addi	a5,a5,72
20014ba2:	439c                	lw	a5,0(a5)
20014ba4:	fe07cbe3          	bltz	a5,20014b9a <__metal_driver_sifive_spi0_transfer+0x80>
F:/HiFive-IoT/Workspace/sifive-hifive1-revb-hello/freedom-metal/src/drivers/sifive_spi0.c:155
    
        /* Transfer byte by modifying the least significant byte in the TXDATA register */
        if (tx_buf) {
20014ba8:	fc042783          	lw	a5,-64(s0)
20014bac:	cf99                	beqz	a5,20014bca <__metal_driver_sifive_spi0_transfer+0xb0>
F:/HiFive-IoT/Workspace/sifive-hifive1-revb-hello/freedom-metal/src/drivers/sifive_spi0.c:156
            METAL_SPI_REGB(METAL_SIFIVE_SPI0_TXDATA) = tx_buf[i];
20014bae:	fec42783          	lw	a5,-20(s0)
20014bb2:	fc042703          	lw	a4,-64(s0)
20014bb6:	97ba                	add	a5,a5,a4
20014bb8:	fe442703          	lw	a4,-28(s0)
20014bbc:	04870713          	addi	a4,a4,72
20014bc0:	0007c783          	lbu	a5,0(a5)
20014bc4:	00f70023          	sb	a5,0(a4)
20014bc8:	a039                	j	20014bd6 <__metal_driver_sifive_spi0_transfer+0xbc>
F:/HiFive-IoT/Workspace/sifive-hifive1-revb-hello/freedom-metal/src/drivers/sifive_spi0.c:159
        } else {
            /* Transfer a 0 byte if the sending buffer is NULL */
            METAL_SPI_REGB(METAL_SIFIVE_SPI0_TXDATA) = 0;
20014bca:	fe442783          	lw	a5,-28(s0)
20014bce:	04878793          	addi	a5,a5,72
20014bd2:	00078023          	sb	zero,0(a5)
F:/HiFive-IoT/Workspace/sifive-hifive1-revb-hello/freedom-metal/src/drivers/sifive_spi0.c:167
        /* Master receives bytes from the RX FIFO */

        /* Wait for RXFIFO to not be empty, but break the nested loops if timeout
         * this timeout method  needs refining, preferably taking into account 
         * the device specs */
        endwait = time(NULL) + METAL_SPI_RXDATA_TIMEOUT;
20014bd6:	4501                	li	a0,0
20014bd8:	659000ef          	jal	ra,20015a30 <time>
20014bdc:	86aa                	mv	a3,a0
20014bde:	872e                	mv	a4,a1
20014be0:	4585                	li	a1,1
20014be2:	4601                	li	a2,0
20014be4:	00b687b3          	add	a5,a3,a1
20014be8:	853e                	mv	a0,a5
20014bea:	00d53533          	sltu	a0,a0,a3
20014bee:	00c70833          	add	a6,a4,a2
20014bf2:	01050733          	add	a4,a0,a6
20014bf6:	883a                	mv	a6,a4
20014bf8:	fcf42c23          	sw	a5,-40(s0)
20014bfc:	fd042e23          	sw	a6,-36(s0)
F:/HiFive-IoT/Workspace/sifive-hifive1-revb-hello/freedom-metal/src/drivers/sifive_spi0.c:169

        while ((rxdata = METAL_SPI_REGW(METAL_SIFIVE_SPI0_RXDATA)) & METAL_SPI_RXDATA_EMPTY) {
20014c00:	a081                	j	20014c40 <__metal_driver_sifive_spi0_transfer+0x126>
F:/HiFive-IoT/Workspace/sifive-hifive1-revb-hello/freedom-metal/src/drivers/sifive_spi0.c:170
            if (time(NULL) > endwait) {
20014c02:	4501                	li	a0,0
20014c04:	62d000ef          	jal	ra,20015a30 <time>
20014c08:	87aa                	mv	a5,a0
20014c0a:	882e                	mv	a6,a1
20014c0c:	fdc42703          	lw	a4,-36(s0)
20014c10:	86c2                	mv	a3,a6
20014c12:	00d74c63          	blt	a4,a3,20014c2a <__metal_driver_sifive_spi0_transfer+0x110>
20014c16:	fdc42703          	lw	a4,-36(s0)
20014c1a:	86c2                	mv	a3,a6
20014c1c:	02d71263          	bne	a4,a3,20014c40 <__metal_driver_sifive_spi0_transfer+0x126>
20014c20:	fd842703          	lw	a4,-40(s0)
20014c24:	00f76363          	bltu	a4,a5,20014c2a <__metal_driver_sifive_spi0_transfer+0x110>
20014c28:	a821                	j	20014c40 <__metal_driver_sifive_spi0_transfer+0x126>
F:/HiFive-IoT/Workspace/sifive-hifive1-revb-hello/freedom-metal/src/drivers/sifive_spi0.c:172
                /* If timeout, deassert the CS */
                METAL_SPI_REGW(METAL_SIFIVE_SPI0_CSMODE) &= ~(METAL_SPI_CSMODE_MASK);
20014c2a:	fe442783          	lw	a5,-28(s0)
20014c2e:	07e1                	addi	a5,a5,24
20014c30:	439c                	lw	a5,0(a5)
20014c32:	fe442703          	lw	a4,-28(s0)
20014c36:	0761                	addi	a4,a4,24
20014c38:	9bf1                	andi	a5,a5,-4
20014c3a:	c31c                	sw	a5,0(a4)
F:/HiFive-IoT/Workspace/sifive-hifive1-revb-hello/freedom-metal/src/drivers/sifive_spi0.c:175

                /* If timeout, return error code 1 immediately */
                return 1;
20014c3c:	4785                	li	a5,1
20014c3e:	a8b9                	j	20014c9c <__metal_driver_sifive_spi0_transfer+0x182>
F:/HiFive-IoT/Workspace/sifive-hifive1-revb-hello/freedom-metal/src/drivers/sifive_spi0.c:169
        while ((rxdata = METAL_SPI_REGW(METAL_SIFIVE_SPI0_RXDATA)) & METAL_SPI_RXDATA_EMPTY) {
20014c40:	fe442783          	lw	a5,-28(s0)
20014c44:	04c78793          	addi	a5,a5,76
20014c48:	439c                	lw	a5,0(a5)
20014c4a:	fcf42a23          	sw	a5,-44(s0)
20014c4e:	fd442783          	lw	a5,-44(s0)
20014c52:	fa07c8e3          	bltz	a5,20014c02 <__metal_driver_sifive_spi0_transfer+0xe8>
F:/HiFive-IoT/Workspace/sifive-hifive1-revb-hello/freedom-metal/src/drivers/sifive_spi0.c:180
            }
        }

        /* Only store the dequeued byte if the receive_buffer is not NULL */
        if (rx_buf) {
20014c56:	fbc42783          	lw	a5,-68(s0)
20014c5a:	cf81                	beqz	a5,20014c72 <__metal_driver_sifive_spi0_transfer+0x158>
F:/HiFive-IoT/Workspace/sifive-hifive1-revb-hello/freedom-metal/src/drivers/sifive_spi0.c:181
            rx_buf[i] = (char) (rxdata & METAL_SPI_TXRXDATA_MASK);
20014c5c:	fec42783          	lw	a5,-20(s0)
20014c60:	fbc42703          	lw	a4,-68(s0)
20014c64:	97ba                	add	a5,a5,a4
20014c66:	fd442703          	lw	a4,-44(s0)
20014c6a:	0ff77713          	andi	a4,a4,255
20014c6e:	00e78023          	sb	a4,0(a5)
F:/HiFive-IoT/Workspace/sifive-hifive1-revb-hello/freedom-metal/src/drivers/sifive_spi0.c:148 (discriminator 2)
    for(int i = 0; i < len; i++) {
20014c72:	fec42783          	lw	a5,-20(s0)
20014c76:	0785                	addi	a5,a5,1
20014c78:	fef42623          	sw	a5,-20(s0)
F:/HiFive-IoT/Workspace/sifive-hifive1-revb-hello/freedom-metal/src/drivers/sifive_spi0.c:148 (discriminator 1)
20014c7c:	fec42783          	lw	a5,-20(s0)
20014c80:	fc442703          	lw	a4,-60(s0)
20014c84:	f0e7eae3          	bltu	a5,a4,20014b98 <__metal_driver_sifive_spi0_transfer+0x7e>
F:/HiFive-IoT/Workspace/sifive-hifive1-revb-hello/freedom-metal/src/drivers/sifive_spi0.c:191
     * The reason that CS pin is not deasserted after transmitting out the byte buffer is timing.
     * The code on the host side likely executes faster than the ability of FIFO to send out bytes.
     * After the host iterates through the array, fifo is likely not cleared yet. If host deasserts
     * the CS pin immediately, the following bytes in the output FIFO will not be sent consecutively. 
     * There needs to be a better way to handle this. */
    METAL_SPI_REGW(METAL_SIFIVE_SPI0_CSMODE) &= ~(METAL_SPI_CSMODE_MASK);
20014c88:	fe442783          	lw	a5,-28(s0)
20014c8c:	07e1                	addi	a5,a5,24
20014c8e:	439c                	lw	a5,0(a5)
20014c90:	fe442703          	lw	a4,-28(s0)
20014c94:	0761                	addi	a4,a4,24
20014c96:	9bf1                	andi	a5,a5,-4
20014c98:	c31c                	sw	a5,0(a4)
F:/HiFive-IoT/Workspace/sifive-hifive1-revb-hello/freedom-metal/src/drivers/sifive_spi0.c:193

    return 0;
20014c9a:	4781                	li	a5,0
F:/HiFive-IoT/Workspace/sifive-hifive1-revb-hello/freedom-metal/src/drivers/sifive_spi0.c:194
}
20014c9c:	853e                	mv	a0,a5
20014c9e:	40b6                	lw	ra,76(sp)
20014ca0:	4426                	lw	s0,72(sp)
20014ca2:	6161                	addi	sp,sp,80
20014ca4:	8082                	ret

20014ca6 <__metal_driver_sifive_spi0_get_baud_rate>:
__metal_driver_sifive_spi0_get_baud_rate():
F:/HiFive-IoT/Workspace/sifive-hifive1-revb-hello/freedom-metal/src/drivers/sifive_spi0.c:197

int __metal_driver_sifive_spi0_get_baud_rate(struct metal_spi *gspi)
{
20014ca6:	7179                	addi	sp,sp,-48
20014ca8:	d622                	sw	s0,44(sp)
20014caa:	1800                	addi	s0,sp,48
20014cac:	fca42e23          	sw	a0,-36(s0)
F:/HiFive-IoT/Workspace/sifive-hifive1-revb-hello/freedom-metal/src/drivers/sifive_spi0.c:198
    struct __metal_driver_sifive_spi0 *spi = (void *)gspi;
20014cb0:	fdc42783          	lw	a5,-36(s0)
20014cb4:	fef42623          	sw	a5,-20(s0)
F:/HiFive-IoT/Workspace/sifive-hifive1-revb-hello/freedom-metal/src/drivers/sifive_spi0.c:199
    return spi->baud_rate;
20014cb8:	fec42783          	lw	a5,-20(s0)
20014cbc:	43dc                	lw	a5,4(a5)
F:/HiFive-IoT/Workspace/sifive-hifive1-revb-hello/freedom-metal/src/drivers/sifive_spi0.c:200
}
20014cbe:	853e                	mv	a0,a5
20014cc0:	5432                	lw	s0,44(sp)
20014cc2:	6145                	addi	sp,sp,48
20014cc4:	8082                	ret

20014cc6 <__metal_driver_sifive_spi0_set_baud_rate>:
__metal_driver_sifive_spi0_set_baud_rate():
F:/HiFive-IoT/Workspace/sifive-hifive1-revb-hello/freedom-metal/src/drivers/sifive_spi0.c:203

int __metal_driver_sifive_spi0_set_baud_rate(struct metal_spi *gspi, int baud_rate)
{
20014cc6:	7139                	addi	sp,sp,-64
20014cc8:	de06                	sw	ra,60(sp)
20014cca:	dc22                	sw	s0,56(sp)
20014ccc:	0080                	addi	s0,sp,64
20014cce:	fca42623          	sw	a0,-52(s0)
20014cd2:	fcb42423          	sw	a1,-56(s0)
F:/HiFive-IoT/Workspace/sifive-hifive1-revb-hello/freedom-metal/src/drivers/sifive_spi0.c:204
    long control_base = __metal_driver_sifive_spi0_control_base(gspi);
20014cd6:	fcc42503          	lw	a0,-52(s0)
20014cda:	bbdff0ef          	jal	ra,20014896 <__metal_driver_sifive_spi0_control_base>
20014cde:	87aa                	mv	a5,a0
20014ce0:	fef42623          	sw	a5,-20(s0)
F:/HiFive-IoT/Workspace/sifive-hifive1-revb-hello/freedom-metal/src/drivers/sifive_spi0.c:205
    struct metal_clock *clock = __metal_driver_sifive_spi0_clock(gspi);
20014ce4:	fcc42503          	lw	a0,-52(s0)
20014ce8:	bd5ff0ef          	jal	ra,200148bc <__metal_driver_sifive_spi0_clock>
20014cec:	fea42423          	sw	a0,-24(s0)
F:/HiFive-IoT/Workspace/sifive-hifive1-revb-hello/freedom-metal/src/drivers/sifive_spi0.c:206
    struct __metal_driver_sifive_spi0 *spi = (void *)gspi;
20014cf0:	fcc42783          	lw	a5,-52(s0)
20014cf4:	fef42223          	sw	a5,-28(s0)
F:/HiFive-IoT/Workspace/sifive-hifive1-revb-hello/freedom-metal/src/drivers/sifive_spi0.c:208

    spi->baud_rate = baud_rate;
20014cf8:	fc842703          	lw	a4,-56(s0)
20014cfc:	fe442783          	lw	a5,-28(s0)
20014d00:	c3d8                	sw	a4,4(a5)
F:/HiFive-IoT/Workspace/sifive-hifive1-revb-hello/freedom-metal/src/drivers/sifive_spi0.c:210

    if (clock != NULL) {
20014d02:	fe842783          	lw	a5,-24(s0)
20014d06:	cfb9                	beqz	a5,20014d64 <__metal_driver_sifive_spi0_set_baud_rate+0x9e>
F:/HiFive-IoT/Workspace/sifive-hifive1-revb-hello/freedom-metal/src/drivers/sifive_spi0.c:211
        long clock_rate = clock->vtable->get_rate_hz(clock);
20014d08:	fe842783          	lw	a5,-24(s0)
20014d0c:	439c                	lw	a5,0(a5)
20014d0e:	439c                	lw	a5,0(a5)
20014d10:	fe842503          	lw	a0,-24(s0)
20014d14:	9782                	jalr	a5
20014d16:	fea42023          	sw	a0,-32(s0)
F:/HiFive-IoT/Workspace/sifive-hifive1-revb-hello/freedom-metal/src/drivers/sifive_spi0.c:214

        /* Calculate divider */
        long div = (clock_rate / (2 * baud_rate)) - 1;
20014d1a:	fc842783          	lw	a5,-56(s0)
20014d1e:	0786                	slli	a5,a5,0x1
20014d20:	fe042703          	lw	a4,-32(s0)
20014d24:	02f747b3          	div	a5,a4,a5
20014d28:	17fd                	addi	a5,a5,-1
20014d2a:	fcf42e23          	sw	a5,-36(s0)
F:/HiFive-IoT/Workspace/sifive-hifive1-revb-hello/freedom-metal/src/drivers/sifive_spi0.c:216

        if(div > METAL_SPI_SCKDIV_MASK) {
20014d2e:	fdc42703          	lw	a4,-36(s0)
20014d32:	6785                	lui	a5,0x1
20014d34:	00f74463          	blt	a4,a5,20014d3c <__metal_driver_sifive_spi0_set_baud_rate+0x76>
F:/HiFive-IoT/Workspace/sifive-hifive1-revb-hello/freedom-metal/src/drivers/sifive_spi0.c:219
            /* The requested baud rate is lower than we can support at
             * the current clock rate */
            return -1;
20014d38:	57fd                	li	a5,-1
20014d3a:	a035                	j	20014d66 <__metal_driver_sifive_spi0_set_baud_rate+0xa0>
F:/HiFive-IoT/Workspace/sifive-hifive1-revb-hello/freedom-metal/src/drivers/sifive_spi0.c:223
        }

        /* Set divider */
        METAL_SPI_REGW(METAL_SIFIVE_SPI0_SCKDIV) &= ~METAL_SPI_SCKDIV_MASK;
20014d3c:	fec42783          	lw	a5,-20(s0)
20014d40:	4394                	lw	a3,0(a5)
20014d42:	fec42783          	lw	a5,-20(s0)
20014d46:	777d                	lui	a4,0xfffff
20014d48:	8f75                	and	a4,a4,a3
20014d4a:	c398                	sw	a4,0(a5)
F:/HiFive-IoT/Workspace/sifive-hifive1-revb-hello/freedom-metal/src/drivers/sifive_spi0.c:224
        METAL_SPI_REGW(METAL_SIFIVE_SPI0_SCKDIV) |= (div & METAL_SPI_SCKDIV_MASK);
20014d4c:	fec42783          	lw	a5,-20(s0)
20014d50:	4394                	lw	a3,0(a5)
20014d52:	fdc42703          	lw	a4,-36(s0)
20014d56:	6785                	lui	a5,0x1
20014d58:	17fd                	addi	a5,a5,-1
20014d5a:	8f7d                	and	a4,a4,a5
20014d5c:	fec42783          	lw	a5,-20(s0)
20014d60:	8f55                	or	a4,a4,a3
20014d62:	c398                	sw	a4,0(a5)
F:/HiFive-IoT/Workspace/sifive-hifive1-revb-hello/freedom-metal/src/drivers/sifive_spi0.c:227
    }

    return 0;
20014d64:	4781                	li	a5,0
F:/HiFive-IoT/Workspace/sifive-hifive1-revb-hello/freedom-metal/src/drivers/sifive_spi0.c:228
}
20014d66:	853e                	mv	a0,a5
20014d68:	50f2                	lw	ra,60(sp)
20014d6a:	5462                	lw	s0,56(sp)
20014d6c:	6121                	addi	sp,sp,64
20014d6e:	8082                	ret

20014d70 <pre_rate_change_callback>:
pre_rate_change_callback():
F:/HiFive-IoT/Workspace/sifive-hifive1-revb-hello/freedom-metal/src/drivers/sifive_spi0.c:231

static void pre_rate_change_callback(void *priv)
{
20014d70:	7179                	addi	sp,sp,-48
20014d72:	d606                	sw	ra,44(sp)
20014d74:	d422                	sw	s0,40(sp)
20014d76:	1800                	addi	s0,sp,48
20014d78:	fca42e23          	sw	a0,-36(s0)
F:/HiFive-IoT/Workspace/sifive-hifive1-revb-hello/freedom-metal/src/drivers/sifive_spi0.c:232
    long control_base = __metal_driver_sifive_spi0_control_base((struct metal_spi *)priv);
20014d7c:	fdc42503          	lw	a0,-36(s0)
20014d80:	b17ff0ef          	jal	ra,20014896 <__metal_driver_sifive_spi0_control_base>
20014d84:	87aa                	mv	a5,a0
20014d86:	fef42623          	sw	a5,-20(s0)
F:/HiFive-IoT/Workspace/sifive-hifive1-revb-hello/freedom-metal/src/drivers/sifive_spi0.c:236

    /* Detect when the TXDATA is empty by setting the transmit watermark count
     * to zero and waiting until an interrupt is pending */
    METAL_SPI_REGW(METAL_SIFIVE_SPI0_TXMARK) &= ~(METAL_SPI_TXMARK_MASK);
20014d8a:	fec42783          	lw	a5,-20(s0)
20014d8e:	05078793          	addi	a5,a5,80 # 1050 <__heap_size+0xc50>
20014d92:	439c                	lw	a5,0(a5)
20014d94:	fec42703          	lw	a4,-20(s0)
20014d98:	05070713          	addi	a4,a4,80 # fffff050 <metal_segment_heap_target_end+0x7fffdf84>
20014d9c:	9be1                	andi	a5,a5,-8
20014d9e:	c31c                	sw	a5,0(a4)
F:/HiFive-IoT/Workspace/sifive-hifive1-revb-hello/freedom-metal/src/drivers/sifive_spi0.c:238

    while((METAL_SPI_REGW(METAL_SIFIVE_SPI0_IP) & METAL_SPI_TXWM) == 0) ;
20014da0:	0001                	nop
F:/HiFive-IoT/Workspace/sifive-hifive1-revb-hello/freedom-metal/src/drivers/sifive_spi0.c:238 (discriminator 1)
20014da2:	fec42783          	lw	a5,-20(s0)
20014da6:	07478793          	addi	a5,a5,116
20014daa:	439c                	lw	a5,0(a5)
20014dac:	8b85                	andi	a5,a5,1
20014dae:	dbf5                	beqz	a5,20014da2 <pre_rate_change_callback+0x32>
F:/HiFive-IoT/Workspace/sifive-hifive1-revb-hello/freedom-metal/src/drivers/sifive_spi0.c:239
}
20014db0:	0001                	nop
20014db2:	50b2                	lw	ra,44(sp)
20014db4:	5422                	lw	s0,40(sp)
20014db6:	6145                	addi	sp,sp,48
20014db8:	8082                	ret

20014dba <post_rate_change_callback>:
post_rate_change_callback():
F:/HiFive-IoT/Workspace/sifive-hifive1-revb-hello/freedom-metal/src/drivers/sifive_spi0.c:242

static void post_rate_change_callback(void *priv)
{
20014dba:	7179                	addi	sp,sp,-48
20014dbc:	d606                	sw	ra,44(sp)
20014dbe:	d422                	sw	s0,40(sp)
20014dc0:	1800                	addi	s0,sp,48
20014dc2:	fca42e23          	sw	a0,-36(s0)
F:/HiFive-IoT/Workspace/sifive-hifive1-revb-hello/freedom-metal/src/drivers/sifive_spi0.c:243
    struct __metal_driver_sifive_spi0 *spi = priv;
20014dc6:	fdc42783          	lw	a5,-36(s0)
20014dca:	fef42623          	sw	a5,-20(s0)
F:/HiFive-IoT/Workspace/sifive-hifive1-revb-hello/freedom-metal/src/drivers/sifive_spi0.c:244
    metal_spi_set_baud_rate(&spi->spi, spi->baud_rate);
20014dce:	fec42703          	lw	a4,-20(s0)
20014dd2:	fec42783          	lw	a5,-20(s0)
20014dd6:	43dc                	lw	a5,4(a5)
20014dd8:	85be                	mv	a1,a5
20014dda:	853a                	mv	a0,a4
20014ddc:	dccfd0ef          	jal	ra,200123a8 <metal_spi_set_baud_rate>
F:/HiFive-IoT/Workspace/sifive-hifive1-revb-hello/freedom-metal/src/drivers/sifive_spi0.c:245
}
20014de0:	0001                	nop
20014de2:	50b2                	lw	ra,44(sp)
20014de4:	5422                	lw	s0,40(sp)
20014de6:	6145                	addi	sp,sp,48
20014de8:	8082                	ret

20014dea <__metal_driver_sifive_spi0_init>:
__metal_driver_sifive_spi0_init():
F:/HiFive-IoT/Workspace/sifive-hifive1-revb-hello/freedom-metal/src/drivers/sifive_spi0.c:248

void __metal_driver_sifive_spi0_init(struct metal_spi *gspi, int baud_rate)
{
20014dea:	7139                	addi	sp,sp,-64
20014dec:	de06                	sw	ra,60(sp)
20014dee:	dc22                	sw	s0,56(sp)
20014df0:	0080                	addi	s0,sp,64
20014df2:	fca42623          	sw	a0,-52(s0)
20014df6:	fcb42423          	sw	a1,-56(s0)
F:/HiFive-IoT/Workspace/sifive-hifive1-revb-hello/freedom-metal/src/drivers/sifive_spi0.c:249
    struct __metal_driver_sifive_spi0 *spi = (void *)(gspi);
20014dfa:	fcc42783          	lw	a5,-52(s0)
20014dfe:	fef42623          	sw	a5,-20(s0)
F:/HiFive-IoT/Workspace/sifive-hifive1-revb-hello/freedom-metal/src/drivers/sifive_spi0.c:250
    struct metal_clock *clock = __metal_driver_sifive_spi0_clock(gspi);
20014e02:	fcc42503          	lw	a0,-52(s0)
20014e06:	ab7ff0ef          	jal	ra,200148bc <__metal_driver_sifive_spi0_clock>
20014e0a:	fea42423          	sw	a0,-24(s0)
F:/HiFive-IoT/Workspace/sifive-hifive1-revb-hello/freedom-metal/src/drivers/sifive_spi0.c:251
    struct __metal_driver_sifive_gpio0 *pinmux = __metal_driver_sifive_spi0_pinmux(gspi);
20014e0e:	fcc42503          	lw	a0,-52(s0)
20014e12:	ac5ff0ef          	jal	ra,200148d6 <__metal_driver_sifive_spi0_pinmux>
20014e16:	fea42223          	sw	a0,-28(s0)
F:/HiFive-IoT/Workspace/sifive-hifive1-revb-hello/freedom-metal/src/drivers/sifive_spi0.c:253

    if(clock != NULL) {
20014e1a:	fe842783          	lw	a5,-24(s0)
20014e1e:	c39d                	beqz	a5,20014e44 <__metal_driver_sifive_spi0_init+0x5a>
F:/HiFive-IoT/Workspace/sifive-hifive1-revb-hello/freedom-metal/src/drivers/sifive_spi0.c:254
        metal_clock_register_pre_rate_change_callback(clock, &pre_rate_change_callback, spi);
20014e20:	fec42603          	lw	a2,-20(s0)
20014e24:	200157b7          	lui	a5,0x20015
20014e28:	d7078593          	addi	a1,a5,-656 # 20014d70 <pre_rate_change_callback>
20014e2c:	fe842503          	lw	a0,-24(s0)
20014e30:	29e5                	jal	20015328 <metal_clock_register_pre_rate_change_callback>
F:/HiFive-IoT/Workspace/sifive-hifive1-revb-hello/freedom-metal/src/drivers/sifive_spi0.c:255
        metal_clock_register_post_rate_change_callback(clock, &post_rate_change_callback, spi);
20014e32:	fec42603          	lw	a2,-20(s0)
20014e36:	200157b7          	lui	a5,0x20015
20014e3a:	dba78593          	addi	a1,a5,-582 # 20014dba <post_rate_change_callback>
20014e3e:	fe842503          	lw	a0,-24(s0)
20014e42:	2b11                	jal	20015356 <metal_clock_register_post_rate_change_callback>
F:/HiFive-IoT/Workspace/sifive-hifive1-revb-hello/freedom-metal/src/drivers/sifive_spi0.c:258
    }

    metal_spi_set_baud_rate(&(spi->spi), baud_rate);
20014e44:	fec42783          	lw	a5,-20(s0)
20014e48:	fc842583          	lw	a1,-56(s0)
20014e4c:	853e                	mv	a0,a5
20014e4e:	d5afd0ef          	jal	ra,200123a8 <metal_spi_set_baud_rate>
F:/HiFive-IoT/Workspace/sifive-hifive1-revb-hello/freedom-metal/src/drivers/sifive_spi0.c:260

    if (pinmux != NULL) {
20014e52:	fe442783          	lw	a5,-28(s0)
20014e56:	cb95                	beqz	a5,20014e8a <__metal_driver_sifive_spi0_init+0xa0>
F:/HiFive-IoT/Workspace/sifive-hifive1-revb-hello/freedom-metal/src/drivers/sifive_spi0.c:261
        long pinmux_output_selector = __metal_driver_sifive_spi0_pinmux_output_selector(gspi);
20014e58:	fcc42503          	lw	a0,-52(s0)
20014e5c:	a91ff0ef          	jal	ra,200148ec <__metal_driver_sifive_spi0_pinmux_output_selector>
20014e60:	87aa                	mv	a5,a0
20014e62:	fef42023          	sw	a5,-32(s0)
F:/HiFive-IoT/Workspace/sifive-hifive1-revb-hello/freedom-metal/src/drivers/sifive_spi0.c:262
        long pinmux_source_selector = __metal_driver_sifive_spi0_pinmux_source_selector(gspi);
20014e66:	fcc42503          	lw	a0,-52(s0)
20014e6a:	a99ff0ef          	jal	ra,20014902 <__metal_driver_sifive_spi0_pinmux_source_selector>
20014e6e:	87aa                	mv	a5,a0
20014e70:	fcf42e23          	sw	a5,-36(s0)
F:/HiFive-IoT/Workspace/sifive-hifive1-revb-hello/freedom-metal/src/drivers/sifive_spi0.c:263
        pinmux->gpio.vtable->enable_io(
20014e74:	fe442783          	lw	a5,-28(s0)
20014e78:	439c                	lw	a5,0(a5)
20014e7a:	4f9c                	lw	a5,24(a5)
20014e7c:	fdc42603          	lw	a2,-36(s0)
20014e80:	fe042583          	lw	a1,-32(s0)
20014e84:	fe442503          	lw	a0,-28(s0)
20014e88:	9782                	jalr	a5
F:/HiFive-IoT/Workspace/sifive-hifive1-revb-hello/freedom-metal/src/drivers/sifive_spi0.c:269
            (struct metal_gpio *) pinmux,
            pinmux_output_selector,
            pinmux_source_selector
        );
    }
}
20014e8a:	0001                	nop
20014e8c:	50f2                	lw	ra,60(sp)
20014e8e:	5462                	lw	s0,56(sp)
20014e90:	6121                	addi	sp,sp,64
20014e92:	8082                	ret

20014e94 <__metal_driver_sifive_uart0_control_base>:
__metal_driver_sifive_uart0_control_base():
F:\HiFive-IoT\Workspace\sifive-hifive1-revb-hello\bsp\build\debug/./metal/machine.h:630
{
20014e94:	1101                	addi	sp,sp,-32
20014e96:	ce22                	sw	s0,28(sp)
20014e98:	1000                	addi	s0,sp,32
20014e9a:	fea42623          	sw	a0,-20(s0)
F:\HiFive-IoT\Workspace\sifive-hifive1-revb-hello\bsp\build\debug/./metal/machine.h:631
	if ((uintptr_t)uart == (uintptr_t)&__metal_dt_serial_10013000) {
20014e9e:	fec42703          	lw	a4,-20(s0)
20014ea2:	84818793          	addi	a5,gp,-1976 # 800007e0 <__metal_dt_serial_10013000>
20014ea6:	00f71563          	bne	a4,a5,20014eb0 <__metal_driver_sifive_uart0_control_base+0x1c>
F:\HiFive-IoT\Workspace\sifive-hifive1-revb-hello\bsp\build\debug/./metal/machine.h:632
		return METAL_SIFIVE_UART0_10013000_BASE_ADDRESS;
20014eaa:	100137b7          	lui	a5,0x10013
20014eae:	a011                	j	20014eb2 <__metal_driver_sifive_uart0_control_base+0x1e>
F:\HiFive-IoT\Workspace\sifive-hifive1-revb-hello\bsp\build\debug/./metal/machine.h:635
		return 0;
20014eb0:	4781                	li	a5,0
F:\HiFive-IoT\Workspace\sifive-hifive1-revb-hello\bsp\build\debug/./metal/machine.h:637
}
20014eb2:	853e                	mv	a0,a5
20014eb4:	4472                	lw	s0,28(sp)
20014eb6:	6105                	addi	sp,sp,32
20014eb8:	8082                	ret

20014eba <__metal_driver_sifive_uart0_interrupt_parent>:
__metal_driver_sifive_uart0_interrupt_parent():
F:\HiFive-IoT\Workspace\sifive-hifive1-revb-hello\bsp\build\debug/./metal/machine.h:660
{
20014eba:	1101                	addi	sp,sp,-32
20014ebc:	ce22                	sw	s0,28(sp)
20014ebe:	1000                	addi	s0,sp,32
20014ec0:	fea42623          	sw	a0,-20(s0)
F:\HiFive-IoT\Workspace\sifive-hifive1-revb-hello\bsp\build\debug/./metal/machine.h:661
	if ((uintptr_t)uart == (uintptr_t)&__metal_dt_serial_10013000) {
20014ec4:	fec42703          	lw	a4,-20(s0)
20014ec8:	84818793          	addi	a5,gp,-1976 # 800007e0 <__metal_dt_serial_10013000>
20014ecc:	00f71763          	bne	a4,a5,20014eda <__metal_driver_sifive_uart0_interrupt_parent+0x20>
F:\HiFive-IoT\Workspace\sifive-hifive1-revb-hello\bsp\build\debug/./metal/machine.h:662
		return (struct metal_interrupt *)&__metal_dt_interrupt_controller_c000000.controller;
20014ed0:	800007b7          	lui	a5,0x80000
20014ed4:	45878793          	addi	a5,a5,1112 # 80000458 <metal_segment_heap_target_end+0xfffff38c>
20014ed8:	a011                	j	20014edc <__metal_driver_sifive_uart0_interrupt_parent+0x22>
F:\HiFive-IoT\Workspace\sifive-hifive1-revb-hello\bsp\build\debug/./metal/machine.h:665
		return NULL;
20014eda:	4781                	li	a5,0
F:\HiFive-IoT\Workspace\sifive-hifive1-revb-hello\bsp\build\debug/./metal/machine.h:667
}
20014edc:	853e                	mv	a0,a5
20014ede:	4472                	lw	s0,28(sp)
20014ee0:	6105                	addi	sp,sp,32
20014ee2:	8082                	ret

20014ee4 <__metal_driver_sifive_uart0_interrupt_line>:
__metal_driver_sifive_uart0_interrupt_line():
F:\HiFive-IoT\Workspace\sifive-hifive1-revb-hello\bsp\build\debug/./metal/machine.h:670
{
20014ee4:	1101                	addi	sp,sp,-32
20014ee6:	ce22                	sw	s0,28(sp)
20014ee8:	1000                	addi	s0,sp,32
20014eea:	fea42623          	sw	a0,-20(s0)
F:\HiFive-IoT\Workspace\sifive-hifive1-revb-hello\bsp\build\debug/./metal/machine.h:671
		return 5;
20014eee:	4795                	li	a5,5
F:\HiFive-IoT\Workspace\sifive-hifive1-revb-hello\bsp\build\debug/./metal/machine.h:672
}
20014ef0:	853e                	mv	a0,a5
20014ef2:	4472                	lw	s0,28(sp)
20014ef4:	6105                	addi	sp,sp,32
20014ef6:	8082                	ret

20014ef8 <__metal_driver_sifive_uart0_clock>:
__metal_driver_sifive_uart0_clock():
F:\HiFive-IoT\Workspace\sifive-hifive1-revb-hello\bsp\build\debug/./metal/machine.h:675
{
20014ef8:	1101                	addi	sp,sp,-32
20014efa:	ce22                	sw	s0,28(sp)
20014efc:	1000                	addi	s0,sp,32
20014efe:	fea42623          	sw	a0,-20(s0)
F:\HiFive-IoT\Workspace\sifive-hifive1-revb-hello\bsp\build\debug/./metal/machine.h:676
		return (struct metal_clock *)&__metal_dt_clock_4.clock;
20014f02:	800007b7          	lui	a5,0x80000
20014f06:	78078793          	addi	a5,a5,1920 # 80000780 <metal_segment_heap_target_end+0xfffff6b4>
F:\HiFive-IoT\Workspace\sifive-hifive1-revb-hello\bsp\build\debug/./metal/machine.h:677
}
20014f0a:	853e                	mv	a0,a5
20014f0c:	4472                	lw	s0,28(sp)
20014f0e:	6105                	addi	sp,sp,32
20014f10:	8082                	ret

20014f12 <__metal_driver_sifive_uart0_pinmux>:
__metal_driver_sifive_uart0_pinmux():
F:\HiFive-IoT\Workspace\sifive-hifive1-revb-hello\bsp\build\debug/./metal/machine.h:680
{
20014f12:	1101                	addi	sp,sp,-32
20014f14:	ce22                	sw	s0,28(sp)
20014f16:	1000                	addi	s0,sp,32
20014f18:	fea42623          	sw	a0,-20(s0)
F:\HiFive-IoT\Workspace\sifive-hifive1-revb-hello\bsp\build\debug/./metal/machine.h:681
		return (struct __metal_driver_sifive_gpio0 *)&__metal_dt_gpio_10012000;
20014f1c:	83c18793          	addi	a5,gp,-1988 # 800007d4 <__metal_dt_gpio_10012000>
F:\HiFive-IoT\Workspace\sifive-hifive1-revb-hello\bsp\build\debug/./metal/machine.h:682
}
20014f20:	853e                	mv	a0,a5
20014f22:	4472                	lw	s0,28(sp)
20014f24:	6105                	addi	sp,sp,32
20014f26:	8082                	ret

20014f28 <__metal_driver_sifive_uart0_pinmux_output_selector>:
__metal_driver_sifive_uart0_pinmux_output_selector():
F:\HiFive-IoT\Workspace\sifive-hifive1-revb-hello\bsp\build\debug/./metal/machine.h:685
{
20014f28:	1101                	addi	sp,sp,-32
20014f2a:	ce22                	sw	s0,28(sp)
20014f2c:	1000                	addi	s0,sp,32
20014f2e:	fea42623          	sw	a0,-20(s0)
F:\HiFive-IoT\Workspace\sifive-hifive1-revb-hello\bsp\build\debug/./metal/machine.h:686
		return 196608;
20014f32:	000307b7          	lui	a5,0x30
F:\HiFive-IoT\Workspace\sifive-hifive1-revb-hello\bsp\build\debug/./metal/machine.h:687
}
20014f36:	853e                	mv	a0,a5
20014f38:	4472                	lw	s0,28(sp)
20014f3a:	6105                	addi	sp,sp,32
20014f3c:	8082                	ret

20014f3e <__metal_driver_sifive_uart0_pinmux_source_selector>:
__metal_driver_sifive_uart0_pinmux_source_selector():
F:\HiFive-IoT\Workspace\sifive-hifive1-revb-hello\bsp\build\debug/./metal/machine.h:690
{
20014f3e:	1101                	addi	sp,sp,-32
20014f40:	ce22                	sw	s0,28(sp)
20014f42:	1000                	addi	s0,sp,32
20014f44:	fea42623          	sw	a0,-20(s0)
F:\HiFive-IoT\Workspace\sifive-hifive1-revb-hello\bsp\build\debug/./metal/machine.h:691
		return 196608;
20014f48:	000307b7          	lui	a5,0x30
F:\HiFive-IoT\Workspace\sifive-hifive1-revb-hello\bsp\build\debug/./metal/machine.h:692
}
20014f4c:	853e                	mv	a0,a5
20014f4e:	4472                	lw	s0,28(sp)
20014f50:	6105                	addi	sp,sp,32
20014f52:	8082                	ret

20014f54 <__metal_driver_sifive_uart0_interrupt_controller>:
__metal_driver_sifive_uart0_interrupt_controller():
F:/HiFive-IoT/Workspace/sifive-hifive1-revb-hello/freedom-metal/src/drivers/sifive_uart0.c:32
#define UART_REGB(offset)  (__METAL_ACCESS_ONCE((__metal_io_u8  *)UART_REG(offset)))
#define UART_REGW(offset)  (__METAL_ACCESS_ONCE((__metal_io_u32 *)UART_REG(offset)))

struct metal_interrupt *
__metal_driver_sifive_uart0_interrupt_controller(struct metal_uart *uart)
{
20014f54:	1101                	addi	sp,sp,-32
20014f56:	ce06                	sw	ra,28(sp)
20014f58:	cc22                	sw	s0,24(sp)
20014f5a:	1000                	addi	s0,sp,32
20014f5c:	fea42623          	sw	a0,-20(s0)
F:/HiFive-IoT/Workspace/sifive-hifive1-revb-hello/freedom-metal/src/drivers/sifive_uart0.c:33
    return __metal_driver_sifive_uart0_interrupt_parent(uart);
20014f60:	fec42503          	lw	a0,-20(s0)
20014f64:	f57ff0ef          	jal	ra,20014eba <__metal_driver_sifive_uart0_interrupt_parent>
20014f68:	87aa                	mv	a5,a0
F:/HiFive-IoT/Workspace/sifive-hifive1-revb-hello/freedom-metal/src/drivers/sifive_uart0.c:34
}
20014f6a:	853e                	mv	a0,a5
20014f6c:	40f2                	lw	ra,28(sp)
20014f6e:	4462                	lw	s0,24(sp)
20014f70:	6105                	addi	sp,sp,32
20014f72:	8082                	ret

20014f74 <__metal_driver_sifive_uart0_get_interrupt_id>:
__metal_driver_sifive_uart0_get_interrupt_id():
F:/HiFive-IoT/Workspace/sifive-hifive1-revb-hello/freedom-metal/src/drivers/sifive_uart0.c:37

int __metal_driver_sifive_uart0_get_interrupt_id(struct metal_uart *uart)
{
20014f74:	1101                	addi	sp,sp,-32
20014f76:	ce06                	sw	ra,28(sp)
20014f78:	cc22                	sw	s0,24(sp)
20014f7a:	1000                	addi	s0,sp,32
20014f7c:	fea42623          	sw	a0,-20(s0)
F:/HiFive-IoT/Workspace/sifive-hifive1-revb-hello/freedom-metal/src/drivers/sifive_uart0.c:38
    return (__metal_driver_sifive_uart0_interrupt_line(uart) + METAL_INTERRUPT_ID_GL0);
20014f80:	fec42503          	lw	a0,-20(s0)
20014f84:	3785                	jal	20014ee4 <__metal_driver_sifive_uart0_interrupt_line>
20014f86:	87aa                	mv	a5,a0
20014f88:	02078793          	addi	a5,a5,32 # 30020 <__heap_size+0x2fc20>
F:/HiFive-IoT/Workspace/sifive-hifive1-revb-hello/freedom-metal/src/drivers/sifive_uart0.c:39
}
20014f8c:	853e                	mv	a0,a5
20014f8e:	40f2                	lw	ra,28(sp)
20014f90:	4462                	lw	s0,24(sp)
20014f92:	6105                	addi	sp,sp,32
20014f94:	8082                	ret

20014f96 <__metal_driver_sifive_uart0_putc>:
__metal_driver_sifive_uart0_putc():
F:/HiFive-IoT/Workspace/sifive-hifive1-revb-hello/freedom-metal/src/drivers/sifive_uart0.c:42

int __metal_driver_sifive_uart0_putc(struct metal_uart *uart, unsigned char c)
{
20014f96:	7179                	addi	sp,sp,-48
20014f98:	d606                	sw	ra,44(sp)
20014f9a:	d422                	sw	s0,40(sp)
20014f9c:	1800                	addi	s0,sp,48
20014f9e:	fca42e23          	sw	a0,-36(s0)
20014fa2:	87ae                	mv	a5,a1
20014fa4:	fcf40da3          	sb	a5,-37(s0)
F:/HiFive-IoT/Workspace/sifive-hifive1-revb-hello/freedom-metal/src/drivers/sifive_uart0.c:43
    long control_base = __metal_driver_sifive_uart0_control_base(uart);
20014fa8:	fdc42503          	lw	a0,-36(s0)
20014fac:	ee9ff0ef          	jal	ra,20014e94 <__metal_driver_sifive_uart0_control_base>
20014fb0:	87aa                	mv	a5,a0
20014fb2:	fef42623          	sw	a5,-20(s0)
F:/HiFive-IoT/Workspace/sifive-hifive1-revb-hello/freedom-metal/src/drivers/sifive_uart0.c:45

    while ((UART_REGW(METAL_SIFIVE_UART0_TXDATA) & UART_TXFULL) != 0) { }
20014fb6:	0001                	nop
F:/HiFive-IoT/Workspace/sifive-hifive1-revb-hello/freedom-metal/src/drivers/sifive_uart0.c:45 (discriminator 1)
20014fb8:	fec42783          	lw	a5,-20(s0)
20014fbc:	439c                	lw	a5,0(a5)
20014fbe:	fe07cde3          	bltz	a5,20014fb8 <__metal_driver_sifive_uart0_putc+0x22>
F:/HiFive-IoT/Workspace/sifive-hifive1-revb-hello/freedom-metal/src/drivers/sifive_uart0.c:46
    UART_REGW(METAL_SIFIVE_UART0_TXDATA) = c;
20014fc2:	fec42783          	lw	a5,-20(s0)
20014fc6:	fdb44703          	lbu	a4,-37(s0)
20014fca:	c398                	sw	a4,0(a5)
F:/HiFive-IoT/Workspace/sifive-hifive1-revb-hello/freedom-metal/src/drivers/sifive_uart0.c:47
    return 0;
20014fcc:	4781                	li	a5,0
F:/HiFive-IoT/Workspace/sifive-hifive1-revb-hello/freedom-metal/src/drivers/sifive_uart0.c:48
}
20014fce:	853e                	mv	a0,a5
20014fd0:	50b2                	lw	ra,44(sp)
20014fd2:	5422                	lw	s0,40(sp)
20014fd4:	6145                	addi	sp,sp,48
20014fd6:	8082                	ret

20014fd8 <__metal_driver_sifive_uart0_getc>:
__metal_driver_sifive_uart0_getc():
F:/HiFive-IoT/Workspace/sifive-hifive1-revb-hello/freedom-metal/src/drivers/sifive_uart0.c:51

int __metal_driver_sifive_uart0_getc(struct metal_uart *uart, unsigned char *c)
{
20014fd8:	7179                	addi	sp,sp,-48
20014fda:	d606                	sw	ra,44(sp)
20014fdc:	d422                	sw	s0,40(sp)
20014fde:	1800                	addi	s0,sp,48
20014fe0:	fca42e23          	sw	a0,-36(s0)
20014fe4:	fcb42c23          	sw	a1,-40(s0)
F:/HiFive-IoT/Workspace/sifive-hifive1-revb-hello/freedom-metal/src/drivers/sifive_uart0.c:52
    uint32_t ch = UART_RXEMPTY;
20014fe8:	800007b7          	lui	a5,0x80000
20014fec:	fef42623          	sw	a5,-20(s0)
F:/HiFive-IoT/Workspace/sifive-hifive1-revb-hello/freedom-metal/src/drivers/sifive_uart0.c:53
    long control_base = __metal_driver_sifive_uart0_control_base(uart);
20014ff0:	fdc42503          	lw	a0,-36(s0)
20014ff4:	ea1ff0ef          	jal	ra,20014e94 <__metal_driver_sifive_uart0_control_base>
20014ff8:	87aa                	mv	a5,a0
20014ffa:	fef42423          	sw	a5,-24(s0)
F:/HiFive-IoT/Workspace/sifive-hifive1-revb-hello/freedom-metal/src/drivers/sifive_uart0.c:55

    while (ch & UART_RXEMPTY) {
20014ffe:	a039                	j	2001500c <__metal_driver_sifive_uart0_getc+0x34>
F:/HiFive-IoT/Workspace/sifive-hifive1-revb-hello/freedom-metal/src/drivers/sifive_uart0.c:56
        ch = UART_REGW(METAL_SIFIVE_UART0_RXDATA);
20015000:	fe842783          	lw	a5,-24(s0)
20015004:	0791                	addi	a5,a5,4
20015006:	439c                	lw	a5,0(a5)
20015008:	fef42623          	sw	a5,-20(s0)
F:/HiFive-IoT/Workspace/sifive-hifive1-revb-hello/freedom-metal/src/drivers/sifive_uart0.c:55
    while (ch & UART_RXEMPTY) {
2001500c:	fec42783          	lw	a5,-20(s0)
20015010:	fe07c8e3          	bltz	a5,20015000 <__metal_driver_sifive_uart0_getc+0x28>
F:/HiFive-IoT/Workspace/sifive-hifive1-revb-hello/freedom-metal/src/drivers/sifive_uart0.c:58
    }
    *c = ch & 0xff;
20015014:	fec42783          	lw	a5,-20(s0)
20015018:	0ff7f713          	andi	a4,a5,255
2001501c:	fd842783          	lw	a5,-40(s0)
20015020:	00e78023          	sb	a4,0(a5) # 80000000 <metal_segment_heap_target_end+0xffffef34>
F:/HiFive-IoT/Workspace/sifive-hifive1-revb-hello/freedom-metal/src/drivers/sifive_uart0.c:59
    return 0;
20015024:	4781                	li	a5,0
F:/HiFive-IoT/Workspace/sifive-hifive1-revb-hello/freedom-metal/src/drivers/sifive_uart0.c:60
}
20015026:	853e                	mv	a0,a5
20015028:	50b2                	lw	ra,44(sp)
2001502a:	5422                	lw	s0,40(sp)
2001502c:	6145                	addi	sp,sp,48
2001502e:	8082                	ret

20015030 <__metal_driver_sifive_uart0_get_baud_rate>:
__metal_driver_sifive_uart0_get_baud_rate():
F:/HiFive-IoT/Workspace/sifive-hifive1-revb-hello/freedom-metal/src/drivers/sifive_uart0.c:63

int __metal_driver_sifive_uart0_get_baud_rate(struct metal_uart *guart)
{
20015030:	7179                	addi	sp,sp,-48
20015032:	d622                	sw	s0,44(sp)
20015034:	1800                	addi	s0,sp,48
20015036:	fca42e23          	sw	a0,-36(s0)
F:/HiFive-IoT/Workspace/sifive-hifive1-revb-hello/freedom-metal/src/drivers/sifive_uart0.c:64
    struct __metal_driver_sifive_uart0 *uart = (void *)guart;
2001503a:	fdc42783          	lw	a5,-36(s0)
2001503e:	fef42623          	sw	a5,-20(s0)
F:/HiFive-IoT/Workspace/sifive-hifive1-revb-hello/freedom-metal/src/drivers/sifive_uart0.c:65
    return uart->baud_rate;
20015042:	fec42783          	lw	a5,-20(s0)
20015046:	43dc                	lw	a5,4(a5)
F:/HiFive-IoT/Workspace/sifive-hifive1-revb-hello/freedom-metal/src/drivers/sifive_uart0.c:66
}
20015048:	853e                	mv	a0,a5
2001504a:	5432                	lw	s0,44(sp)
2001504c:	6145                	addi	sp,sp,48
2001504e:	8082                	ret

20015050 <__metal_driver_sifive_uart0_set_baud_rate>:
__metal_driver_sifive_uart0_set_baud_rate():
F:/HiFive-IoT/Workspace/sifive-hifive1-revb-hello/freedom-metal/src/drivers/sifive_uart0.c:69

int __metal_driver_sifive_uart0_set_baud_rate(struct metal_uart *guart, int baud_rate)
{
20015050:	7179                	addi	sp,sp,-48
20015052:	d606                	sw	ra,44(sp)
20015054:	d422                	sw	s0,40(sp)
20015056:	1800                	addi	s0,sp,48
20015058:	fca42e23          	sw	a0,-36(s0)
2001505c:	fcb42c23          	sw	a1,-40(s0)
F:/HiFive-IoT/Workspace/sifive-hifive1-revb-hello/freedom-metal/src/drivers/sifive_uart0.c:70
    struct __metal_driver_sifive_uart0 *uart = (void *)guart;
20015060:	fdc42783          	lw	a5,-36(s0)
20015064:	fef42623          	sw	a5,-20(s0)
F:/HiFive-IoT/Workspace/sifive-hifive1-revb-hello/freedom-metal/src/drivers/sifive_uart0.c:71
    long control_base = __metal_driver_sifive_uart0_control_base(guart);
20015068:	fdc42503          	lw	a0,-36(s0)
2001506c:	e29ff0ef          	jal	ra,20014e94 <__metal_driver_sifive_uart0_control_base>
20015070:	87aa                	mv	a5,a0
20015072:	fef42423          	sw	a5,-24(s0)
F:/HiFive-IoT/Workspace/sifive-hifive1-revb-hello/freedom-metal/src/drivers/sifive_uart0.c:72
    struct metal_clock *clock = __metal_driver_sifive_uart0_clock(guart);
20015076:	fdc42503          	lw	a0,-36(s0)
2001507a:	e7fff0ef          	jal	ra,20014ef8 <__metal_driver_sifive_uart0_clock>
2001507e:	fea42223          	sw	a0,-28(s0)
F:/HiFive-IoT/Workspace/sifive-hifive1-revb-hello/freedom-metal/src/drivers/sifive_uart0.c:74

    uart->baud_rate = baud_rate;
20015082:	fd842703          	lw	a4,-40(s0)
20015086:	fec42783          	lw	a5,-20(s0)
2001508a:	c3d8                	sw	a4,4(a5)
F:/HiFive-IoT/Workspace/sifive-hifive1-revb-hello/freedom-metal/src/drivers/sifive_uart0.c:76

    if (clock != NULL) {
2001508c:	fe442783          	lw	a5,-28(s0)
20015090:	cbb1                	beqz	a5,200150e4 <__metal_driver_sifive_uart0_set_baud_rate+0x94>
F:/HiFive-IoT/Workspace/sifive-hifive1-revb-hello/freedom-metal/src/drivers/sifive_uart0.c:77
        long clock_rate = clock->vtable->get_rate_hz(clock);
20015092:	fe442783          	lw	a5,-28(s0)
20015096:	439c                	lw	a5,0(a5)
20015098:	439c                	lw	a5,0(a5)
2001509a:	fe442503          	lw	a0,-28(s0)
2001509e:	9782                	jalr	a5
200150a0:	fea42023          	sw	a0,-32(s0)
F:/HiFive-IoT/Workspace/sifive-hifive1-revb-hello/freedom-metal/src/drivers/sifive_uart0.c:78
        UART_REGW(METAL_SIFIVE_UART0_DIV) = clock_rate / baud_rate - 1;
200150a4:	fe042703          	lw	a4,-32(s0)
200150a8:	fd842783          	lw	a5,-40(s0)
200150ac:	02f747b3          	div	a5,a4,a5
200150b0:	fff78713          	addi	a4,a5,-1
200150b4:	fe842783          	lw	a5,-24(s0)
200150b8:	07e1                	addi	a5,a5,24
200150ba:	c398                	sw	a4,0(a5)
F:/HiFive-IoT/Workspace/sifive-hifive1-revb-hello/freedom-metal/src/drivers/sifive_uart0.c:79
        UART_REGW(METAL_SIFIVE_UART0_TXCTRL) |= UART_TXEN;
200150bc:	fe842783          	lw	a5,-24(s0)
200150c0:	07a1                	addi	a5,a5,8
200150c2:	439c                	lw	a5,0(a5)
200150c4:	fe842703          	lw	a4,-24(s0)
200150c8:	0721                	addi	a4,a4,8
200150ca:	0017e793          	ori	a5,a5,1
200150ce:	c31c                	sw	a5,0(a4)
F:/HiFive-IoT/Workspace/sifive-hifive1-revb-hello/freedom-metal/src/drivers/sifive_uart0.c:80
        UART_REGW(METAL_SIFIVE_UART0_RXCTRL) |= UART_RXEN;
200150d0:	fe842783          	lw	a5,-24(s0)
200150d4:	07b1                	addi	a5,a5,12
200150d6:	439c                	lw	a5,0(a5)
200150d8:	fe842703          	lw	a4,-24(s0)
200150dc:	0731                	addi	a4,a4,12
200150de:	0017e793          	ori	a5,a5,1
200150e2:	c31c                	sw	a5,0(a4)
F:/HiFive-IoT/Workspace/sifive-hifive1-revb-hello/freedom-metal/src/drivers/sifive_uart0.c:82
    }
    return 0;
200150e4:	4781                	li	a5,0
F:/HiFive-IoT/Workspace/sifive-hifive1-revb-hello/freedom-metal/src/drivers/sifive_uart0.c:83
}
200150e6:	853e                	mv	a0,a5
200150e8:	50b2                	lw	ra,44(sp)
200150ea:	5422                	lw	s0,40(sp)
200150ec:	6145                	addi	sp,sp,48
200150ee:	8082                	ret

200150f0 <pre_rate_change_callback>:
pre_rate_change_callback():
F:/HiFive-IoT/Workspace/sifive-hifive1-revb-hello/freedom-metal/src/drivers/sifive_uart0.c:86

static void pre_rate_change_callback(void *priv)
{
200150f0:	7139                	addi	sp,sp,-64
200150f2:	de06                	sw	ra,60(sp)
200150f4:	dc22                	sw	s0,56(sp)
200150f6:	0080                	addi	s0,sp,64
200150f8:	fca42623          	sw	a0,-52(s0)
F:/HiFive-IoT/Workspace/sifive-hifive1-revb-hello/freedom-metal/src/drivers/sifive_uart0.c:87
    struct __metal_driver_sifive_uart0 *uart = priv;
200150fc:	fcc42783          	lw	a5,-52(s0)
20015100:	fef42623          	sw	a5,-20(s0)
F:/HiFive-IoT/Workspace/sifive-hifive1-revb-hello/freedom-metal/src/drivers/sifive_uart0.c:88
    long control_base = __metal_driver_sifive_uart0_control_base((struct metal_uart *)priv);
20015104:	fcc42503          	lw	a0,-52(s0)
20015108:	d8dff0ef          	jal	ra,20014e94 <__metal_driver_sifive_uart0_control_base>
2001510c:	87aa                	mv	a5,a0
2001510e:	fef42423          	sw	a5,-24(s0)
F:/HiFive-IoT/Workspace/sifive-hifive1-revb-hello/freedom-metal/src/drivers/sifive_uart0.c:89
    struct metal_clock *clock = __metal_driver_sifive_uart0_clock((struct metal_uart *)priv);
20015112:	fcc42503          	lw	a0,-52(s0)
20015116:	de3ff0ef          	jal	ra,20014ef8 <__metal_driver_sifive_uart0_clock>
2001511a:	fea42223          	sw	a0,-28(s0)
F:/HiFive-IoT/Workspace/sifive-hifive1-revb-hello/freedom-metal/src/drivers/sifive_uart0.c:94

    /* Detect when the TXDATA is empty by setting the transmit watermark count
     * to one and waiting until an interrupt is pending */

    UART_REGW(METAL_SIFIVE_UART0_TXCTRL) &= ~(UART_TXCNT(0x7));
2001511e:	fe842783          	lw	a5,-24(s0)
20015122:	07a1                	addi	a5,a5,8
20015124:	4398                	lw	a4,0(a5)
20015126:	fe842783          	lw	a5,-24(s0)
2001512a:	07a1                	addi	a5,a5,8
2001512c:	86be                	mv	a3,a5
2001512e:	fff907b7          	lui	a5,0xfff90
20015132:	17fd                	addi	a5,a5,-1
20015134:	8ff9                	and	a5,a5,a4
20015136:	c29c                	sw	a5,0(a3)
F:/HiFive-IoT/Workspace/sifive-hifive1-revb-hello/freedom-metal/src/drivers/sifive_uart0.c:95
    UART_REGW(METAL_SIFIVE_UART0_TXCTRL) |= UART_TXCNT(1);
20015138:	fe842783          	lw	a5,-24(s0)
2001513c:	07a1                	addi	a5,a5,8
2001513e:	4398                	lw	a4,0(a5)
20015140:	fe842783          	lw	a5,-24(s0)
20015144:	07a1                	addi	a5,a5,8
20015146:	86be                	mv	a3,a5
20015148:	67c1                	lui	a5,0x10
2001514a:	8fd9                	or	a5,a5,a4
2001514c:	c29c                	sw	a5,0(a3)
F:/HiFive-IoT/Workspace/sifive-hifive1-revb-hello/freedom-metal/src/drivers/sifive_uart0.c:97

    while((UART_REGW(METAL_SIFIVE_UART0_IP) & UART_TXWM) == 0) ;
2001514e:	0001                	nop
F:/HiFive-IoT/Workspace/sifive-hifive1-revb-hello/freedom-metal/src/drivers/sifive_uart0.c:97 (discriminator 1)
20015150:	fe842783          	lw	a5,-24(s0)
20015154:	07d1                	addi	a5,a5,20
20015156:	439c                	lw	a5,0(a5)
20015158:	8b85                	andi	a5,a5,1
2001515a:	dbfd                	beqz	a5,20015150 <pre_rate_change_callback+0x60>
F:/HiFive-IoT/Workspace/sifive-hifive1-revb-hello/freedom-metal/src/drivers/sifive_uart0.c:103

    /* When the TXDATA clears, the UART is still shifting out the last byte.
     * Calculate the time we must drain to finish transmitting and then wait
     * that long. */

    long bits_per_symbol = (UART_REGW(METAL_SIFIVE_UART0_TXCTRL) & (1 << 1)) ? 9 : 10;
2001515c:	fe842783          	lw	a5,-24(s0)
20015160:	07a1                	addi	a5,a5,8
20015162:	439c                	lw	a5,0(a5)
20015164:	8b89                	andi	a5,a5,2
20015166:	c399                	beqz	a5,2001516c <pre_rate_change_callback+0x7c>
F:/HiFive-IoT/Workspace/sifive-hifive1-revb-hello/freedom-metal/src/drivers/sifive_uart0.c:103 (discriminator 1)
20015168:	47a5                	li	a5,9
2001516a:	a011                	j	2001516e <pre_rate_change_callback+0x7e>
F:/HiFive-IoT/Workspace/sifive-hifive1-revb-hello/freedom-metal/src/drivers/sifive_uart0.c:103 (discriminator 2)
2001516c:	47a9                	li	a5,10
F:/HiFive-IoT/Workspace/sifive-hifive1-revb-hello/freedom-metal/src/drivers/sifive_uart0.c:103 (discriminator 4)
2001516e:	fef42023          	sw	a5,-32(s0)
F:/HiFive-IoT/Workspace/sifive-hifive1-revb-hello/freedom-metal/src/drivers/sifive_uart0.c:104 (discriminator 4)
    long clk_freq = clock->vtable->get_rate_hz(clock);
20015172:	fe442783          	lw	a5,-28(s0)
20015176:	439c                	lw	a5,0(a5)
20015178:	439c                	lw	a5,0(a5)
2001517a:	fe442503          	lw	a0,-28(s0)
2001517e:	9782                	jalr	a5
20015180:	fca42e23          	sw	a0,-36(s0)
F:/HiFive-IoT/Workspace/sifive-hifive1-revb-hello/freedom-metal/src/drivers/sifive_uart0.c:105 (discriminator 4)
    long cycles_to_wait = bits_per_symbol * clk_freq / uart->baud_rate;
20015184:	fe042703          	lw	a4,-32(s0)
20015188:	fdc42783          	lw	a5,-36(s0)
2001518c:	02f707b3          	mul	a5,a4,a5
20015190:	873e                	mv	a4,a5
20015192:	fec42783          	lw	a5,-20(s0)
20015196:	43dc                	lw	a5,4(a5)
20015198:	02f757b3          	divu	a5,a4,a5
2001519c:	fcf42c23          	sw	a5,-40(s0)
F:/HiFive-IoT/Workspace/sifive-hifive1-revb-hello/freedom-metal/src/drivers/sifive_uart0.c:107 (discriminator 4)

    for(volatile long x = 0; x < cycles_to_wait; x++)
200151a0:	fc042a23          	sw	zero,-44(s0)
200151a4:	a039                	j	200151b2 <pre_rate_change_callback+0xc2>
F:/HiFive-IoT/Workspace/sifive-hifive1-revb-hello/freedom-metal/src/drivers/sifive_uart0.c:108 (discriminator 3)
        asm("nop");
200151a6:	0001                	nop
F:/HiFive-IoT/Workspace/sifive-hifive1-revb-hello/freedom-metal/src/drivers/sifive_uart0.c:107 (discriminator 3)
    for(volatile long x = 0; x < cycles_to_wait; x++)
200151a8:	fd442783          	lw	a5,-44(s0)
200151ac:	0785                	addi	a5,a5,1
200151ae:	fcf42a23          	sw	a5,-44(s0)
F:/HiFive-IoT/Workspace/sifive-hifive1-revb-hello/freedom-metal/src/drivers/sifive_uart0.c:107 (discriminator 1)
200151b2:	fd442783          	lw	a5,-44(s0)
200151b6:	fd842703          	lw	a4,-40(s0)
200151ba:	fee7c6e3          	blt	a5,a4,200151a6 <pre_rate_change_callback+0xb6>
F:/HiFive-IoT/Workspace/sifive-hifive1-revb-hello/freedom-metal/src/drivers/sifive_uart0.c:109
}
200151be:	0001                	nop
200151c0:	50f2                	lw	ra,60(sp)
200151c2:	5462                	lw	s0,56(sp)
200151c4:	6121                	addi	sp,sp,64
200151c6:	8082                	ret

200151c8 <post_rate_change_callback>:
post_rate_change_callback():
F:/HiFive-IoT/Workspace/sifive-hifive1-revb-hello/freedom-metal/src/drivers/sifive_uart0.c:112

static void post_rate_change_callback(void *priv)
{
200151c8:	7179                	addi	sp,sp,-48
200151ca:	d606                	sw	ra,44(sp)
200151cc:	d422                	sw	s0,40(sp)
200151ce:	1800                	addi	s0,sp,48
200151d0:	fca42e23          	sw	a0,-36(s0)
F:/HiFive-IoT/Workspace/sifive-hifive1-revb-hello/freedom-metal/src/drivers/sifive_uart0.c:113
    struct __metal_driver_sifive_uart0 *uart = priv;
200151d4:	fdc42783          	lw	a5,-36(s0)
200151d8:	fef42623          	sw	a5,-20(s0)
F:/HiFive-IoT/Workspace/sifive-hifive1-revb-hello/freedom-metal/src/drivers/sifive_uart0.c:114
    metal_uart_set_baud_rate(&uart->uart, uart->baud_rate);
200151dc:	fec42703          	lw	a4,-20(s0)
200151e0:	fec42783          	lw	a5,-20(s0)
200151e4:	43dc                	lw	a5,4(a5)
200151e6:	85be                	mv	a1,a5
200151e8:	853a                	mv	a0,a4
200151ea:	246d                	jal	20015494 <metal_uart_set_baud_rate>
F:/HiFive-IoT/Workspace/sifive-hifive1-revb-hello/freedom-metal/src/drivers/sifive_uart0.c:115
}
200151ec:	0001                	nop
200151ee:	50b2                	lw	ra,44(sp)
200151f0:	5422                	lw	s0,40(sp)
200151f2:	6145                	addi	sp,sp,48
200151f4:	8082                	ret

200151f6 <__metal_driver_sifive_uart0_init>:
__metal_driver_sifive_uart0_init():
F:/HiFive-IoT/Workspace/sifive-hifive1-revb-hello/freedom-metal/src/drivers/sifive_uart0.c:118

void __metal_driver_sifive_uart0_init(struct metal_uart *guart, int baud_rate)
{
200151f6:	7139                	addi	sp,sp,-64
200151f8:	de06                	sw	ra,60(sp)
200151fa:	dc22                	sw	s0,56(sp)
200151fc:	0080                	addi	s0,sp,64
200151fe:	fca42623          	sw	a0,-52(s0)
20015202:	fcb42423          	sw	a1,-56(s0)
F:/HiFive-IoT/Workspace/sifive-hifive1-revb-hello/freedom-metal/src/drivers/sifive_uart0.c:119
    struct __metal_driver_sifive_uart0 *uart = (void *)(guart);
20015206:	fcc42783          	lw	a5,-52(s0)
2001520a:	fef42623          	sw	a5,-20(s0)
F:/HiFive-IoT/Workspace/sifive-hifive1-revb-hello/freedom-metal/src/drivers/sifive_uart0.c:120
    struct metal_clock *clock = __metal_driver_sifive_uart0_clock(guart);
2001520e:	fcc42503          	lw	a0,-52(s0)
20015212:	ce7ff0ef          	jal	ra,20014ef8 <__metal_driver_sifive_uart0_clock>
20015216:	fea42423          	sw	a0,-24(s0)
F:/HiFive-IoT/Workspace/sifive-hifive1-revb-hello/freedom-metal/src/drivers/sifive_uart0.c:121
    struct __metal_driver_sifive_gpio0 *pinmux = __metal_driver_sifive_uart0_pinmux(guart);
2001521a:	fcc42503          	lw	a0,-52(s0)
2001521e:	cf5ff0ef          	jal	ra,20014f12 <__metal_driver_sifive_uart0_pinmux>
20015222:	fea42223          	sw	a0,-28(s0)
F:/HiFive-IoT/Workspace/sifive-hifive1-revb-hello/freedom-metal/src/drivers/sifive_uart0.c:123

    if(clock != NULL) {
20015226:	fe842783          	lw	a5,-24(s0)
2001522a:	c39d                	beqz	a5,20015250 <__metal_driver_sifive_uart0_init+0x5a>
F:/HiFive-IoT/Workspace/sifive-hifive1-revb-hello/freedom-metal/src/drivers/sifive_uart0.c:124
        metal_clock_register_pre_rate_change_callback(clock, &pre_rate_change_callback, guart);
2001522c:	fcc42603          	lw	a2,-52(s0)
20015230:	200157b7          	lui	a5,0x20015
20015234:	0f078593          	addi	a1,a5,240 # 200150f0 <pre_rate_change_callback>
20015238:	fe842503          	lw	a0,-24(s0)
2001523c:	20f5                	jal	20015328 <metal_clock_register_pre_rate_change_callback>
F:/HiFive-IoT/Workspace/sifive-hifive1-revb-hello/freedom-metal/src/drivers/sifive_uart0.c:125
        metal_clock_register_post_rate_change_callback(clock, &post_rate_change_callback, guart);
2001523e:	fcc42603          	lw	a2,-52(s0)
20015242:	200157b7          	lui	a5,0x20015
20015246:	1c878593          	addi	a1,a5,456 # 200151c8 <post_rate_change_callback>
2001524a:	fe842503          	lw	a0,-24(s0)
2001524e:	2221                	jal	20015356 <metal_clock_register_post_rate_change_callback>
F:/HiFive-IoT/Workspace/sifive-hifive1-revb-hello/freedom-metal/src/drivers/sifive_uart0.c:128
    }

    metal_uart_set_baud_rate(&(uart->uart), baud_rate);
20015250:	fec42783          	lw	a5,-20(s0)
20015254:	fc842583          	lw	a1,-56(s0)
20015258:	853e                	mv	a0,a5
2001525a:	2c2d                	jal	20015494 <metal_uart_set_baud_rate>
F:/HiFive-IoT/Workspace/sifive-hifive1-revb-hello/freedom-metal/src/drivers/sifive_uart0.c:130

    if (pinmux != NULL) {
2001525c:	fe442783          	lw	a5,-28(s0)
20015260:	cb95                	beqz	a5,20015294 <__metal_driver_sifive_uart0_init+0x9e>
F:/HiFive-IoT/Workspace/sifive-hifive1-revb-hello/freedom-metal/src/drivers/sifive_uart0.c:131
        long pinmux_output_selector = __metal_driver_sifive_uart0_pinmux_output_selector(guart);
20015262:	fcc42503          	lw	a0,-52(s0)
20015266:	cc3ff0ef          	jal	ra,20014f28 <__metal_driver_sifive_uart0_pinmux_output_selector>
2001526a:	87aa                	mv	a5,a0
2001526c:	fef42023          	sw	a5,-32(s0)
F:/HiFive-IoT/Workspace/sifive-hifive1-revb-hello/freedom-metal/src/drivers/sifive_uart0.c:132
        long pinmux_source_selector = __metal_driver_sifive_uart0_pinmux_source_selector(guart);
20015270:	fcc42503          	lw	a0,-52(s0)
20015274:	ccbff0ef          	jal	ra,20014f3e <__metal_driver_sifive_uart0_pinmux_source_selector>
20015278:	87aa                	mv	a5,a0
2001527a:	fcf42e23          	sw	a5,-36(s0)
F:/HiFive-IoT/Workspace/sifive-hifive1-revb-hello/freedom-metal/src/drivers/sifive_uart0.c:133
        pinmux->gpio.vtable->enable_io(
2001527e:	fe442783          	lw	a5,-28(s0)
20015282:	439c                	lw	a5,0(a5)
20015284:	4f9c                	lw	a5,24(a5)
20015286:	fdc42603          	lw	a2,-36(s0)
2001528a:	fe042583          	lw	a1,-32(s0)
2001528e:	fe442503          	lw	a0,-28(s0)
20015292:	9782                	jalr	a5
F:/HiFive-IoT/Workspace/sifive-hifive1-revb-hello/freedom-metal/src/drivers/sifive_uart0.c:139
            (struct metal_gpio *) pinmux,
            pinmux_output_selector,
            pinmux_source_selector
        );
    }
}
20015294:	0001                	nop
20015296:	50f2                	lw	ra,60(sp)
20015298:	5462                	lw	s0,56(sp)
2001529a:	6121                	addi	sp,sp,64
2001529c:	8082                	ret

2001529e <metal_clock_get_rate_hz>:
metal_clock_get_rate_hz():
F:/HiFive-IoT/Workspace/sifive-hifive1-revb-hello/freedom-metal/metal/clock.h:64
 * @brief Returns the current rate of the given clock
 *
 * @param clk The handle for the clock
 * @return The current rate of the clock in Hz
 */
inline long metal_clock_get_rate_hz(const struct metal_clock *clk) { return clk->vtable->get_rate_hz(clk); }
2001529e:	1101                	addi	sp,sp,-32
200152a0:	ce06                	sw	ra,28(sp)
200152a2:	cc22                	sw	s0,24(sp)
200152a4:	1000                	addi	s0,sp,32
200152a6:	fea42623          	sw	a0,-20(s0)
200152aa:	fec42783          	lw	a5,-20(s0)
200152ae:	439c                	lw	a5,0(a5)
200152b0:	439c                	lw	a5,0(a5)
200152b2:	fec42503          	lw	a0,-20(s0)
200152b6:	9782                	jalr	a5
200152b8:	87aa                	mv	a5,a0
200152ba:	853e                	mv	a0,a5
200152bc:	40f2                	lw	ra,28(sp)
200152be:	4462                	lw	s0,24(sp)
200152c0:	6105                	addi	sp,sp,32
200152c2:	8082                	ret

200152c4 <metal_clock_set_rate_hz>:
metal_clock_set_rate_hz():
F:/HiFive-IoT/Workspace/sifive-hifive1-revb-hello/freedom-metal/metal/clock.h:81
 *
 * Prior to and after the rate change of the clock, this will call the registered
 * pre- and post-rate change callbacks.
 */
inline long metal_clock_set_rate_hz(struct metal_clock *clk, long hz)
{
200152c4:	7179                	addi	sp,sp,-48
200152c6:	d606                	sw	ra,44(sp)
200152c8:	d422                	sw	s0,40(sp)
200152ca:	1800                	addi	s0,sp,48
200152cc:	fca42e23          	sw	a0,-36(s0)
200152d0:	fcb42c23          	sw	a1,-40(s0)
F:/HiFive-IoT/Workspace/sifive-hifive1-revb-hello/freedom-metal/metal/clock.h:82
    if(clk->_pre_rate_change_callback != NULL)
200152d4:	fdc42783          	lw	a5,-36(s0)
200152d8:	43dc                	lw	a5,4(a5)
200152da:	cb89                	beqz	a5,200152ec <metal_clock_set_rate_hz+0x28>
F:/HiFive-IoT/Workspace/sifive-hifive1-revb-hello/freedom-metal/metal/clock.h:83
        clk->_pre_rate_change_callback(clk->_pre_rate_change_callback_priv);
200152dc:	fdc42783          	lw	a5,-36(s0)
200152e0:	43d8                	lw	a4,4(a5)
200152e2:	fdc42783          	lw	a5,-36(s0)
200152e6:	479c                	lw	a5,8(a5)
200152e8:	853e                	mv	a0,a5
200152ea:	9702                	jalr	a4
F:/HiFive-IoT/Workspace/sifive-hifive1-revb-hello/freedom-metal/metal/clock.h:85

    long out = clk->vtable->set_rate_hz(clk, hz);
200152ec:	fdc42783          	lw	a5,-36(s0)
200152f0:	439c                	lw	a5,0(a5)
200152f2:	43dc                	lw	a5,4(a5)
200152f4:	fd842583          	lw	a1,-40(s0)
200152f8:	fdc42503          	lw	a0,-36(s0)
200152fc:	9782                	jalr	a5
200152fe:	fea42623          	sw	a0,-20(s0)
F:/HiFive-IoT/Workspace/sifive-hifive1-revb-hello/freedom-metal/metal/clock.h:87

    if (clk->_post_rate_change_callback != NULL)
20015302:	fdc42783          	lw	a5,-36(s0)
20015306:	47dc                	lw	a5,12(a5)
20015308:	cb89                	beqz	a5,2001531a <metal_clock_set_rate_hz+0x56>
F:/HiFive-IoT/Workspace/sifive-hifive1-revb-hello/freedom-metal/metal/clock.h:88
        clk->_post_rate_change_callback(clk->_post_rate_change_callback_priv);
2001530a:	fdc42783          	lw	a5,-36(s0)
2001530e:	47d8                	lw	a4,12(a5)
20015310:	fdc42783          	lw	a5,-36(s0)
20015314:	4b9c                	lw	a5,16(a5)
20015316:	853e                	mv	a0,a5
20015318:	9702                	jalr	a4
F:/HiFive-IoT/Workspace/sifive-hifive1-revb-hello/freedom-metal/metal/clock.h:90

    return out;
2001531a:	fec42783          	lw	a5,-20(s0)
F:/HiFive-IoT/Workspace/sifive-hifive1-revb-hello/freedom-metal/metal/clock.h:91
}
2001531e:	853e                	mv	a0,a5
20015320:	50b2                	lw	ra,44(sp)
20015322:	5422                	lw	s0,40(sp)
20015324:	6145                	addi	sp,sp,48
20015326:	8082                	ret

20015328 <metal_clock_register_pre_rate_change_callback>:
metal_clock_register_pre_rate_change_callback():
F:/HiFive-IoT/Workspace/sifive-hifive1-revb-hello/freedom-metal/metal/clock.h:101
 * @param clk The handle for the clock
 * @param cb The callback to be registered
 * @param priv Private data for the callback handler
 */
inline void metal_clock_register_pre_rate_change_callback(struct metal_clock *clk, metal_clock_pre_rate_change_callback cb, void *priv)
{
20015328:	1101                	addi	sp,sp,-32
2001532a:	ce22                	sw	s0,28(sp)
2001532c:	1000                	addi	s0,sp,32
2001532e:	fea42623          	sw	a0,-20(s0)
20015332:	feb42423          	sw	a1,-24(s0)
20015336:	fec42223          	sw	a2,-28(s0)
F:/HiFive-IoT/Workspace/sifive-hifive1-revb-hello/freedom-metal/metal/clock.h:102
    clk->_pre_rate_change_callback = cb;
2001533a:	fec42783          	lw	a5,-20(s0)
2001533e:	fe842703          	lw	a4,-24(s0)
20015342:	c3d8                	sw	a4,4(a5)
F:/HiFive-IoT/Workspace/sifive-hifive1-revb-hello/freedom-metal/metal/clock.h:103
    clk->_pre_rate_change_callback_priv = priv;
20015344:	fec42783          	lw	a5,-20(s0)
20015348:	fe442703          	lw	a4,-28(s0)
2001534c:	c798                	sw	a4,8(a5)
F:/HiFive-IoT/Workspace/sifive-hifive1-revb-hello/freedom-metal/metal/clock.h:104
}
2001534e:	0001                	nop
20015350:	4472                	lw	s0,28(sp)
20015352:	6105                	addi	sp,sp,32
20015354:	8082                	ret

20015356 <metal_clock_register_post_rate_change_callback>:
metal_clock_register_post_rate_change_callback():
F:/HiFive-IoT/Workspace/sifive-hifive1-revb-hello/freedom-metal/metal/clock.h:114
 * @param clk The handle for the clock
 * @param cb The callback to be registered
 * @param priv Private data for the callback handler
 */
inline void metal_clock_register_post_rate_change_callback(struct metal_clock *clk, metal_clock_post_rate_change_callback cb, void *priv)
{
20015356:	1101                	addi	sp,sp,-32
20015358:	ce22                	sw	s0,28(sp)
2001535a:	1000                	addi	s0,sp,32
2001535c:	fea42623          	sw	a0,-20(s0)
20015360:	feb42423          	sw	a1,-24(s0)
20015364:	fec42223          	sw	a2,-28(s0)
F:/HiFive-IoT/Workspace/sifive-hifive1-revb-hello/freedom-metal/metal/clock.h:115
    clk->_post_rate_change_callback = cb;
20015368:	fec42783          	lw	a5,-20(s0)
2001536c:	fe842703          	lw	a4,-24(s0)
20015370:	c7d8                	sw	a4,12(a5)
F:/HiFive-IoT/Workspace/sifive-hifive1-revb-hello/freedom-metal/metal/clock.h:116
    clk->_post_rate_change_callback_priv = priv;
20015372:	fec42783          	lw	a5,-20(s0)
20015376:	fe442703          	lw	a4,-28(s0)
2001537a:	cb98                	sw	a4,16(a5)
F:/HiFive-IoT/Workspace/sifive-hifive1-revb-hello/freedom-metal/metal/clock.h:117
}
2001537c:	0001                	nop
2001537e:	4472                	lw	s0,28(sp)
20015380:	6105                	addi	sp,sp,32
20015382:	8082                	ret

20015384 <metal_cpu_get_timer>:
metal_cpu_get_timer():
F:/HiFive-IoT/Workspace/sifive-hifive1-revb-hello/freedom-metal/metal/cpu.h:72
 *
 * @param cpu The CPU device handle
 * @return The value of the CPU cycle count timer
 */
inline unsigned long long metal_cpu_get_timer(struct metal_cpu *cpu)
{ return cpu->vtable->timer_get(cpu); }
20015384:	1101                	addi	sp,sp,-32
20015386:	ce06                	sw	ra,28(sp)
20015388:	cc22                	sw	s0,24(sp)
2001538a:	1000                	addi	s0,sp,32
2001538c:	fea42623          	sw	a0,-20(s0)
20015390:	fec42783          	lw	a5,-20(s0)
20015394:	439c                	lw	a5,0(a5)
20015396:	439c                	lw	a5,0(a5)
20015398:	fec42503          	lw	a0,-20(s0)
2001539c:	9782                	jalr	a5
2001539e:	87aa                	mv	a5,a0
200153a0:	882e                	mv	a6,a1
200153a2:	853e                	mv	a0,a5
200153a4:	85c2                	mv	a1,a6
200153a6:	40f2                	lw	ra,28(sp)
200153a8:	4462                	lw	s0,24(sp)
200153aa:	6105                	addi	sp,sp,32
200153ac:	8082                	ret

200153ae <metal_cpu_get_timebase>:
metal_cpu_get_timebase():
F:/HiFive-IoT/Workspace/sifive-hifive1-revb-hello/freedom-metal/metal/cpu.h:82
 *
 * @param cpu The CPU device handle
 * @return The value of the cycle count timer timebase
 */
inline unsigned long long metal_cpu_get_timebase(struct metal_cpu *cpu)
{ return cpu->vtable->timebase_get(cpu); }
200153ae:	1101                	addi	sp,sp,-32
200153b0:	ce06                	sw	ra,28(sp)
200153b2:	cc22                	sw	s0,24(sp)
200153b4:	1000                	addi	s0,sp,32
200153b6:	fea42623          	sw	a0,-20(s0)
200153ba:	fec42783          	lw	a5,-20(s0)
200153be:	439c                	lw	a5,0(a5)
200153c0:	43dc                	lw	a5,4(a5)
200153c2:	fec42503          	lw	a0,-20(s0)
200153c6:	9782                	jalr	a5
200153c8:	87aa                	mv	a5,a0
200153ca:	882e                	mv	a6,a1
200153cc:	853e                	mv	a0,a5
200153ce:	85c2                	mv	a1,a6
200153d0:	40f2                	lw	ra,28(sp)
200153d2:	4462                	lw	s0,24(sp)
200153d4:	6105                	addi	sp,sp,32
200153d6:	8082                	ret

200153d8 <metal_cpu_interrupt_controller>:
metal_cpu_interrupt_controller():
F:/HiFive-IoT/Workspace/sifive-hifive1-revb-hello/freedom-metal/metal/cpu.h:208
 *
 * @param cpu The CPU device handle
 * @return The handle for the CPU interrupt controller
 */
inline struct metal_interrupt* metal_cpu_interrupt_controller(struct metal_cpu *cpu)
{ return cpu->vtable->controller_interrupt(cpu); }
200153d8:	1101                	addi	sp,sp,-32
200153da:	ce06                	sw	ra,28(sp)
200153dc:	cc22                	sw	s0,24(sp)
200153de:	1000                	addi	s0,sp,32
200153e0:	fea42623          	sw	a0,-20(s0)
200153e4:	fec42783          	lw	a5,-20(s0)
200153e8:	439c                	lw	a5,0(a5)
200153ea:	57dc                	lw	a5,44(a5)
200153ec:	fec42503          	lw	a0,-20(s0)
200153f0:	9782                	jalr	a5
200153f2:	87aa                	mv	a5,a0
200153f4:	853e                	mv	a0,a5
200153f6:	40f2                	lw	ra,28(sp)
200153f8:	4462                	lw	s0,24(sp)
200153fa:	6105                	addi	sp,sp,32
200153fc:	8082                	ret

200153fe <metal_cpu_get>:
metal_cpu_get():
F:/HiFive-IoT/Workspace/sifive-hifive1-revb-hello/freedom-metal/src/cpu.c:8

#include <metal/cpu.h>
#include <metal/machine.h>

struct metal_cpu* metal_cpu_get(int hartid)
{
200153fe:	1101                	addi	sp,sp,-32
20015400:	ce22                	sw	s0,28(sp)
20015402:	1000                	addi	s0,sp,32
20015404:	fea42623          	sw	a0,-20(s0)
F:/HiFive-IoT/Workspace/sifive-hifive1-revb-hello/freedom-metal/src/cpu.c:9
    if (hartid < __METAL_DT_MAX_HARTS) {
20015408:	fec42783          	lw	a5,-20(s0)
2001540c:	00f04a63          	bgtz	a5,20015420 <metal_cpu_get+0x22>
F:/HiFive-IoT/Workspace/sifive-hifive1-revb-hello/freedom-metal/src/cpu.c:10
        return (struct metal_cpu *)__metal_cpu_table[hartid];
20015410:	fec42703          	lw	a4,-20(s0)
20015414:	070a                	slli	a4,a4,0x2
20015416:	82418793          	addi	a5,gp,-2012 # 800007bc <__metal_cpu_table>
2001541a:	97ba                	add	a5,a5,a4
2001541c:	439c                	lw	a5,0(a5)
2001541e:	a011                	j	20015422 <metal_cpu_get+0x24>
F:/HiFive-IoT/Workspace/sifive-hifive1-revb-hello/freedom-metal/src/cpu.c:12
    }   
    return NULL;
20015420:	4781                	li	a5,0
F:/HiFive-IoT/Workspace/sifive-hifive1-revb-hello/freedom-metal/src/cpu.c:13
}
20015422:	853e                	mv	a0,a5
20015424:	4472                	lw	s0,28(sp)
20015426:	6105                	addi	sp,sp,32
20015428:	8082                	ret

2001542a <metal_shutdown>:
metal_shutdown():
F:/HiFive-IoT/Workspace/sifive-hifive1-revb-hello/freedom-metal/src/shutdown.c:17
    __metal_shutdown_exit(__METAL_DT_SHUTDOWN_HANDLE, code);
}
#else
# warning "There is no defined shutdown mechanism, metal_shutdown() will spin."
void metal_shutdown(int code)
{
2001542a:	1101                	addi	sp,sp,-32
2001542c:	ce22                	sw	s0,28(sp)
2001542e:	1000                	addi	s0,sp,32
20015430:	fea42623          	sw	a0,-20(s0)
F:/HiFive-IoT/Workspace/sifive-hifive1-revb-hello/freedom-metal/src/shutdown.c:19 (discriminator 1)
    while (1) {
      __asm__ volatile ("nop");
20015434:	0001                	nop
20015436:	bffd                	j	20015434 <metal_shutdown+0xa>

20015438 <metal_uart_init>:
metal_uart_init():
F:/HiFive-IoT/Workspace/sifive-hifive1-revb-hello/freedom-metal/metal/uart.h:42
 * other method on the UART can be invoked. It is invalid to initialize a UART more than once.
 *
 * @param uart The UART device handle
 * @param baud_rate the baud rate to set the UART to
 */
inline void metal_uart_init(struct metal_uart *uart, int baud_rate) { return uart->vtable->init(uart, baud_rate); }
20015438:	1101                	addi	sp,sp,-32
2001543a:	ce06                	sw	ra,28(sp)
2001543c:	cc22                	sw	s0,24(sp)
2001543e:	1000                	addi	s0,sp,32
20015440:	fea42623          	sw	a0,-20(s0)
20015444:	feb42423          	sw	a1,-24(s0)
20015448:	fec42783          	lw	a5,-20(s0)
2001544c:	439c                	lw	a5,0(a5)
2001544e:	439c                	lw	a5,0(a5)
20015450:	fe842583          	lw	a1,-24(s0)
20015454:	fec42503          	lw	a0,-20(s0)
20015458:	9782                	jalr	a5
2001545a:	40f2                	lw	ra,28(sp)
2001545c:	4462                	lw	s0,24(sp)
2001545e:	6105                	addi	sp,sp,32
20015460:	8082                	ret

20015462 <metal_uart_putc>:
metal_uart_putc():
F:/HiFive-IoT/Workspace/sifive-hifive1-revb-hello/freedom-metal/metal/uart.h:50
 * @brief Output a character over the UART
 * @param uart The UART device handle
 * @param c The character to send over the UART
 * @return 0 upon success
 */
inline int metal_uart_putc(struct metal_uart *uart, unsigned char c) { return uart->vtable->putc(uart, c); }
20015462:	1101                	addi	sp,sp,-32
20015464:	ce06                	sw	ra,28(sp)
20015466:	cc22                	sw	s0,24(sp)
20015468:	1000                	addi	s0,sp,32
2001546a:	fea42623          	sw	a0,-20(s0)
2001546e:	87ae                	mv	a5,a1
20015470:	fef405a3          	sb	a5,-21(s0)
20015474:	fec42783          	lw	a5,-20(s0)
20015478:	439c                	lw	a5,0(a5)
2001547a:	43d8                	lw	a4,4(a5)
2001547c:	feb44783          	lbu	a5,-21(s0)
20015480:	85be                	mv	a1,a5
20015482:	fec42503          	lw	a0,-20(s0)
20015486:	9702                	jalr	a4
20015488:	87aa                	mv	a5,a0
2001548a:	853e                	mv	a0,a5
2001548c:	40f2                	lw	ra,28(sp)
2001548e:	4462                	lw	s0,24(sp)
20015490:	6105                	addi	sp,sp,32
20015492:	8082                	ret

20015494 <metal_uart_set_baud_rate>:
metal_uart_set_baud_rate():
F:/HiFive-IoT/Workspace/sifive-hifive1-revb-hello/freedom-metal/metal/uart.h:73
 * @brief Set the baud rate of the UART peripheral
 * @param uart The UART device handle
 * @param baud_rate The baud rate to configure
 * @return the new baud rate of the UART
 */
inline int metal_uart_set_baud_rate(struct metal_uart *uart, int baud_rate) { return uart->vtable->set_baud_rate(uart, baud_rate); }
20015494:	1101                	addi	sp,sp,-32
20015496:	ce06                	sw	ra,28(sp)
20015498:	cc22                	sw	s0,24(sp)
2001549a:	1000                	addi	s0,sp,32
2001549c:	fea42623          	sw	a0,-20(s0)
200154a0:	feb42423          	sw	a1,-24(s0)
200154a4:	fec42783          	lw	a5,-20(s0)
200154a8:	439c                	lw	a5,0(a5)
200154aa:	4b9c                	lw	a5,16(a5)
200154ac:	fe842583          	lw	a1,-24(s0)
200154b0:	fec42503          	lw	a0,-20(s0)
200154b4:	9782                	jalr	a5
200154b6:	87aa                	mv	a5,a0
200154b8:	853e                	mv	a0,a5
200154ba:	40f2                	lw	ra,28(sp)
200154bc:	4462                	lw	s0,24(sp)
200154be:	6105                	addi	sp,sp,32
200154c0:	8082                	ret

200154c2 <__metal_driver_fixed_clock_rate>:
__metal_driver_fixed_clock_rate():
F:\HiFive-IoT\Workspace\sifive-hifive1-revb-hello\bsp\build\debug/./metal/machine.h:152
{
200154c2:	1101                	addi	sp,sp,-32
200154c4:	ce22                	sw	s0,28(sp)
200154c6:	1000                	addi	s0,sp,32
200154c8:	fea42623          	sw	a0,-20(s0)
F:\HiFive-IoT\Workspace\sifive-hifive1-revb-hello\bsp\build\debug/./metal/machine.h:153
	if ((uintptr_t)clock == (uintptr_t)&__metal_dt_clock_0) {
200154cc:	fec42703          	lw	a4,-20(s0)
200154d0:	800007b7          	lui	a5,0x80000
200154d4:	06078793          	addi	a5,a5,96 # 80000060 <metal_segment_heap_target_end+0xffffef94>
200154d8:	00f71763          	bne	a4,a5,200154e6 <__metal_driver_fixed_clock_rate+0x24>
F:\HiFive-IoT\Workspace\sifive-hifive1-revb-hello\bsp\build\debug/./metal/machine.h:154
		return METAL_FIXED_CLOCK_0_CLOCK_FREQUENCY;
200154dc:	00f427b7          	lui	a5,0xf42
200154e0:	40078793          	addi	a5,a5,1024 # f42400 <__heap_size+0xf42000>
200154e4:	a825                	j	2001551c <__metal_driver_fixed_clock_rate+0x5a>
F:\HiFive-IoT\Workspace\sifive-hifive1-revb-hello\bsp\build\debug/./metal/machine.h:156
	else if ((uintptr_t)clock == (uintptr_t)&__metal_dt_clock_2) {
200154e6:	fec42703          	lw	a4,-20(s0)
200154ea:	800007b7          	lui	a5,0x80000
200154ee:	07478793          	addi	a5,a5,116 # 80000074 <metal_segment_heap_target_end+0xffffefa8>
200154f2:	00f71763          	bne	a4,a5,20015500 <__metal_driver_fixed_clock_rate+0x3e>
F:\HiFive-IoT\Workspace\sifive-hifive1-revb-hello\bsp\build\debug/./metal/machine.h:157
		return METAL_FIXED_CLOCK_2_CLOCK_FREQUENCY;
200154f6:	044aa7b7          	lui	a5,0x44aa
200154fa:	20078793          	addi	a5,a5,512 # 44aa200 <__heap_size+0x44a9e00>
200154fe:	a839                	j	2001551c <__metal_driver_fixed_clock_rate+0x5a>
F:\HiFive-IoT\Workspace\sifive-hifive1-revb-hello\bsp\build\debug/./metal/machine.h:159
	else if ((uintptr_t)clock == (uintptr_t)&__metal_dt_clock_5) {
20015500:	fec42703          	lw	a4,-20(s0)
20015504:	800007b7          	lui	a5,0x80000
20015508:	08878793          	addi	a5,a5,136 # 80000088 <metal_segment_heap_target_end+0xffffefbc>
2001550c:	00f71763          	bne	a4,a5,2001551a <__metal_driver_fixed_clock_rate+0x58>
F:\HiFive-IoT\Workspace\sifive-hifive1-revb-hello\bsp\build\debug/./metal/machine.h:160
		return METAL_FIXED_CLOCK_5_CLOCK_FREQUENCY;
20015510:	01e857b7          	lui	a5,0x1e85
20015514:	80078793          	addi	a5,a5,-2048 # 1e84800 <__heap_size+0x1e84400>
20015518:	a011                	j	2001551c <__metal_driver_fixed_clock_rate+0x5a>
F:\HiFive-IoT\Workspace\sifive-hifive1-revb-hello\bsp\build\debug/./metal/machine.h:163
		return 0;
2001551a:	4781                	li	a5,0
F:\HiFive-IoT\Workspace\sifive-hifive1-revb-hello\bsp\build\debug/./metal/machine.h:165
}
2001551c:	853e                	mv	a0,a5
2001551e:	4472                	lw	s0,28(sp)
20015520:	6105                	addi	sp,sp,32
20015522:	8082                	ret

20015524 <__metal_driver_fixed_clock_get_rate_hz>:
__metal_driver_fixed_clock_get_rate_hz():
F:/HiFive-IoT/Workspace/sifive-hifive1-revb-hello/freedom-metal/src/drivers/fixed-clock.c:13
#include <metal/drivers/fixed-clock.h>
#include <stddef.h>
#include <metal/machine.h>

long __metal_driver_fixed_clock_get_rate_hz(const struct metal_clock *gclk)
{
20015524:	1101                	addi	sp,sp,-32
20015526:	ce06                	sw	ra,28(sp)
20015528:	cc22                	sw	s0,24(sp)
2001552a:	1000                	addi	s0,sp,32
2001552c:	fea42623          	sw	a0,-20(s0)
F:/HiFive-IoT/Workspace/sifive-hifive1-revb-hello/freedom-metal/src/drivers/fixed-clock.c:14
    return __metal_driver_fixed_clock_rate(gclk);
20015530:	fec42503          	lw	a0,-20(s0)
20015534:	f8fff0ef          	jal	ra,200154c2 <__metal_driver_fixed_clock_rate>
20015538:	87aa                	mv	a5,a0
F:/HiFive-IoT/Workspace/sifive-hifive1-revb-hello/freedom-metal/src/drivers/fixed-clock.c:15
}
2001553a:	853e                	mv	a0,a5
2001553c:	40f2                	lw	ra,28(sp)
2001553e:	4462                	lw	s0,24(sp)
20015540:	6105                	addi	sp,sp,32
20015542:	8082                	ret

20015544 <__metal_driver_fixed_clock_set_rate_hz>:
__metal_driver_fixed_clock_set_rate_hz():
F:/HiFive-IoT/Workspace/sifive-hifive1-revb-hello/freedom-metal/src/drivers/fixed-clock.c:18

long __metal_driver_fixed_clock_set_rate_hz(struct metal_clock *gclk, long target_hz)
{
20015544:	1101                	addi	sp,sp,-32
20015546:	ce06                	sw	ra,28(sp)
20015548:	cc22                	sw	s0,24(sp)
2001554a:	1000                	addi	s0,sp,32
2001554c:	fea42623          	sw	a0,-20(s0)
20015550:	feb42423          	sw	a1,-24(s0)
F:/HiFive-IoT/Workspace/sifive-hifive1-revb-hello/freedom-metal/src/drivers/fixed-clock.c:19
    return __metal_driver_fixed_clock_get_rate_hz(gclk);
20015554:	fec42503          	lw	a0,-20(s0)
20015558:	37f1                	jal	20015524 <__metal_driver_fixed_clock_get_rate_hz>
2001555a:	87aa                	mv	a5,a0
F:/HiFive-IoT/Workspace/sifive-hifive1-revb-hello/freedom-metal/src/drivers/fixed-clock.c:20
}
2001555c:	853e                	mv	a0,a5
2001555e:	40f2                	lw	ra,28(sp)
20015560:	4462                	lw	s0,24(sp)
20015562:	6105                	addi	sp,sp,32
20015564:	8082                	ret

20015566 <_synchronize_harts>:
_synchronize_harts():
F:/HiFive-IoT/Workspace/sifive-hifive1-revb-hello/freedom-metal/gloss/synchronize_harts.c:18
/*
 * _synchronize_harts() is called by crt0.S to cause harts > 0 to wait for
 * hart 0 to finish copying the datat section, zeroing the BSS, and running
 * the libc contstructors.
 */
void _synchronize_harts() {
20015566:	1141                	addi	sp,sp,-16
20015568:	c622                	sw	s0,12(sp)
2001556a:	0800                	addi	s0,sp,16
F:/HiFive-IoT/Workspace/sifive-hifive1-revb-hello/freedom-metal/gloss/synchronize_harts.c:58
        /* Wait for hart 0 to clear the MSIP bit */
        while (METAL_MSIP(msip_base, hart) == 1) ;
    }

#endif /* __METAL_DT_MAX_HARTS > 1 */
}
2001556c:	0001                	nop
2001556e:	4432                	lw	s0,12(sp)
20015570:	0141                	addi	sp,sp,16
20015572:	8082                	ret

20015574 <_close>:
_close():
F:/HiFive-IoT/Workspace/sifive-hifive1-revb-hello/freedom-metal/gloss/sys_close.c:5
#include <errno.h>

int
_close(int file)
{
20015574:	1101                	addi	sp,sp,-32
20015576:	ce06                	sw	ra,28(sp)
20015578:	cc22                	sw	s0,24(sp)
2001557a:	1000                	addi	s0,sp,32
2001557c:	fea42623          	sw	a0,-20(s0)
F:/HiFive-IoT/Workspace/sifive-hifive1-revb-hello/freedom-metal/gloss/sys_close.c:6
  errno = ENOSYS;
20015580:	2ee1                	jal	20015958 <__errno>
20015582:	872a                	mv	a4,a0
20015584:	05800793          	li	a5,88
20015588:	c31c                	sw	a5,0(a4)
F:/HiFive-IoT/Workspace/sifive-hifive1-revb-hello/freedom-metal/gloss/sys_close.c:7
  return -1;
2001558a:	57fd                	li	a5,-1
F:/HiFive-IoT/Workspace/sifive-hifive1-revb-hello/freedom-metal/gloss/sys_close.c:8
}
2001558c:	853e                	mv	a0,a5
2001558e:	40f2                	lw	ra,28(sp)
20015590:	4462                	lw	s0,24(sp)
20015592:	6105                	addi	sp,sp,32
20015594:	8082                	ret

20015596 <_fstat>:
_fstat():
F:/HiFive-IoT/Workspace/sifive-hifive1-revb-hello/freedom-metal/gloss/sys_fstat.c:6
#include <errno.h>
#include <sys/stat.h>

int
_fstat(int file, struct stat *st)
{
20015596:	1101                	addi	sp,sp,-32
20015598:	ce06                	sw	ra,28(sp)
2001559a:	cc22                	sw	s0,24(sp)
2001559c:	1000                	addi	s0,sp,32
2001559e:	fea42623          	sw	a0,-20(s0)
200155a2:	feb42423          	sw	a1,-24(s0)
F:/HiFive-IoT/Workspace/sifive-hifive1-revb-hello/freedom-metal/gloss/sys_fstat.c:7
  errno = -ENOSYS;
200155a6:	2e4d                	jal	20015958 <__errno>
200155a8:	872a                	mv	a4,a0
200155aa:	fa800793          	li	a5,-88
200155ae:	c31c                	sw	a5,0(a4)
F:/HiFive-IoT/Workspace/sifive-hifive1-revb-hello/freedom-metal/gloss/sys_fstat.c:8
  return -1;
200155b0:	57fd                	li	a5,-1
F:/HiFive-IoT/Workspace/sifive-hifive1-revb-hello/freedom-metal/gloss/sys_fstat.c:9
}
200155b2:	853e                	mv	a0,a5
200155b4:	40f2                	lw	ra,28(sp)
200155b6:	4462                	lw	s0,24(sp)
200155b8:	6105                	addi	sp,sp,32
200155ba:	8082                	ret

200155bc <_isatty>:
_isatty():
F:/HiFive-IoT/Workspace/sifive-hifive1-revb-hello/freedom-metal/gloss/sys_isatty.c:5
#include <unistd.h>

int
_isatty(int file)
{
200155bc:	1101                	addi	sp,sp,-32
200155be:	ce22                	sw	s0,28(sp)
200155c0:	1000                	addi	s0,sp,32
200155c2:	fea42623          	sw	a0,-20(s0)
F:/HiFive-IoT/Workspace/sifive-hifive1-revb-hello/freedom-metal/gloss/sys_isatty.c:6
  return (file == STDOUT_FILENO);
200155c6:	fec42783          	lw	a5,-20(s0)
200155ca:	17fd                	addi	a5,a5,-1
200155cc:	0017b793          	seqz	a5,a5
200155d0:	0ff7f793          	andi	a5,a5,255
F:/HiFive-IoT/Workspace/sifive-hifive1-revb-hello/freedom-metal/gloss/sys_isatty.c:7
}
200155d4:	853e                	mv	a0,a5
200155d6:	4472                	lw	s0,28(sp)
200155d8:	6105                	addi	sp,sp,32
200155da:	8082                	ret

200155dc <_lseek>:
_lseek():
F:/HiFive-IoT/Workspace/sifive-hifive1-revb-hello/freedom-metal/gloss/sys_lseek.c:6
#include <sys/types.h>
#include <errno.h>

off_t
_lseek(int file, off_t ptr, int dir)
{
200155dc:	1101                	addi	sp,sp,-32
200155de:	ce06                	sw	ra,28(sp)
200155e0:	cc22                	sw	s0,24(sp)
200155e2:	1000                	addi	s0,sp,32
200155e4:	fea42623          	sw	a0,-20(s0)
200155e8:	feb42423          	sw	a1,-24(s0)
200155ec:	fec42223          	sw	a2,-28(s0)
F:/HiFive-IoT/Workspace/sifive-hifive1-revb-hello/freedom-metal/gloss/sys_lseek.c:7
  errno = ENOSYS;
200155f0:	26a5                	jal	20015958 <__errno>
200155f2:	872a                	mv	a4,a0
200155f4:	05800793          	li	a5,88
200155f8:	c31c                	sw	a5,0(a4)
F:/HiFive-IoT/Workspace/sifive-hifive1-revb-hello/freedom-metal/gloss/sys_lseek.c:8
  return -1;
200155fa:	57fd                	li	a5,-1
F:/HiFive-IoT/Workspace/sifive-hifive1-revb-hello/freedom-metal/gloss/sys_lseek.c:9
}
200155fc:	853e                	mv	a0,a5
200155fe:	40f2                	lw	ra,28(sp)
20015600:	4462                	lw	s0,24(sp)
20015602:	6105                	addi	sp,sp,32
20015604:	8082                	ret

20015606 <_read>:
_read():
F:/HiFive-IoT/Workspace/sifive-hifive1-revb-hello/freedom-metal/gloss/sys_read.c:6
#include <sys/types.h>
#include <errno.h>

ssize_t
_read(int file, void *ptr, size_t len)
{
20015606:	1101                	addi	sp,sp,-32
20015608:	ce06                	sw	ra,28(sp)
2001560a:	cc22                	sw	s0,24(sp)
2001560c:	1000                	addi	s0,sp,32
2001560e:	fea42623          	sw	a0,-20(s0)
20015612:	feb42423          	sw	a1,-24(s0)
20015616:	fec42223          	sw	a2,-28(s0)
F:/HiFive-IoT/Workspace/sifive-hifive1-revb-hello/freedom-metal/gloss/sys_read.c:7
  errno = ENOSYS;
2001561a:	2e3d                	jal	20015958 <__errno>
2001561c:	872a                	mv	a4,a0
2001561e:	05800793          	li	a5,88
20015622:	c31c                	sw	a5,0(a4)
F:/HiFive-IoT/Workspace/sifive-hifive1-revb-hello/freedom-metal/gloss/sys_read.c:8
  return -1;
20015624:	57fd                	li	a5,-1
F:/HiFive-IoT/Workspace/sifive-hifive1-revb-hello/freedom-metal/gloss/sys_read.c:9
}
20015626:	853e                	mv	a0,a5
20015628:	40f2                	lw	ra,28(sp)
2001562a:	4462                	lw	s0,24(sp)
2001562c:	6105                	addi	sp,sp,32
2001562e:	8082                	ret

20015630 <_sbrk>:
_sbrk():
F:/HiFive-IoT/Workspace/sifive-hifive1-revb-hello/freedom-metal/gloss/sys_sbrk.c:22
  return 0;
}

char *
_sbrk(ptrdiff_t incr)
{
20015630:	7179                	addi	sp,sp,-48
20015632:	d622                	sw	s0,44(sp)
20015634:	1800                	addi	s0,sp,48
20015636:	fca42e23          	sw	a0,-36(s0)
F:/HiFive-IoT/Workspace/sifive-hifive1-revb-hello/freedom-metal/gloss/sys_sbrk.c:23
  char *old = brk;
2001563a:	8701a783          	lw	a5,-1936(gp) # 80000808 <brk>
2001563e:	fef42623          	sw	a5,-20(s0)
F:/HiFive-IoT/Workspace/sifive-hifive1-revb-hello/freedom-metal/gloss/sys_sbrk.c:26

  /* If __heap_size == 0, we can't allocate memory on the heap */
  if(&metal_segment_heap_target_start == &metal_segment_heap_target_end) {
20015642:	d3418713          	addi	a4,gp,-716 # 80000ccc <_sp>
20015646:	13418793          	addi	a5,gp,308 # 800010cc <metal_segment_heap_target_end>
2001564a:	00f71463          	bne	a4,a5,20015652 <_sbrk+0x22>
F:/HiFive-IoT/Workspace/sifive-hifive1-revb-hello/freedom-metal/gloss/sys_sbrk.c:27
    return NULL;
2001564e:	4781                	li	a5,0
20015650:	a805                	j	20015680 <_sbrk+0x50>
F:/HiFive-IoT/Workspace/sifive-hifive1-revb-hello/freedom-metal/gloss/sys_sbrk.c:31
  }

  /* Don't move the break past the end of the heap */
  if ((brk + incr) < &metal_segment_heap_target_end) {
20015652:	8701a703          	lw	a4,-1936(gp) # 80000808 <brk>
20015656:	fdc42783          	lw	a5,-36(s0)
2001565a:	973e                	add	a4,a4,a5
2001565c:	13418793          	addi	a5,gp,308 # 800010cc <metal_segment_heap_target_end>
20015660:	00f77a63          	bgeu	a4,a5,20015674 <_sbrk+0x44>
F:/HiFive-IoT/Workspace/sifive-hifive1-revb-hello/freedom-metal/gloss/sys_sbrk.c:32
    brk += incr;
20015664:	8701a703          	lw	a4,-1936(gp) # 80000808 <brk>
20015668:	fdc42783          	lw	a5,-36(s0)
2001566c:	973e                	add	a4,a4,a5
2001566e:	86e1a823          	sw	a4,-1936(gp) # 80000808 <brk>
20015672:	a029                	j	2001567c <_sbrk+0x4c>
F:/HiFive-IoT/Workspace/sifive-hifive1-revb-hello/freedom-metal/gloss/sys_sbrk.c:34
  } else {
    brk = &metal_segment_heap_target_end;
20015674:	13418713          	addi	a4,gp,308 # 800010cc <metal_segment_heap_target_end>
20015678:	86e1a823          	sw	a4,-1936(gp) # 80000808 <brk>
F:/HiFive-IoT/Workspace/sifive-hifive1-revb-hello/freedom-metal/gloss/sys_sbrk.c:37
  }

  return old;
2001567c:	fec42783          	lw	a5,-20(s0)
F:/HiFive-IoT/Workspace/sifive-hifive1-revb-hello/freedom-metal/gloss/sys_sbrk.c:38
}
20015680:	853e                	mv	a0,a5
20015682:	5432                	lw	s0,44(sp)
20015684:	6145                	addi	sp,sp,48
20015686:	8082                	ret

20015688 <_times>:
_times():
F:/HiFive-IoT/Workspace/sifive-hifive1-revb-hello/freedom-metal/gloss/sys_times.c:22
   children's times to zero. Eventually we might want to separately
   account for user vs system time, but for now we just return the total
   number of cycles since starting the program.  */
clock_t
_times(struct tms *buf)
{
20015688:	711d                	addi	sp,sp,-96
2001568a:	ce86                	sw	ra,92(sp)
2001568c:	cca2                	sw	s0,88(sp)
2001568e:	caca                	sw	s2,84(sp)
20015690:	c8ce                	sw	s3,80(sp)
20015692:	c6d2                	sw	s4,76(sp)
20015694:	c4d6                	sw	s5,72(sp)
20015696:	c2da                	sw	s6,68(sp)
20015698:	c0de                	sw	s7,64(sp)
2001569a:	1080                	addi	s0,sp,96
2001569c:	faa42623          	sw	a0,-84(s0)
F:/HiFive-IoT/Workspace/sifive-hifive1-revb-hello/freedom-metal/gloss/sys_times.c:26
    int rv;
    // when called for the first time, initialize t0
    static struct timeval t0;
    if (t0.tv_sec == 0 && t0.tv_usec == 0)
200156a0:	800017b7          	lui	a5,0x80001
200156a4:	8207a683          	lw	a3,-2016(a5) # 80000820 <metal_segment_heap_target_end+0xfffff754>
200156a8:	88c1a703          	lw	a4,-1908(gp) # 80000824 <t0.2031+0x4>
200156ac:	87b6                	mv	a5,a3
200156ae:	8fd9                	or	a5,a5,a4
200156b0:	ef89                	bnez	a5,200156ca <_times+0x42>
F:/HiFive-IoT/Workspace/sifive-hifive1-revb-hello/freedom-metal/gloss/sys_times.c:26 (discriminator 1)
200156b2:	800017b7          	lui	a5,0x80001
200156b6:	82078793          	addi	a5,a5,-2016 # 80000820 <metal_segment_heap_target_end+0xfffff754>
200156ba:	479c                	lw	a5,8(a5)
200156bc:	e799                	bnez	a5,200156ca <_times+0x42>
F:/HiFive-IoT/Workspace/sifive-hifive1-revb-hello/freedom-metal/gloss/sys_times.c:27
        _gettimeofday (&t0, 0);
200156be:	4581                	li	a1,0
200156c0:	800017b7          	lui	a5,0x80001
200156c4:	82078513          	addi	a0,a5,-2016 # 80000820 <metal_segment_heap_target_end+0xfffff754>
200156c8:	2a79                	jal	20015866 <_gettimeofday>
F:/HiFive-IoT/Workspace/sifive-hifive1-revb-hello/freedom-metal/gloss/sys_times.c:30

    struct timeval t;
    _gettimeofday (&t, 0);
200156ca:	fc040793          	addi	a5,s0,-64
200156ce:	4581                	li	a1,0
200156d0:	853e                	mv	a0,a5
200156d2:	2a51                	jal	20015866 <_gettimeofday>
F:/HiFive-IoT/Workspace/sifive-hifive1-revb-hello/freedom-metal/gloss/sys_times.c:33

    unsigned long long timebase;
    if (rv = metal_timer_get_timebase_frequency(0, &timebase)) {
200156d4:	fb840793          	addi	a5,s0,-72
200156d8:	85be                	mv	a1,a5
200156da:	4501                	li	a0,0
200156dc:	3f3000ef          	jal	ra,200162ce <metal_timer_get_timebase_frequency>
200156e0:	fca42e23          	sw	a0,-36(s0)
200156e4:	fdc42783          	lw	a5,-36(s0)
200156e8:	c399                	beqz	a5,200156ee <_times+0x66>
F:/HiFive-IoT/Workspace/sifive-hifive1-revb-hello/freedom-metal/gloss/sys_times.c:34
        return -1;
200156ea:	57fd                	li	a5,-1
200156ec:	a8d5                	j	200157e0 <_times+0x158>
F:/HiFive-IoT/Workspace/sifive-hifive1-revb-hello/freedom-metal/gloss/sys_times.c:37
    }

    long long utime = (t.tv_sec - t0.tv_sec) * 1000000 + (t.tv_usec - t0.tv_usec);
200156ee:	fc042783          	lw	a5,-64(s0)
200156f2:	fc442803          	lw	a6,-60(s0)
200156f6:	80001737          	lui	a4,0x80001
200156fa:	82072583          	lw	a1,-2016(a4) # 80000820 <metal_segment_heap_target_end+0xfffff754>
200156fe:	88c1a603          	lw	a2,-1908(gp) # 80000824 <t0.2031+0x4>
20015702:	40b786b3          	sub	a3,a5,a1
20015706:	8536                	mv	a0,a3
20015708:	00a7b533          	sltu	a0,a5,a0
2001570c:	40c80733          	sub	a4,a6,a2
20015710:	40a707b3          	sub	a5,a4,a0
20015714:	873e                	mv	a4,a5
20015716:	87b6                	mv	a5,a3
20015718:	883a                	mv	a6,a4
2001571a:	000f4737          	lui	a4,0xf4
2001571e:	24070713          	addi	a4,a4,576 # f4240 <__heap_size+0xf3e40>
20015722:	02e806b3          	mul	a3,a6,a4
20015726:	4701                	li	a4,0
20015728:	02e78733          	mul	a4,a5,a4
2001572c:	96ba                	add	a3,a3,a4
2001572e:	000f4737          	lui	a4,0xf4
20015732:	24070713          	addi	a4,a4,576 # f4240 <__heap_size+0xf3e40>
20015736:	02e78633          	mul	a2,a5,a4
2001573a:	02e7b9b3          	mulhu	s3,a5,a4
2001573e:	8932                	mv	s2,a2
20015740:	013687b3          	add	a5,a3,s3
20015744:	89be                	mv	s3,a5
20015746:	fc842703          	lw	a4,-56(s0)
2001574a:	800017b7          	lui	a5,0x80001
2001574e:	82078793          	addi	a5,a5,-2016 # 80000820 <metal_segment_heap_target_end+0xfffff754>
20015752:	479c                	lw	a5,8(a5)
20015754:	40f707b3          	sub	a5,a4,a5
20015758:	8b3e                	mv	s6,a5
2001575a:	87fd                	srai	a5,a5,0x1f
2001575c:	8bbe                	mv	s7,a5
2001575e:	016907b3          	add	a5,s2,s6
20015762:	873e                	mv	a4,a5
20015764:	01273733          	sltu	a4,a4,s2
20015768:	01798833          	add	a6,s3,s7
2001576c:	9742                	add	a4,a4,a6
2001576e:	883a                	mv	a6,a4
20015770:	fcf42823          	sw	a5,-48(s0)
20015774:	fd042a23          	sw	a6,-44(s0)
F:/HiFive-IoT/Workspace/sifive-hifive1-revb-hello/freedom-metal/gloss/sys_times.c:38
    buf->tms_utime = utime * timebase / 1000000;
20015778:	fd042683          	lw	a3,-48(s0)
2001577c:	fd442703          	lw	a4,-44(s0)
20015780:	fb842783          	lw	a5,-72(s0)
20015784:	fbc42803          	lw	a6,-68(s0)
20015788:	02f705b3          	mul	a1,a4,a5
2001578c:	02d80633          	mul	a2,a6,a3
20015790:	962e                	add	a2,a2,a1
20015792:	02f685b3          	mul	a1,a3,a5
20015796:	02f6bab3          	mulhu	s5,a3,a5
2001579a:	8a2e                	mv	s4,a1
2001579c:	015607b3          	add	a5,a2,s5
200157a0:	8abe                	mv	s5,a5
200157a2:	000f4637          	lui	a2,0xf4
200157a6:	24060613          	addi	a2,a2,576 # f4240 <__heap_size+0xf3e40>
200157aa:	4681                	li	a3,0
200157ac:	8552                	mv	a0,s4
200157ae:	85d6                	mv	a1,s5
200157b0:	211d                	jal	20015bd6 <__udivdi3>
200157b2:	87aa                	mv	a5,a0
200157b4:	882e                	mv	a6,a1
200157b6:	873e                	mv	a4,a5
200157b8:	fac42783          	lw	a5,-84(s0)
200157bc:	c398                	sw	a4,0(a5)
F:/HiFive-IoT/Workspace/sifive-hifive1-revb-hello/freedom-metal/gloss/sys_times.c:39
    buf->tms_stime = buf->tms_cstime = buf->tms_cutime = 0;
200157be:	fac42783          	lw	a5,-84(s0)
200157c2:	0007a423          	sw	zero,8(a5)
200157c6:	fac42783          	lw	a5,-84(s0)
200157ca:	4798                	lw	a4,8(a5)
200157cc:	fac42783          	lw	a5,-84(s0)
200157d0:	c7d8                	sw	a4,12(a5)
200157d2:	fac42783          	lw	a5,-84(s0)
200157d6:	47d8                	lw	a4,12(a5)
200157d8:	fac42783          	lw	a5,-84(s0)
200157dc:	c3d8                	sw	a4,4(a5)
F:/HiFive-IoT/Workspace/sifive-hifive1-revb-hello/freedom-metal/gloss/sys_times.c:40
    return 0;
200157de:	4781                	li	a5,0
F:/HiFive-IoT/Workspace/sifive-hifive1-revb-hello/freedom-metal/gloss/sys_times.c:41 (discriminator 1)
}
200157e0:	853e                	mv	a0,a5
200157e2:	40f6                	lw	ra,92(sp)
200157e4:	4466                	lw	s0,88(sp)
200157e6:	4956                	lw	s2,84(sp)
200157e8:	49c6                	lw	s3,80(sp)
200157ea:	4a36                	lw	s4,76(sp)
200157ec:	4aa6                	lw	s5,72(sp)
200157ee:	4b16                	lw	s6,68(sp)
200157f0:	4b86                	lw	s7,64(sp)
200157f2:	6125                	addi	sp,sp,96
200157f4:	8082                	ret

200157f6 <_write>:
_write():
F:/HiFive-IoT/Workspace/sifive-hifive1-revb-hello/freedom-metal/gloss/sys_write.c:9
#include <unistd.h>

/* Write to a file.  */
ssize_t
_write(int file, const void *ptr, size_t len)
{
200157f6:	7179                	addi	sp,sp,-48
200157f8:	d606                	sw	ra,44(sp)
200157fa:	d422                	sw	s0,40(sp)
200157fc:	1800                	addi	s0,sp,48
200157fe:	fca42e23          	sw	a0,-36(s0)
20015802:	fcb42c23          	sw	a1,-40(s0)
20015806:	fcc42a23          	sw	a2,-44(s0)
F:/HiFive-IoT/Workspace/sifive-hifive1-revb-hello/freedom-metal/gloss/sys_write.c:10
  if (file != STDOUT_FILENO) {
2001580a:	fdc42703          	lw	a4,-36(s0)
2001580e:	4785                	li	a5,1
20015810:	00f70963          	beq	a4,a5,20015822 <_write+0x2c>
F:/HiFive-IoT/Workspace/sifive-hifive1-revb-hello/freedom-metal/gloss/sys_write.c:11
    errno = ENOSYS;
20015814:	2291                	jal	20015958 <__errno>
20015816:	872a                	mv	a4,a0
20015818:	05800793          	li	a5,88
2001581c:	c31c                	sw	a5,0(a4)
F:/HiFive-IoT/Workspace/sifive-hifive1-revb-hello/freedom-metal/gloss/sys_write.c:12
    return -1;
2001581e:	57fd                	li	a5,-1
20015820:	a835                	j	2001585c <_write+0x66>
F:/HiFive-IoT/Workspace/sifive-hifive1-revb-hello/freedom-metal/gloss/sys_write.c:15
  }

  const char *bptr = ptr;
20015822:	fd842783          	lw	a5,-40(s0)
20015826:	fef42423          	sw	a5,-24(s0)
F:/HiFive-IoT/Workspace/sifive-hifive1-revb-hello/freedom-metal/gloss/sys_write.c:16
  for (size_t i = 0; i < len; ++i)
2001582a:	fe042623          	sw	zero,-20(s0)
2001582e:	a005                	j	2001584e <_write+0x58>
F:/HiFive-IoT/Workspace/sifive-hifive1-revb-hello/freedom-metal/gloss/sys_write.c:17 (discriminator 3)
    metal_tty_putc(bptr[i]);
20015830:	fe842703          	lw	a4,-24(s0)
20015834:	fec42783          	lw	a5,-20(s0)
20015838:	97ba                	add	a5,a5,a4
2001583a:	0007c783          	lbu	a5,0(a5)
2001583e:	853e                	mv	a0,a5
20015840:	2d7000ef          	jal	ra,20016316 <metal_tty_putc>
F:/HiFive-IoT/Workspace/sifive-hifive1-revb-hello/freedom-metal/gloss/sys_write.c:16 (discriminator 3)
  for (size_t i = 0; i < len; ++i)
20015844:	fec42783          	lw	a5,-20(s0)
20015848:	0785                	addi	a5,a5,1
2001584a:	fef42623          	sw	a5,-20(s0)
F:/HiFive-IoT/Workspace/sifive-hifive1-revb-hello/freedom-metal/gloss/sys_write.c:16 (discriminator 1)
2001584e:	fec42703          	lw	a4,-20(s0)
20015852:	fd442783          	lw	a5,-44(s0)
20015856:	fcf76de3          	bltu	a4,a5,20015830 <_write+0x3a>
F:/HiFive-IoT/Workspace/sifive-hifive1-revb-hello/freedom-metal/gloss/sys_write.c:18
  return 0;
2001585a:	4781                	li	a5,0
F:/HiFive-IoT/Workspace/sifive-hifive1-revb-hello/freedom-metal/gloss/sys_write.c:19
}
2001585c:	853e                	mv	a0,a5
2001585e:	50b2                	lw	ra,44(sp)
20015860:	5422                	lw	s0,40(sp)
20015862:	6145                	addi	sp,sp,48
20015864:	8082                	ret

20015866 <_gettimeofday>:
_gettimeofday():
F:/HiFive-IoT/Workspace/sifive-hifive1-revb-hello/freedom-metal/gloss/sys_gettimeofday.c:7
#include <metal/timer.h>
#include <sys/time.h>

int
_gettimeofday(struct timeval *tp, void *tzp)
{
20015866:	7139                	addi	sp,sp,-64
20015868:	de06                	sw	ra,60(sp)
2001586a:	dc22                	sw	s0,56(sp)
2001586c:	da4a                	sw	s2,52(sp)
2001586e:	d84e                	sw	s3,48(sp)
20015870:	0080                	addi	s0,sp,64
20015872:	fca42623          	sw	a0,-52(s0)
20015876:	fcb42423          	sw	a1,-56(s0)
F:/HiFive-IoT/Workspace/sifive-hifive1-revb-hello/freedom-metal/gloss/sys_gettimeofday.c:10
    int rv;
    unsigned long long mcc, timebase;
    if (rv = metal_timer_get_cyclecount(0, &mcc)) {
2001587a:	fe040793          	addi	a5,s0,-32
2001587e:	85be                	mv	a1,a5
20015880:	4501                	li	a0,0
20015882:	205000ef          	jal	ra,20016286 <metal_timer_get_cyclecount>
20015886:	fea42623          	sw	a0,-20(s0)
2001588a:	fec42783          	lw	a5,-20(s0)
2001588e:	c399                	beqz	a5,20015894 <_gettimeofday+0x2e>
F:/HiFive-IoT/Workspace/sifive-hifive1-revb-hello/freedom-metal/gloss/sys_gettimeofday.c:11
        return -1;
20015890:	57fd                	li	a5,-1
20015892:	a07d                	j	20015940 <_gettimeofday+0xda>
F:/HiFive-IoT/Workspace/sifive-hifive1-revb-hello/freedom-metal/gloss/sys_gettimeofday.c:13
    }
    if (rv = metal_timer_get_timebase_frequency(0, &timebase)) {
20015894:	fd840793          	addi	a5,s0,-40
20015898:	85be                	mv	a1,a5
2001589a:	4501                	li	a0,0
2001589c:	233000ef          	jal	ra,200162ce <metal_timer_get_timebase_frequency>
200158a0:	fea42623          	sw	a0,-20(s0)
200158a4:	fec42783          	lw	a5,-20(s0)
200158a8:	c399                	beqz	a5,200158ae <_gettimeofday+0x48>
F:/HiFive-IoT/Workspace/sifive-hifive1-revb-hello/freedom-metal/gloss/sys_gettimeofday.c:14
        return -1;
200158aa:	57fd                	li	a5,-1
200158ac:	a851                	j	20015940 <_gettimeofday+0xda>
F:/HiFive-IoT/Workspace/sifive-hifive1-revb-hello/freedom-metal/gloss/sys_gettimeofday.c:16
    }
    tp->tv_sec = mcc / timebase;
200158ae:	fe042783          	lw	a5,-32(s0)
200158b2:	fe442803          	lw	a6,-28(s0)
200158b6:	fd842683          	lw	a3,-40(s0)
200158ba:	fdc42703          	lw	a4,-36(s0)
200158be:	8636                	mv	a2,a3
200158c0:	86ba                	mv	a3,a4
200158c2:	853e                	mv	a0,a5
200158c4:	85c2                	mv	a1,a6
200158c6:	2e01                	jal	20015bd6 <__udivdi3>
200158c8:	87aa                	mv	a5,a0
200158ca:	882e                	mv	a6,a1
200158cc:	fcc42703          	lw	a4,-52(s0)
200158d0:	c31c                	sw	a5,0(a4)
200158d2:	01072223          	sw	a6,4(a4)
F:/HiFive-IoT/Workspace/sifive-hifive1-revb-hello/freedom-metal/gloss/sys_gettimeofday.c:17
    tp->tv_usec = mcc % timebase * 1000000 / timebase;
200158d6:	fe042783          	lw	a5,-32(s0)
200158da:	fe442803          	lw	a6,-28(s0)
200158de:	fd842683          	lw	a3,-40(s0)
200158e2:	fdc42703          	lw	a4,-36(s0)
200158e6:	8636                	mv	a2,a3
200158e8:	86ba                	mv	a3,a4
200158ea:	853e                	mv	a0,a5
200158ec:	85c2                	mv	a1,a6
200158ee:	2599                	jal	20015f34 <__umoddi3>
200158f0:	87aa                	mv	a5,a0
200158f2:	882e                	mv	a6,a1
200158f4:	000f4737          	lui	a4,0xf4
200158f8:	24070713          	addi	a4,a4,576 # f4240 <__heap_size+0xf3e40>
200158fc:	02e806b3          	mul	a3,a6,a4
20015900:	4701                	li	a4,0
20015902:	02e78733          	mul	a4,a5,a4
20015906:	96ba                	add	a3,a3,a4
20015908:	000f4737          	lui	a4,0xf4
2001590c:	24070713          	addi	a4,a4,576 # f4240 <__heap_size+0xf3e40>
20015910:	02e78633          	mul	a2,a5,a4
20015914:	02e7b9b3          	mulhu	s3,a5,a4
20015918:	8932                	mv	s2,a2
2001591a:	013687b3          	add	a5,a3,s3
2001591e:	89be                	mv	s3,a5
20015920:	fd842783          	lw	a5,-40(s0)
20015924:	fdc42803          	lw	a6,-36(s0)
20015928:	863e                	mv	a2,a5
2001592a:	86c2                	mv	a3,a6
2001592c:	854a                	mv	a0,s2
2001592e:	85ce                	mv	a1,s3
20015930:	245d                	jal	20015bd6 <__udivdi3>
20015932:	87aa                	mv	a5,a0
20015934:	882e                	mv	a6,a1
20015936:	873e                	mv	a4,a5
20015938:	fcc42783          	lw	a5,-52(s0)
2001593c:	c798                	sw	a4,8(a5)
F:/HiFive-IoT/Workspace/sifive-hifive1-revb-hello/freedom-metal/gloss/sys_gettimeofday.c:18
    return 0;
2001593e:	4781                	li	a5,0
F:/HiFive-IoT/Workspace/sifive-hifive1-revb-hello/freedom-metal/gloss/sys_gettimeofday.c:19 (discriminator 1)
}
20015940:	853e                	mv	a0,a5
20015942:	50f2                	lw	ra,60(sp)
20015944:	5462                	lw	s0,56(sp)
20015946:	5952                	lw	s2,52(sp)
20015948:	59c2                	lw	s3,48(sp)
2001594a:	6121                	addi	sp,sp,64
2001594c:	8082                	ret

2001594e <atexit>:
atexit():
2001594e:	85aa                	mv	a1,a0
20015950:	4681                	li	a3,0
20015952:	4601                	li	a2,0
20015954:	4501                	li	a0,0
20015956:	a231                	j	20015a62 <__register_exitproc>

20015958 <__errno>:
__errno():
20015958:	81c18793          	addi	a5,gp,-2020 # 800007b4 <_impure_ptr>
2001595c:	4388                	lw	a0,0(a5)
2001595e:	8082                	ret

20015960 <exit>:
exit():
20015960:	1141                	addi	sp,sp,-16
20015962:	c422                	sw	s0,8(sp)
20015964:	c606                	sw	ra,12(sp)
20015966:	00000797          	auipc	a5,0x0
2001596a:	18078793          	addi	a5,a5,384 # 20015ae6 <__call_exitprocs>
2001596e:	842a                	mv	s0,a0
20015970:	c399                	beqz	a5,20015976 <exit+0x16>
20015972:	4581                	li	a1,0
20015974:	2a8d                	jal	20015ae6 <__call_exitprocs>
20015976:	82018793          	addi	a5,gp,-2016 # 800007b8 <_global_impure_ptr>
2001597a:	4388                	lw	a0,0(a5)
2001597c:	551c                	lw	a5,40(a0)
2001597e:	c391                	beqz	a5,20015982 <exit+0x22>
20015980:	9782                	jalr	a5
20015982:	8522                	mv	a0,s0
20015984:	1ff000ef          	jal	ra,20016382 <_exit>

20015988 <__libc_fini_array>:
__libc_fini_array():
20015988:	1141                	addi	sp,sp,-16
2001598a:	00002797          	auipc	a5,0x2
2001598e:	85e78793          	addi	a5,a5,-1954 # 200171e8 <__fini_array_end>
20015992:	c422                	sw	s0,8(sp)
20015994:	00002417          	auipc	s0,0x2
20015998:	85440413          	addi	s0,s0,-1964 # 200171e8 <__fini_array_end>
2001599c:	8c1d                	sub	s0,s0,a5
2001599e:	c226                	sw	s1,4(sp)
200159a0:	c606                	sw	ra,12(sp)
200159a2:	8409                	srai	s0,s0,0x2
200159a4:	84be                	mv	s1,a5
200159a6:	e419                	bnez	s0,200159b4 <__libc_fini_array+0x2c>
200159a8:	4422                	lw	s0,8(sp)
200159aa:	40b2                	lw	ra,12(sp)
200159ac:	4492                	lw	s1,4(sp)
200159ae:	0141                	addi	sp,sp,16
200159b0:	fa8fa06f          	j	20010158 <_fini>
200159b4:	147d                	addi	s0,s0,-1
200159b6:	00241793          	slli	a5,s0,0x2
200159ba:	97a6                	add	a5,a5,s1
200159bc:	439c                	lw	a5,0(a5)
200159be:	9782                	jalr	a5
200159c0:	b7dd                	j	200159a6 <__libc_fini_array+0x1e>

200159c2 <__libc_init_array>:
__libc_init_array():
200159c2:	1141                	addi	sp,sp,-16
200159c4:	00002797          	auipc	a5,0x2
200159c8:	81478793          	addi	a5,a5,-2028 # 200171d8 <__init_array_start>
200159cc:	c422                	sw	s0,8(sp)
200159ce:	00002417          	auipc	s0,0x2
200159d2:	80a40413          	addi	s0,s0,-2038 # 200171d8 <__init_array_start>
200159d6:	8c1d                	sub	s0,s0,a5
200159d8:	c226                	sw	s1,4(sp)
200159da:	c04a                	sw	s2,0(sp)
200159dc:	c606                	sw	ra,12(sp)
200159de:	8409                	srai	s0,s0,0x2
200159e0:	4481                	li	s1,0
200159e2:	893e                	mv	s2,a5
200159e4:	02849863          	bne	s1,s0,20015a14 <__libc_init_array+0x52>
200159e8:	f70fa0ef          	jal	ra,20010158 <_fini>
200159ec:	00001797          	auipc	a5,0x1
200159f0:	7ec78793          	addi	a5,a5,2028 # 200171d8 <__init_array_start>
200159f4:	00001417          	auipc	s0,0x1
200159f8:	7f440413          	addi	s0,s0,2036 # 200171e8 <__fini_array_end>
200159fc:	8c1d                	sub	s0,s0,a5
200159fe:	8409                	srai	s0,s0,0x2
20015a00:	4481                	li	s1,0
20015a02:	893e                	mv	s2,a5
20015a04:	00849f63          	bne	s1,s0,20015a22 <__libc_init_array+0x60>
20015a08:	40b2                	lw	ra,12(sp)
20015a0a:	4422                	lw	s0,8(sp)
20015a0c:	4492                	lw	s1,4(sp)
20015a0e:	4902                	lw	s2,0(sp)
20015a10:	0141                	addi	sp,sp,16
20015a12:	8082                	ret
20015a14:	00249793          	slli	a5,s1,0x2
20015a18:	97ca                	add	a5,a5,s2
20015a1a:	439c                	lw	a5,0(a5)
20015a1c:	0485                	addi	s1,s1,1
20015a1e:	9782                	jalr	a5
20015a20:	b7d1                	j	200159e4 <__libc_init_array+0x22>
20015a22:	00249793          	slli	a5,s1,0x2
20015a26:	97ca                	add	a5,a5,s2
20015a28:	439c                	lw	a5,0(a5)
20015a2a:	0485                	addi	s1,s1,1
20015a2c:	9782                	jalr	a5
20015a2e:	bfd9                	j	20015a04 <__libc_init_array+0x42>

20015a30 <time>:
time():
20015a30:	1101                	addi	sp,sp,-32
20015a32:	81c18793          	addi	a5,gp,-2020 # 800007b4 <_impure_ptr>
20015a36:	cc22                	sw	s0,24(sp)
20015a38:	842a                	mv	s0,a0
20015a3a:	4388                	lw	a0,0(a5)
20015a3c:	4601                	li	a2,0
20015a3e:	858a                	mv	a1,sp
20015a40:	ce06                	sw	ra,28(sp)
20015a42:	22a5                	jal	20015baa <_gettimeofday_r>
20015a44:	00055663          	bgez	a0,20015a50 <time+0x20>
20015a48:	577d                	li	a4,-1
20015a4a:	57fd                	li	a5,-1
20015a4c:	c03a                	sw	a4,0(sp)
20015a4e:	c23e                	sw	a5,4(sp)
20015a50:	4502                	lw	a0,0(sp)
20015a52:	4592                	lw	a1,4(sp)
20015a54:	c019                	beqz	s0,20015a5a <time+0x2a>
20015a56:	c008                	sw	a0,0(s0)
20015a58:	c04c                	sw	a1,4(s0)
20015a5a:	40f2                	lw	ra,28(sp)
20015a5c:	4462                	lw	s0,24(sp)
20015a5e:	6105                	addi	sp,sp,32
20015a60:	8082                	ret

20015a62 <__register_exitproc>:
__register_exitproc():
20015a62:	5ffeb797          	auipc	a5,0x5ffeb
20015a66:	db678793          	addi	a5,a5,-586 # 80000818 <_global_atexit>
20015a6a:	439c                	lw	a5,0(a5)
20015a6c:	8e2a                	mv	t3,a0
20015a6e:	e38d                	bnez	a5,20015a90 <__register_exitproc+0x2e>
20015a70:	89818713          	addi	a4,gp,-1896 # 80000830 <_global_atexit0>
20015a74:	5ffeb797          	auipc	a5,0x5ffeb
20015a78:	dae7a223          	sw	a4,-604(a5) # 80000818 <_global_atexit>
20015a7c:	dffea517          	auipc	a0,0xdffea
20015a80:	58450513          	addi	a0,a0,1412 # 0 <__metal_boot_hart>
20015a84:	87ba                	mv	a5,a4
20015a86:	c509                	beqz	a0,20015a90 <__register_exitproc+0x2e>
20015a88:	411c                	lw	a5,0(a0)
20015a8a:	92f1a023          	sw	a5,-1760(gp) # 800008b8 <_global_atexit0+0x88>
20015a8e:	87ba                	mv	a5,a4
20015a90:	43d8                	lw	a4,4(a5)
20015a92:	487d                	li	a6,31
20015a94:	557d                	li	a0,-1
20015a96:	04e84763          	blt	a6,a4,20015ae4 <__register_exitproc+0x82>
20015a9a:	020e0e63          	beqz	t3,20015ad6 <__register_exitproc+0x74>
20015a9e:	0887a803          	lw	a6,136(a5)
20015aa2:	04080163          	beqz	a6,20015ae4 <__register_exitproc+0x82>
20015aa6:	00271893          	slli	a7,a4,0x2
20015aaa:	98c2                	add	a7,a7,a6
20015aac:	00c8a023          	sw	a2,0(a7)
20015ab0:	10082303          	lw	t1,256(a6)
20015ab4:	4605                	li	a2,1
20015ab6:	00e61633          	sll	a2,a2,a4
20015aba:	00c36333          	or	t1,t1,a2
20015abe:	10682023          	sw	t1,256(a6)
20015ac2:	08d8a023          	sw	a3,128(a7)
20015ac6:	4689                	li	a3,2
20015ac8:	00de1763          	bne	t3,a3,20015ad6 <__register_exitproc+0x74>
20015acc:	10482683          	lw	a3,260(a6)
20015ad0:	8e55                	or	a2,a2,a3
20015ad2:	10c82223          	sw	a2,260(a6)
20015ad6:	00170693          	addi	a3,a4,1
20015ada:	070a                	slli	a4,a4,0x2
20015adc:	c3d4                	sw	a3,4(a5)
20015ade:	97ba                	add	a5,a5,a4
20015ae0:	c78c                	sw	a1,8(a5)
20015ae2:	4501                	li	a0,0
20015ae4:	8082                	ret

20015ae6 <__call_exitprocs>:
__call_exitprocs():
20015ae6:	7179                	addi	sp,sp,-48
20015ae8:	cc52                	sw	s4,24(sp)
20015aea:	ca56                	sw	s5,20(sp)
20015aec:	c85a                	sw	s6,16(sp)
20015aee:	c65e                	sw	s7,12(sp)
20015af0:	d606                	sw	ra,44(sp)
20015af2:	d422                	sw	s0,40(sp)
20015af4:	d226                	sw	s1,36(sp)
20015af6:	d04a                	sw	s2,32(sp)
20015af8:	ce4e                	sw	s3,28(sp)
20015afa:	c462                	sw	s8,8(sp)
20015afc:	8b2a                	mv	s6,a0
20015afe:	8a2e                	mv	s4,a1
20015b00:	88018a93          	addi	s5,gp,-1920 # 80000818 <_global_atexit>
20015b04:	4b85                	li	s7,1
20015b06:	000aa403          	lw	s0,0(s5)
20015b0a:	c811                	beqz	s0,20015b1e <__call_exitprocs+0x38>
20015b0c:	4044                	lw	s1,4(s0)
20015b0e:	08842983          	lw	s3,136(s0)
20015b12:	fff48913          	addi	s2,s1,-1
20015b16:	048a                	slli	s1,s1,0x2
20015b18:	94a2                	add	s1,s1,s0
20015b1a:	00095e63          	bgez	s2,20015b36 <__call_exitprocs+0x50>
20015b1e:	50b2                	lw	ra,44(sp)
20015b20:	5422                	lw	s0,40(sp)
20015b22:	5492                	lw	s1,36(sp)
20015b24:	5902                	lw	s2,32(sp)
20015b26:	49f2                	lw	s3,28(sp)
20015b28:	4a62                	lw	s4,24(sp)
20015b2a:	4ad2                	lw	s5,20(sp)
20015b2c:	4b42                	lw	s6,16(sp)
20015b2e:	4bb2                	lw	s7,12(sp)
20015b30:	4c22                	lw	s8,8(sp)
20015b32:	6145                	addi	sp,sp,48
20015b34:	8082                	ret
20015b36:	000a0e63          	beqz	s4,20015b52 <__call_exitprocs+0x6c>
20015b3a:	00099563          	bnez	s3,20015b44 <__call_exitprocs+0x5e>
20015b3e:	197d                	addi	s2,s2,-1
20015b40:	14f1                	addi	s1,s1,-4
20015b42:	bfe1                	j	20015b1a <__call_exitprocs+0x34>
20015b44:	00291793          	slli	a5,s2,0x2
20015b48:	97ce                	add	a5,a5,s3
20015b4a:	0807a783          	lw	a5,128(a5)
20015b4e:	ff4798e3          	bne	a5,s4,20015b3e <__call_exitprocs+0x58>
20015b52:	4058                	lw	a4,4(s0)
20015b54:	40dc                	lw	a5,4(s1)
20015b56:	177d                	addi	a4,a4,-1
20015b58:	03271863          	bne	a4,s2,20015b88 <__call_exitprocs+0xa2>
20015b5c:	01242223          	sw	s2,4(s0)
20015b60:	dff9                	beqz	a5,20015b3e <__call_exitprocs+0x58>
20015b62:	00442c03          	lw	s8,4(s0)
20015b66:	00098863          	beqz	s3,20015b76 <__call_exitprocs+0x90>
20015b6a:	1009a683          	lw	a3,256(s3)
20015b6e:	012b9733          	sll	a4,s7,s2
20015b72:	8ef9                	and	a3,a3,a4
20015b74:	ee89                	bnez	a3,20015b8e <__call_exitprocs+0xa8>
20015b76:	9782                	jalr	a5
20015b78:	4058                	lw	a4,4(s0)
20015b7a:	000aa783          	lw	a5,0(s5)
20015b7e:	f98714e3          	bne	a4,s8,20015b06 <__call_exitprocs+0x20>
20015b82:	faf40ee3          	beq	s0,a5,20015b3e <__call_exitprocs+0x58>
20015b86:	b741                	j	20015b06 <__call_exitprocs+0x20>
20015b88:	0004a223          	sw	zero,4(s1)
20015b8c:	bfd1                	j	20015b60 <__call_exitprocs+0x7a>
20015b8e:	00291693          	slli	a3,s2,0x2
20015b92:	96ce                	add	a3,a3,s3
20015b94:	428c                	lw	a1,0(a3)
20015b96:	1049a683          	lw	a3,260(s3)
20015b9a:	8f75                	and	a4,a4,a3
20015b9c:	e701                	bnez	a4,20015ba4 <__call_exitprocs+0xbe>
20015b9e:	855a                	mv	a0,s6
20015ba0:	9782                	jalr	a5
20015ba2:	bfd9                	j	20015b78 <__call_exitprocs+0x92>
20015ba4:	852e                	mv	a0,a1
20015ba6:	9782                	jalr	a5
20015ba8:	bfc1                	j	20015b78 <__call_exitprocs+0x92>

20015baa <_gettimeofday_r>:
_gettimeofday_r():
20015baa:	1141                	addi	sp,sp,-16
20015bac:	c422                	sw	s0,8(sp)
20015bae:	842a                	mv	s0,a0
20015bb0:	852e                	mv	a0,a1
20015bb2:	85b2                	mv	a1,a2
20015bb4:	9201a823          	sw	zero,-1744(gp) # 800008c8 <errno>
20015bb8:	c606                	sw	ra,12(sp)
20015bba:	cadff0ef          	jal	ra,20015866 <_gettimeofday>
20015bbe:	57fd                	li	a5,-1
20015bc0:	00f51763          	bne	a0,a5,20015bce <_gettimeofday_r+0x24>
20015bc4:	93018793          	addi	a5,gp,-1744 # 800008c8 <errno>
20015bc8:	439c                	lw	a5,0(a5)
20015bca:	c391                	beqz	a5,20015bce <_gettimeofday_r+0x24>
20015bcc:	c01c                	sw	a5,0(s0)
20015bce:	40b2                	lw	ra,12(sp)
20015bd0:	4422                	lw	s0,8(sp)
20015bd2:	0141                	addi	sp,sp,16
20015bd4:	8082                	ret

20015bd6 <__udivdi3>:
__udivdi3():
/scratch/carsteng/freedom-tools-qemu-src/obj/x86_64-w64-mingw32/build/riscv-gnu-toolchain/build-gcc-newlib-stage2/riscv64-unknown-elf/rv32imac/ilp32/libgcc/../../../../../riscv-gcc/libgcc/libgcc2.c:1319
20015bd6:	87ae                	mv	a5,a1
/scratch/carsteng/freedom-tools-qemu-src/obj/x86_64-w64-mingw32/build/riscv-gnu-toolchain/build-gcc-newlib-stage2/riscv64-unknown-elf/rv32imac/ilp32/libgcc/../../../../../riscv-gcc/libgcc/libgcc2.c:1024
20015bd8:	8832                	mv	a6,a2
/scratch/carsteng/freedom-tools-qemu-src/obj/x86_64-w64-mingw32/build/riscv-gnu-toolchain/build-gcc-newlib-stage2/riscv64-unknown-elf/rv32imac/ilp32/libgcc/../../../../../riscv-gcc/libgcc/libgcc2.c:1025
20015bda:	8736                	mv	a4,a3
/scratch/carsteng/freedom-tools-qemu-src/obj/x86_64-w64-mingw32/build/riscv-gnu-toolchain/build-gcc-newlib-stage2/riscv64-unknown-elf/rv32imac/ilp32/libgcc/../../../../../riscv-gcc/libgcc/libgcc2.c:1026
20015bdc:	832a                	mv	t1,a0
/scratch/carsteng/freedom-tools-qemu-src/obj/x86_64-w64-mingw32/build/riscv-gnu-toolchain/build-gcc-newlib-stage2/riscv64-unknown-elf/rv32imac/ilp32/libgcc/../../../../../riscv-gcc/libgcc/libgcc2.c:1064
20015bde:	20069663          	bnez	a3,20015dea <__udivdi3+0x214>
/scratch/carsteng/freedom-tools-qemu-src/obj/x86_64-w64-mingw32/build/riscv-gnu-toolchain/build-gcc-newlib-stage2/riscv64-unknown-elf/rv32imac/ilp32/libgcc/../../../../../riscv-gcc/libgcc/libgcc2.c:1066
20015be2:	00001897          	auipc	a7,0x1
20015be6:	4f688893          	addi	a7,a7,1270 # 200170d8 <__clz_tab>
20015bea:	0ac5fe63          	bgeu	a1,a2,20015ca6 <__udivdi3+0xd0>
/scratch/carsteng/freedom-tools-qemu-src/obj/x86_64-w64-mingw32/build/riscv-gnu-toolchain/build-gcc-newlib-stage2/riscv64-unknown-elf/rv32imac/ilp32/libgcc/../../../../../riscv-gcc/libgcc/libgcc2.c:1070
20015bee:	6741                	lui	a4,0x10
20015bf0:	0ae67463          	bgeu	a2,a4,20015c98 <__udivdi3+0xc2>
20015bf4:	0ff00713          	li	a4,255
20015bf8:	00c73733          	sltu	a4,a4,a2
20015bfc:	070e                	slli	a4,a4,0x3
20015bfe:	00e656b3          	srl	a3,a2,a4
20015c02:	98b6                	add	a7,a7,a3
20015c04:	0008c683          	lbu	a3,0(a7)
20015c08:	9736                	add	a4,a4,a3
20015c0a:	02000693          	li	a3,32
20015c0e:	8e99                	sub	a3,a3,a4
/scratch/carsteng/freedom-tools-qemu-src/obj/x86_64-w64-mingw32/build/riscv-gnu-toolchain/build-gcc-newlib-stage2/riscv64-unknown-elf/rv32imac/ilp32/libgcc/../../../../../riscv-gcc/libgcc/libgcc2.c:1072
20015c10:	ca99                	beqz	a3,20015c26 <__udivdi3+0x50>
/scratch/carsteng/freedom-tools-qemu-src/obj/x86_64-w64-mingw32/build/riscv-gnu-toolchain/build-gcc-newlib-stage2/riscv64-unknown-elf/rv32imac/ilp32/libgcc/../../../../../riscv-gcc/libgcc/libgcc2.c:1078
20015c12:	00d797b3          	sll	a5,a5,a3
20015c16:	00e55733          	srl	a4,a0,a4
/scratch/carsteng/freedom-tools-qemu-src/obj/x86_64-w64-mingw32/build/riscv-gnu-toolchain/build-gcc-newlib-stage2/riscv64-unknown-elf/rv32imac/ilp32/libgcc/../../../../../riscv-gcc/libgcc/libgcc2.c:1077
20015c1a:	00d61833          	sll	a6,a2,a3
/scratch/carsteng/freedom-tools-qemu-src/obj/x86_64-w64-mingw32/build/riscv-gnu-toolchain/build-gcc-newlib-stage2/riscv64-unknown-elf/rv32imac/ilp32/libgcc/../../../../../riscv-gcc/libgcc/libgcc2.c:1078
20015c1e:	00f765b3          	or	a1,a4,a5
/scratch/carsteng/freedom-tools-qemu-src/obj/x86_64-w64-mingw32/build/riscv-gnu-toolchain/build-gcc-newlib-stage2/riscv64-unknown-elf/rv32imac/ilp32/libgcc/../../../../../riscv-gcc/libgcc/libgcc2.c:1079
20015c22:	00d51333          	sll	t1,a0,a3
/scratch/carsteng/freedom-tools-qemu-src/obj/x86_64-w64-mingw32/build/riscv-gnu-toolchain/build-gcc-newlib-stage2/riscv64-unknown-elf/rv32imac/ilp32/libgcc/../../../../../riscv-gcc/libgcc/libgcc2.c:1082
20015c26:	01085513          	srli	a0,a6,0x10
20015c2a:	02a5f733          	remu	a4,a1,a0
20015c2e:	01081613          	slli	a2,a6,0x10
20015c32:	8241                	srli	a2,a2,0x10
20015c34:	01035693          	srli	a3,t1,0x10
20015c38:	02a5d5b3          	divu	a1,a1,a0
20015c3c:	0742                	slli	a4,a4,0x10
20015c3e:	8ed9                	or	a3,a3,a4
20015c40:	02b607b3          	mul	a5,a2,a1
20015c44:	872e                	mv	a4,a1
20015c46:	00f6fc63          	bgeu	a3,a5,20015c5e <__udivdi3+0x88>
20015c4a:	96c2                	add	a3,a3,a6
20015c4c:	fff58713          	addi	a4,a1,-1
20015c50:	0106e763          	bltu	a3,a6,20015c5e <__udivdi3+0x88>
20015c54:	00f6f563          	bgeu	a3,a5,20015c5e <__udivdi3+0x88>
20015c58:	ffe58713          	addi	a4,a1,-2
20015c5c:	96c2                	add	a3,a3,a6
20015c5e:	8e9d                	sub	a3,a3,a5
20015c60:	02a6f7b3          	remu	a5,a3,a0
20015c64:	0342                	slli	t1,t1,0x10
20015c66:	01035313          	srli	t1,t1,0x10
20015c6a:	02a6d6b3          	divu	a3,a3,a0
20015c6e:	07c2                	slli	a5,a5,0x10
20015c70:	0067e333          	or	t1,a5,t1
20015c74:	02d605b3          	mul	a1,a2,a3
20015c78:	8536                	mv	a0,a3
20015c7a:	00b37b63          	bgeu	t1,a1,20015c90 <__udivdi3+0xba>
20015c7e:	9342                	add	t1,t1,a6
20015c80:	fff68513          	addi	a0,a3,-1
20015c84:	01036663          	bltu	t1,a6,20015c90 <__udivdi3+0xba>
20015c88:	00b37463          	bgeu	t1,a1,20015c90 <__udivdi3+0xba>
20015c8c:	ffe68513          	addi	a0,a3,-2
20015c90:	0742                	slli	a4,a4,0x10
20015c92:	8f49                	or	a4,a4,a0
/scratch/carsteng/freedom-tools-qemu-src/obj/x86_64-w64-mingw32/build/riscv-gnu-toolchain/build-gcc-newlib-stage2/riscv64-unknown-elf/rv32imac/ilp32/libgcc/../../../../../riscv-gcc/libgcc/libgcc2.c:1209
20015c94:	4581                	li	a1,0
20015c96:	a84d                	j	20015d48 <__udivdi3+0x172>
/scratch/carsteng/freedom-tools-qemu-src/obj/x86_64-w64-mingw32/build/riscv-gnu-toolchain/build-gcc-newlib-stage2/riscv64-unknown-elf/rv32imac/ilp32/libgcc/../../../../../riscv-gcc/libgcc/libgcc2.c:1070
20015c98:	010006b7          	lui	a3,0x1000
20015c9c:	4741                	li	a4,16
20015c9e:	f6d660e3          	bltu	a2,a3,20015bfe <__udivdi3+0x28>
20015ca2:	4761                	li	a4,24
20015ca4:	bfa9                	j	20015bfe <__udivdi3+0x28>
/scratch/carsteng/freedom-tools-qemu-src/obj/x86_64-w64-mingw32/build/riscv-gnu-toolchain/build-gcc-newlib-stage2/riscv64-unknown-elf/rv32imac/ilp32/libgcc/../../../../../riscv-gcc/libgcc/libgcc2.c:1091
20015ca6:	e601                	bnez	a2,20015cae <__udivdi3+0xd8>
/scratch/carsteng/freedom-tools-qemu-src/obj/x86_64-w64-mingw32/build/riscv-gnu-toolchain/build-gcc-newlib-stage2/riscv64-unknown-elf/rv32imac/ilp32/libgcc/../../../../../riscv-gcc/libgcc/libgcc2.c:1092
20015ca8:	4685                	li	a3,1
20015caa:	02c6d833          	divu	a6,a3,a2
/scratch/carsteng/freedom-tools-qemu-src/obj/x86_64-w64-mingw32/build/riscv-gnu-toolchain/build-gcc-newlib-stage2/riscv64-unknown-elf/rv32imac/ilp32/libgcc/../../../../../riscv-gcc/libgcc/libgcc2.c:1094
20015cae:	66c1                	lui	a3,0x10
20015cb0:	08d87e63          	bgeu	a6,a3,20015d4c <__udivdi3+0x176>
20015cb4:	0ff00693          	li	a3,255
20015cb8:	0106f363          	bgeu	a3,a6,20015cbe <__udivdi3+0xe8>
20015cbc:	4721                	li	a4,8
20015cbe:	00e856b3          	srl	a3,a6,a4
20015cc2:	98b6                	add	a7,a7,a3
20015cc4:	0008c683          	lbu	a3,0(a7)
20015cc8:	96ba                	add	a3,a3,a4
20015cca:	02000713          	li	a4,32
20015cce:	8f15                	sub	a4,a4,a3
/scratch/carsteng/freedom-tools-qemu-src/obj/x86_64-w64-mingw32/build/riscv-gnu-toolchain/build-gcc-newlib-stage2/riscv64-unknown-elf/rv32imac/ilp32/libgcc/../../../../../riscv-gcc/libgcc/libgcc2.c:1096
20015cd0:	e749                	bnez	a4,20015d5a <__udivdi3+0x184>
/scratch/carsteng/freedom-tools-qemu-src/obj/x86_64-w64-mingw32/build/riscv-gnu-toolchain/build-gcc-newlib-stage2/riscv64-unknown-elf/rv32imac/ilp32/libgcc/../../../../../riscv-gcc/libgcc/libgcc2.c:1105
20015cd2:	410787b3          	sub	a5,a5,a6
/scratch/carsteng/freedom-tools-qemu-src/obj/x86_64-w64-mingw32/build/riscv-gnu-toolchain/build-gcc-newlib-stage2/riscv64-unknown-elf/rv32imac/ilp32/libgcc/../../../../../riscv-gcc/libgcc/libgcc2.c:1106
20015cd6:	4585                	li	a1,1
/scratch/carsteng/freedom-tools-qemu-src/obj/x86_64-w64-mingw32/build/riscv-gnu-toolchain/build-gcc-newlib-stage2/riscv64-unknown-elf/rv32imac/ilp32/libgcc/../../../../../riscv-gcc/libgcc/libgcc2.c:1124
20015cd8:	01085613          	srli	a2,a6,0x10
20015cdc:	01081893          	slli	a7,a6,0x10
20015ce0:	0108d893          	srli	a7,a7,0x10
20015ce4:	01035693          	srli	a3,t1,0x10
20015ce8:	02c7f733          	remu	a4,a5,a2
20015cec:	02c7d7b3          	divu	a5,a5,a2
20015cf0:	0742                	slli	a4,a4,0x10
20015cf2:	8ed9                	or	a3,a3,a4
20015cf4:	02f88533          	mul	a0,a7,a5
20015cf8:	873e                	mv	a4,a5
20015cfa:	00a6fc63          	bgeu	a3,a0,20015d12 <__udivdi3+0x13c>
20015cfe:	96c2                	add	a3,a3,a6
20015d00:	fff78713          	addi	a4,a5,-1
20015d04:	0106e763          	bltu	a3,a6,20015d12 <__udivdi3+0x13c>
20015d08:	00a6f563          	bgeu	a3,a0,20015d12 <__udivdi3+0x13c>
20015d0c:	ffe78713          	addi	a4,a5,-2
20015d10:	96c2                	add	a3,a3,a6
20015d12:	8e89                	sub	a3,a3,a0
20015d14:	02c6f7b3          	remu	a5,a3,a2
20015d18:	0342                	slli	t1,t1,0x10
20015d1a:	01035313          	srli	t1,t1,0x10
20015d1e:	02c6d6b3          	divu	a3,a3,a2
20015d22:	07c2                	slli	a5,a5,0x10
20015d24:	0067e333          	or	t1,a5,t1
20015d28:	02d888b3          	mul	a7,a7,a3
20015d2c:	8536                	mv	a0,a3
20015d2e:	01137b63          	bgeu	t1,a7,20015d44 <__udivdi3+0x16e>
20015d32:	9342                	add	t1,t1,a6
20015d34:	fff68513          	addi	a0,a3,-1 # ffff <__heap_size+0xfbff>
20015d38:	01036663          	bltu	t1,a6,20015d44 <__udivdi3+0x16e>
20015d3c:	01137463          	bgeu	t1,a7,20015d44 <__udivdi3+0x16e>
20015d40:	ffe68513          	addi	a0,a3,-2
20015d44:	0742                	slli	a4,a4,0x10
20015d46:	8f49                	or	a4,a4,a0
/scratch/carsteng/freedom-tools-qemu-src/obj/x86_64-w64-mingw32/build/riscv-gnu-toolchain/build-gcc-newlib-stage2/riscv64-unknown-elf/rv32imac/ilp32/libgcc/../../../../../riscv-gcc/libgcc/libgcc2.c:1321
20015d48:	853a                	mv	a0,a4
20015d4a:	8082                	ret
/scratch/carsteng/freedom-tools-qemu-src/obj/x86_64-w64-mingw32/build/riscv-gnu-toolchain/build-gcc-newlib-stage2/riscv64-unknown-elf/rv32imac/ilp32/libgcc/../../../../../riscv-gcc/libgcc/libgcc2.c:1094
20015d4c:	010006b7          	lui	a3,0x1000
20015d50:	4741                	li	a4,16
20015d52:	f6d866e3          	bltu	a6,a3,20015cbe <__udivdi3+0xe8>
20015d56:	4761                	li	a4,24
20015d58:	b79d                	j	20015cbe <__udivdi3+0xe8>
/scratch/carsteng/freedom-tools-qemu-src/obj/x86_64-w64-mingw32/build/riscv-gnu-toolchain/build-gcc-newlib-stage2/riscv64-unknown-elf/rv32imac/ilp32/libgcc/../../../../../riscv-gcc/libgcc/libgcc2.c:1114
20015d5a:	00e81833          	sll	a6,a6,a4
/scratch/carsteng/freedom-tools-qemu-src/obj/x86_64-w64-mingw32/build/riscv-gnu-toolchain/build-gcc-newlib-stage2/riscv64-unknown-elf/rv32imac/ilp32/libgcc/../../../../../riscv-gcc/libgcc/libgcc2.c:1115
20015d5e:	00d7d5b3          	srl	a1,a5,a3
/scratch/carsteng/freedom-tools-qemu-src/obj/x86_64-w64-mingw32/build/riscv-gnu-toolchain/build-gcc-newlib-stage2/riscv64-unknown-elf/rv32imac/ilp32/libgcc/../../../../../riscv-gcc/libgcc/libgcc2.c:1117
20015d62:	00e51333          	sll	t1,a0,a4
/scratch/carsteng/freedom-tools-qemu-src/obj/x86_64-w64-mingw32/build/riscv-gnu-toolchain/build-gcc-newlib-stage2/riscv64-unknown-elf/rv32imac/ilp32/libgcc/../../../../../riscv-gcc/libgcc/libgcc2.c:1116
20015d66:	00d556b3          	srl	a3,a0,a3
/scratch/carsteng/freedom-tools-qemu-src/obj/x86_64-w64-mingw32/build/riscv-gnu-toolchain/build-gcc-newlib-stage2/riscv64-unknown-elf/rv32imac/ilp32/libgcc/../../../../../riscv-gcc/libgcc/libgcc2.c:1119
20015d6a:	01085513          	srli	a0,a6,0x10
/scratch/carsteng/freedom-tools-qemu-src/obj/x86_64-w64-mingw32/build/riscv-gnu-toolchain/build-gcc-newlib-stage2/riscv64-unknown-elf/rv32imac/ilp32/libgcc/../../../../../riscv-gcc/libgcc/libgcc2.c:1116
20015d6e:	00e797b3          	sll	a5,a5,a4
/scratch/carsteng/freedom-tools-qemu-src/obj/x86_64-w64-mingw32/build/riscv-gnu-toolchain/build-gcc-newlib-stage2/riscv64-unknown-elf/rv32imac/ilp32/libgcc/../../../../../riscv-gcc/libgcc/libgcc2.c:1119
20015d72:	02a5f733          	remu	a4,a1,a0
/scratch/carsteng/freedom-tools-qemu-src/obj/x86_64-w64-mingw32/build/riscv-gnu-toolchain/build-gcc-newlib-stage2/riscv64-unknown-elf/rv32imac/ilp32/libgcc/../../../../../riscv-gcc/libgcc/libgcc2.c:1116
20015d76:	00f6e8b3          	or	a7,a3,a5
/scratch/carsteng/freedom-tools-qemu-src/obj/x86_64-w64-mingw32/build/riscv-gnu-toolchain/build-gcc-newlib-stage2/riscv64-unknown-elf/rv32imac/ilp32/libgcc/../../../../../riscv-gcc/libgcc/libgcc2.c:1119
20015d7a:	01081793          	slli	a5,a6,0x10
20015d7e:	83c1                	srli	a5,a5,0x10
20015d80:	0108d613          	srli	a2,a7,0x10
20015d84:	02a5d5b3          	divu	a1,a1,a0
20015d88:	0742                	slli	a4,a4,0x10
20015d8a:	8f51                	or	a4,a4,a2
20015d8c:	02b786b3          	mul	a3,a5,a1
20015d90:	862e                	mv	a2,a1
20015d92:	00d77c63          	bgeu	a4,a3,20015daa <__udivdi3+0x1d4>
20015d96:	9742                	add	a4,a4,a6
20015d98:	fff58613          	addi	a2,a1,-1
20015d9c:	01076763          	bltu	a4,a6,20015daa <__udivdi3+0x1d4>
20015da0:	00d77563          	bgeu	a4,a3,20015daa <__udivdi3+0x1d4>
20015da4:	ffe58613          	addi	a2,a1,-2
20015da8:	9742                	add	a4,a4,a6
20015daa:	40d706b3          	sub	a3,a4,a3
20015dae:	02a6f733          	remu	a4,a3,a0
20015db2:	08c2                	slli	a7,a7,0x10
20015db4:	0108d893          	srli	a7,a7,0x10
20015db8:	02a6d6b3          	divu	a3,a3,a0
20015dbc:	0742                	slli	a4,a4,0x10
20015dbe:	02d785b3          	mul	a1,a5,a3
20015dc2:	011767b3          	or	a5,a4,a7
20015dc6:	8736                	mv	a4,a3
20015dc8:	00b7fc63          	bgeu	a5,a1,20015de0 <__udivdi3+0x20a>
20015dcc:	97c2                	add	a5,a5,a6
20015dce:	fff68713          	addi	a4,a3,-1 # ffffff <__heap_size+0xfffbff>
20015dd2:	0107e763          	bltu	a5,a6,20015de0 <__udivdi3+0x20a>
20015dd6:	00b7f563          	bgeu	a5,a1,20015de0 <__udivdi3+0x20a>
20015dda:	ffe68713          	addi	a4,a3,-2
20015dde:	97c2                	add	a5,a5,a6
20015de0:	8f8d                	sub	a5,a5,a1
20015de2:	01061593          	slli	a1,a2,0x10
20015de6:	8dd9                	or	a1,a1,a4
20015de8:	bdc5                	j	20015cd8 <__udivdi3+0x102>
/scratch/carsteng/freedom-tools-qemu-src/obj/x86_64-w64-mingw32/build/riscv-gnu-toolchain/build-gcc-newlib-stage2/riscv64-unknown-elf/rv32imac/ilp32/libgcc/../../../../../riscv-gcc/libgcc/libgcc2.c:1140
20015dea:	14d5e263          	bltu	a1,a3,20015f2e <__udivdi3+0x358>
/scratch/carsteng/freedom-tools-qemu-src/obj/x86_64-w64-mingw32/build/riscv-gnu-toolchain/build-gcc-newlib-stage2/riscv64-unknown-elf/rv32imac/ilp32/libgcc/../../../../../riscv-gcc/libgcc/libgcc2.c:1159
20015dee:	6741                	lui	a4,0x10
20015df0:	02e6fe63          	bgeu	a3,a4,20015e2c <__udivdi3+0x256>
20015df4:	0ff00813          	li	a6,255
20015df8:	00d83733          	sltu	a4,a6,a3
20015dfc:	070e                	slli	a4,a4,0x3
20015dfe:	00e6d833          	srl	a6,a3,a4
20015e02:	00001597          	auipc	a1,0x1
20015e06:	2d658593          	addi	a1,a1,726 # 200170d8 <__clz_tab>
20015e0a:	95c2                	add	a1,a1,a6
20015e0c:	0005c803          	lbu	a6,0(a1)
20015e10:	02000593          	li	a1,32
20015e14:	983a                	add	a6,a6,a4
20015e16:	410585b3          	sub	a1,a1,a6
/scratch/carsteng/freedom-tools-qemu-src/obj/x86_64-w64-mingw32/build/riscv-gnu-toolchain/build-gcc-newlib-stage2/riscv64-unknown-elf/rv32imac/ilp32/libgcc/../../../../../riscv-gcc/libgcc/libgcc2.c:1160
20015e1a:	e185                	bnez	a1,20015e3a <__udivdi3+0x264>
/scratch/carsteng/freedom-tools-qemu-src/obj/x86_64-w64-mingw32/build/riscv-gnu-toolchain/build-gcc-newlib-stage2/riscv64-unknown-elf/rv32imac/ilp32/libgcc/../../../../../riscv-gcc/libgcc/libgcc2.c:1172
20015e1c:	4705                	li	a4,1
/scratch/carsteng/freedom-tools-qemu-src/obj/x86_64-w64-mingw32/build/riscv-gnu-toolchain/build-gcc-newlib-stage2/riscv64-unknown-elf/rv32imac/ilp32/libgcc/../../../../../riscv-gcc/libgcc/libgcc2.c:1170
20015e1e:	f2f6e5e3          	bltu	a3,a5,20015d48 <__udivdi3+0x172>
20015e22:	00c53533          	sltu	a0,a0,a2
20015e26:	00154713          	xori	a4,a0,1
20015e2a:	bf39                	j	20015d48 <__udivdi3+0x172>
/scratch/carsteng/freedom-tools-qemu-src/obj/x86_64-w64-mingw32/build/riscv-gnu-toolchain/build-gcc-newlib-stage2/riscv64-unknown-elf/rv32imac/ilp32/libgcc/../../../../../riscv-gcc/libgcc/libgcc2.c:1159
20015e2c:	010005b7          	lui	a1,0x1000
20015e30:	4741                	li	a4,16
20015e32:	fcb6e6e3          	bltu	a3,a1,20015dfe <__udivdi3+0x228>
20015e36:	4761                	li	a4,24
20015e38:	b7d9                	j	20015dfe <__udivdi3+0x228>
/scratch/carsteng/freedom-tools-qemu-src/obj/x86_64-w64-mingw32/build/riscv-gnu-toolchain/build-gcc-newlib-stage2/riscv64-unknown-elf/rv32imac/ilp32/libgcc/../../../../../riscv-gcc/libgcc/libgcc2.c:1194
20015e3a:	01065733          	srl	a4,a2,a6
20015e3e:	00b696b3          	sll	a3,a3,a1
20015e42:	8ed9                	or	a3,a3,a4
/scratch/carsteng/freedom-tools-qemu-src/obj/x86_64-w64-mingw32/build/riscv-gnu-toolchain/build-gcc-newlib-stage2/riscv64-unknown-elf/rv32imac/ilp32/libgcc/../../../../../riscv-gcc/libgcc/libgcc2.c:1200
20015e44:	0106de93          	srli	t4,a3,0x10
/scratch/carsteng/freedom-tools-qemu-src/obj/x86_64-w64-mingw32/build/riscv-gnu-toolchain/build-gcc-newlib-stage2/riscv64-unknown-elf/rv32imac/ilp32/libgcc/../../../../../riscv-gcc/libgcc/libgcc2.c:1196
20015e48:	0107d733          	srl	a4,a5,a6
/scratch/carsteng/freedom-tools-qemu-src/obj/x86_64-w64-mingw32/build/riscv-gnu-toolchain/build-gcc-newlib-stage2/riscv64-unknown-elf/rv32imac/ilp32/libgcc/../../../../../riscv-gcc/libgcc/libgcc2.c:1200
20015e4c:	03d778b3          	remu	a7,a4,t4
/scratch/carsteng/freedom-tools-qemu-src/obj/x86_64-w64-mingw32/build/riscv-gnu-toolchain/build-gcc-newlib-stage2/riscv64-unknown-elf/rv32imac/ilp32/libgcc/../../../../../riscv-gcc/libgcc/libgcc2.c:1197
20015e50:	00b797b3          	sll	a5,a5,a1
20015e54:	01055833          	srl	a6,a0,a6
20015e58:	00f86333          	or	t1,a6,a5
/scratch/carsteng/freedom-tools-qemu-src/obj/x86_64-w64-mingw32/build/riscv-gnu-toolchain/build-gcc-newlib-stage2/riscv64-unknown-elf/rv32imac/ilp32/libgcc/../../../../../riscv-gcc/libgcc/libgcc2.c:1200
20015e5c:	01069793          	slli	a5,a3,0x10
20015e60:	83c1                	srli	a5,a5,0x10
20015e62:	01035813          	srli	a6,t1,0x10
/scratch/carsteng/freedom-tools-qemu-src/obj/x86_64-w64-mingw32/build/riscv-gnu-toolchain/build-gcc-newlib-stage2/riscv64-unknown-elf/rv32imac/ilp32/libgcc/../../../../../riscv-gcc/libgcc/libgcc2.c:1195
20015e66:	00b61633          	sll	a2,a2,a1
/scratch/carsteng/freedom-tools-qemu-src/obj/x86_64-w64-mingw32/build/riscv-gnu-toolchain/build-gcc-newlib-stage2/riscv64-unknown-elf/rv32imac/ilp32/libgcc/../../../../../riscv-gcc/libgcc/libgcc2.c:1200
20015e6a:	03d75733          	divu	a4,a4,t4
20015e6e:	08c2                	slli	a7,a7,0x10
20015e70:	0108e833          	or	a6,a7,a6
20015e74:	02e78f33          	mul	t5,a5,a4
20015e78:	8e3a                	mv	t3,a4
20015e7a:	01e87c63          	bgeu	a6,t5,20015e92 <__udivdi3+0x2bc>
20015e7e:	9836                	add	a6,a6,a3
20015e80:	fff70e13          	addi	t3,a4,-1 # ffff <__heap_size+0xfbff>
20015e84:	00d86763          	bltu	a6,a3,20015e92 <__udivdi3+0x2bc>
20015e88:	01e87563          	bgeu	a6,t5,20015e92 <__udivdi3+0x2bc>
20015e8c:	ffe70e13          	addi	t3,a4,-2
20015e90:	9836                	add	a6,a6,a3
20015e92:	41e80833          	sub	a6,a6,t5
20015e96:	03d878b3          	remu	a7,a6,t4
20015e9a:	03d85833          	divu	a6,a6,t4
20015e9e:	08c2                	slli	a7,a7,0x10
20015ea0:	03078eb3          	mul	t4,a5,a6
20015ea4:	01031793          	slli	a5,t1,0x10
20015ea8:	83c1                	srli	a5,a5,0x10
20015eaa:	00f8e7b3          	or	a5,a7,a5
20015eae:	8742                	mv	a4,a6
20015eb0:	01d7fc63          	bgeu	a5,t4,20015ec8 <__udivdi3+0x2f2>
20015eb4:	97b6                	add	a5,a5,a3
20015eb6:	fff80713          	addi	a4,a6,-1
20015eba:	00d7e763          	bltu	a5,a3,20015ec8 <__udivdi3+0x2f2>
20015ebe:	01d7f563          	bgeu	a5,t4,20015ec8 <__udivdi3+0x2f2>
20015ec2:	ffe80713          	addi	a4,a6,-2
20015ec6:	97b6                	add	a5,a5,a3
20015ec8:	0e42                	slli	t3,t3,0x10
20015eca:	41d787b3          	sub	a5,a5,t4
/scratch/carsteng/freedom-tools-qemu-src/obj/x86_64-w64-mingw32/build/riscv-gnu-toolchain/build-gcc-newlib-stage2/riscv64-unknown-elf/rv32imac/ilp32/libgcc/../../../../../riscv-gcc/libgcc/libgcc2.c:1201
20015ece:	6ec1                	lui	t4,0x10
/scratch/carsteng/freedom-tools-qemu-src/obj/x86_64-w64-mingw32/build/riscv-gnu-toolchain/build-gcc-newlib-stage2/riscv64-unknown-elf/rv32imac/ilp32/libgcc/../../../../../riscv-gcc/libgcc/libgcc2.c:1200
20015ed0:	00ee6733          	or	a4,t3,a4
/scratch/carsteng/freedom-tools-qemu-src/obj/x86_64-w64-mingw32/build/riscv-gnu-toolchain/build-gcc-newlib-stage2/riscv64-unknown-elf/rv32imac/ilp32/libgcc/../../../../../riscv-gcc/libgcc/libgcc2.c:1201
20015ed4:	fffe8813          	addi	a6,t4,-1 # ffff <__heap_size+0xfbff>
20015ed8:	01077333          	and	t1,a4,a6
20015edc:	01075893          	srli	a7,a4,0x10
20015ee0:	01067833          	and	a6,a2,a6
20015ee4:	8241                	srli	a2,a2,0x10
20015ee6:	03030e33          	mul	t3,t1,a6
20015eea:	03088833          	mul	a6,a7,a6
20015eee:	010e5693          	srli	a3,t3,0x10
20015ef2:	02c30333          	mul	t1,t1,a2
20015ef6:	9342                	add	t1,t1,a6
20015ef8:	969a                	add	a3,a3,t1
20015efa:	02c888b3          	mul	a7,a7,a2
20015efe:	0106f363          	bgeu	a3,a6,20015f04 <__udivdi3+0x32e>
20015f02:	98f6                	add	a7,a7,t4
20015f04:	0106d613          	srli	a2,a3,0x10
20015f08:	98b2                	add	a7,a7,a2
/scratch/carsteng/freedom-tools-qemu-src/obj/x86_64-w64-mingw32/build/riscv-gnu-toolchain/build-gcc-newlib-stage2/riscv64-unknown-elf/rv32imac/ilp32/libgcc/../../../../../riscv-gcc/libgcc/libgcc2.c:1203
20015f0a:	0317e063          	bltu	a5,a7,20015f2a <__udivdi3+0x354>
20015f0e:	d91793e3          	bne	a5,a7,20015c94 <__udivdi3+0xbe>
/scratch/carsteng/freedom-tools-qemu-src/obj/x86_64-w64-mingw32/build/riscv-gnu-toolchain/build-gcc-newlib-stage2/riscv64-unknown-elf/rv32imac/ilp32/libgcc/../../../../../riscv-gcc/libgcc/libgcc2.c:1201
20015f12:	67c1                	lui	a5,0x10
20015f14:	17fd                	addi	a5,a5,-1
20015f16:	8efd                	and	a3,a3,a5
20015f18:	06c2                	slli	a3,a3,0x10
20015f1a:	00fe7e33          	and	t3,t3,a5
/scratch/carsteng/freedom-tools-qemu-src/obj/x86_64-w64-mingw32/build/riscv-gnu-toolchain/build-gcc-newlib-stage2/riscv64-unknown-elf/rv32imac/ilp32/libgcc/../../../../../riscv-gcc/libgcc/libgcc2.c:1198
20015f1e:	00b51533          	sll	a0,a0,a1
/scratch/carsteng/freedom-tools-qemu-src/obj/x86_64-w64-mingw32/build/riscv-gnu-toolchain/build-gcc-newlib-stage2/riscv64-unknown-elf/rv32imac/ilp32/libgcc/../../../../../riscv-gcc/libgcc/libgcc2.c:1201
20015f22:	96f2                	add	a3,a3,t3
/scratch/carsteng/freedom-tools-qemu-src/obj/x86_64-w64-mingw32/build/riscv-gnu-toolchain/build-gcc-newlib-stage2/riscv64-unknown-elf/rv32imac/ilp32/libgcc/../../../../../riscv-gcc/libgcc/libgcc2.c:1209
20015f24:	4581                	li	a1,0
/scratch/carsteng/freedom-tools-qemu-src/obj/x86_64-w64-mingw32/build/riscv-gnu-toolchain/build-gcc-newlib-stage2/riscv64-unknown-elf/rv32imac/ilp32/libgcc/../../../../../riscv-gcc/libgcc/libgcc2.c:1203
20015f26:	e2d571e3          	bgeu	a0,a3,20015d48 <__udivdi3+0x172>
/scratch/carsteng/freedom-tools-qemu-src/obj/x86_64-w64-mingw32/build/riscv-gnu-toolchain/build-gcc-newlib-stage2/riscv64-unknown-elf/rv32imac/ilp32/libgcc/../../../../../riscv-gcc/libgcc/libgcc2.c:1205
20015f2a:	177d                	addi	a4,a4,-1
/scratch/carsteng/freedom-tools-qemu-src/obj/x86_64-w64-mingw32/build/riscv-gnu-toolchain/build-gcc-newlib-stage2/riscv64-unknown-elf/rv32imac/ilp32/libgcc/../../../../../riscv-gcc/libgcc/libgcc2.c:1206
20015f2c:	b3a5                	j	20015c94 <__udivdi3+0xbe>
/scratch/carsteng/freedom-tools-qemu-src/obj/x86_64-w64-mingw32/build/riscv-gnu-toolchain/build-gcc-newlib-stage2/riscv64-unknown-elf/rv32imac/ilp32/libgcc/../../../../../riscv-gcc/libgcc/libgcc2.c:1145
20015f2e:	4581                	li	a1,0
/scratch/carsteng/freedom-tools-qemu-src/obj/x86_64-w64-mingw32/build/riscv-gnu-toolchain/build-gcc-newlib-stage2/riscv64-unknown-elf/rv32imac/ilp32/libgcc/../../../../../riscv-gcc/libgcc/libgcc2.c:1144
20015f30:	4701                	li	a4,0
20015f32:	bd19                	j	20015d48 <__udivdi3+0x172>

20015f34 <__umoddi3>:
__udivmoddi4():
/scratch/carsteng/freedom-tools-qemu-src/obj/x86_64-w64-mingw32/build/riscv-gnu-toolchain/build-gcc-newlib-stage2/riscv64-unknown-elf/rv32imac/ilp32/libgcc/../../../../../riscv-gcc/libgcc/libgcc2.c:1024
20015f34:	88b2                	mv	a7,a2
/scratch/carsteng/freedom-tools-qemu-src/obj/x86_64-w64-mingw32/build/riscv-gnu-toolchain/build-gcc-newlib-stage2/riscv64-unknown-elf/rv32imac/ilp32/libgcc/../../../../../riscv-gcc/libgcc/libgcc2.c:1025
20015f36:	8736                	mv	a4,a3
/scratch/carsteng/freedom-tools-qemu-src/obj/x86_64-w64-mingw32/build/riscv-gnu-toolchain/build-gcc-newlib-stage2/riscv64-unknown-elf/rv32imac/ilp32/libgcc/../../../../../riscv-gcc/libgcc/libgcc2.c:1026
20015f38:	87aa                	mv	a5,a0
/scratch/carsteng/freedom-tools-qemu-src/obj/x86_64-w64-mingw32/build/riscv-gnu-toolchain/build-gcc-newlib-stage2/riscv64-unknown-elf/rv32imac/ilp32/libgcc/../../../../../riscv-gcc/libgcc/libgcc2.c:1027
20015f3a:	882e                	mv	a6,a1
/scratch/carsteng/freedom-tools-qemu-src/obj/x86_64-w64-mingw32/build/riscv-gnu-toolchain/build-gcc-newlib-stage2/riscv64-unknown-elf/rv32imac/ilp32/libgcc/../../../../../riscv-gcc/libgcc/libgcc2.c:1064
20015f3c:	1c069863          	bnez	a3,2001610c <__umoddi3+0x1d8>
/scratch/carsteng/freedom-tools-qemu-src/obj/x86_64-w64-mingw32/build/riscv-gnu-toolchain/build-gcc-newlib-stage2/riscv64-unknown-elf/rv32imac/ilp32/libgcc/../../../../../riscv-gcc/libgcc/libgcc2.c:1066
20015f40:	00001697          	auipc	a3,0x1
20015f44:	19868693          	addi	a3,a3,408 # 200170d8 <__clz_tab>
20015f48:	0ac5f863          	bgeu	a1,a2,20015ff8 <__umoddi3+0xc4>
/scratch/carsteng/freedom-tools-qemu-src/obj/x86_64-w64-mingw32/build/riscv-gnu-toolchain/build-gcc-newlib-stage2/riscv64-unknown-elf/rv32imac/ilp32/libgcc/../../../../../riscv-gcc/libgcc/libgcc2.c:1070
20015f4c:	6341                	lui	t1,0x10
20015f4e:	08667e63          	bgeu	a2,t1,20015fea <__umoddi3+0xb6>
20015f52:	0ff00313          	li	t1,255
20015f56:	00c37363          	bgeu	t1,a2,20015f5c <__umoddi3+0x28>
20015f5a:	4721                	li	a4,8
20015f5c:	00e65333          	srl	t1,a2,a4
20015f60:	969a                	add	a3,a3,t1
20015f62:	0006ce03          	lbu	t3,0(a3)
20015f66:	02000313          	li	t1,32
20015f6a:	9e3a                	add	t3,t3,a4
20015f6c:	41c30333          	sub	t1,t1,t3
/scratch/carsteng/freedom-tools-qemu-src/obj/x86_64-w64-mingw32/build/riscv-gnu-toolchain/build-gcc-newlib-stage2/riscv64-unknown-elf/rv32imac/ilp32/libgcc/../../../../../riscv-gcc/libgcc/libgcc2.c:1072
20015f70:	00030c63          	beqz	t1,20015f88 <__umoddi3+0x54>
/scratch/carsteng/freedom-tools-qemu-src/obj/x86_64-w64-mingw32/build/riscv-gnu-toolchain/build-gcc-newlib-stage2/riscv64-unknown-elf/rv32imac/ilp32/libgcc/../../../../../riscv-gcc/libgcc/libgcc2.c:1078
20015f74:	006595b3          	sll	a1,a1,t1
20015f78:	01c55e33          	srl	t3,a0,t3
/scratch/carsteng/freedom-tools-qemu-src/obj/x86_64-w64-mingw32/build/riscv-gnu-toolchain/build-gcc-newlib-stage2/riscv64-unknown-elf/rv32imac/ilp32/libgcc/../../../../../riscv-gcc/libgcc/libgcc2.c:1077
20015f7c:	006618b3          	sll	a7,a2,t1
/scratch/carsteng/freedom-tools-qemu-src/obj/x86_64-w64-mingw32/build/riscv-gnu-toolchain/build-gcc-newlib-stage2/riscv64-unknown-elf/rv32imac/ilp32/libgcc/../../../../../riscv-gcc/libgcc/libgcc2.c:1078
20015f80:	00be6833          	or	a6,t3,a1
/scratch/carsteng/freedom-tools-qemu-src/obj/x86_64-w64-mingw32/build/riscv-gnu-toolchain/build-gcc-newlib-stage2/riscv64-unknown-elf/rv32imac/ilp32/libgcc/../../../../../riscv-gcc/libgcc/libgcc2.c:1079
20015f84:	006517b3          	sll	a5,a0,t1
/scratch/carsteng/freedom-tools-qemu-src/obj/x86_64-w64-mingw32/build/riscv-gnu-toolchain/build-gcc-newlib-stage2/riscv64-unknown-elf/rv32imac/ilp32/libgcc/../../../../../riscv-gcc/libgcc/libgcc2.c:1082
20015f88:	0108d613          	srli	a2,a7,0x10
20015f8c:	02c87733          	remu	a4,a6,a2
20015f90:	01089513          	slli	a0,a7,0x10
20015f94:	8141                	srli	a0,a0,0x10
20015f96:	0107d693          	srli	a3,a5,0x10
20015f9a:	02c85833          	divu	a6,a6,a2
20015f9e:	0742                	slli	a4,a4,0x10
20015fa0:	8ed9                	or	a3,a3,a4
20015fa2:	03050833          	mul	a6,a0,a6
20015fa6:	0106f863          	bgeu	a3,a6,20015fb6 <__umoddi3+0x82>
20015faa:	96c6                	add	a3,a3,a7
20015fac:	0116e563          	bltu	a3,a7,20015fb6 <__umoddi3+0x82>
20015fb0:	0106f363          	bgeu	a3,a6,20015fb6 <__umoddi3+0x82>
20015fb4:	96c6                	add	a3,a3,a7
20015fb6:	410686b3          	sub	a3,a3,a6
20015fba:	02c6f733          	remu	a4,a3,a2
20015fbe:	07c2                	slli	a5,a5,0x10
20015fc0:	83c1                	srli	a5,a5,0x10
20015fc2:	02c6d6b3          	divu	a3,a3,a2
20015fc6:	02d506b3          	mul	a3,a0,a3
20015fca:	01071513          	slli	a0,a4,0x10
20015fce:	8fc9                	or	a5,a5,a0
20015fd0:	00d7f863          	bgeu	a5,a3,20015fe0 <__umoddi3+0xac>
20015fd4:	97c6                	add	a5,a5,a7
20015fd6:	0117e563          	bltu	a5,a7,20015fe0 <__umoddi3+0xac>
20015fda:	00d7f363          	bgeu	a5,a3,20015fe0 <__umoddi3+0xac>
20015fde:	97c6                	add	a5,a5,a7
20015fe0:	8f95                	sub	a5,a5,a3
/scratch/carsteng/freedom-tools-qemu-src/obj/x86_64-w64-mingw32/build/riscv-gnu-toolchain/build-gcc-newlib-stage2/riscv64-unknown-elf/rv32imac/ilp32/libgcc/../../../../../riscv-gcc/libgcc/libgcc2.c:1131
20015fe2:	0067d533          	srl	a0,a5,t1
/scratch/carsteng/freedom-tools-qemu-src/obj/x86_64-w64-mingw32/build/riscv-gnu-toolchain/build-gcc-newlib-stage2/riscv64-unknown-elf/rv32imac/ilp32/libgcc/../../../../../riscv-gcc/libgcc/libgcc2.c:1133
20015fe6:	4581                	li	a1,0
__umoddi3():
/scratch/carsteng/freedom-tools-qemu-src/obj/x86_64-w64-mingw32/build/riscv-gnu-toolchain/build-gcc-newlib-stage2/riscv64-unknown-elf/rv32imac/ilp32/libgcc/../../../../../riscv-gcc/libgcc/libgcc2.c:1313
20015fe8:	8082                	ret
__udivmoddi4():
/scratch/carsteng/freedom-tools-qemu-src/obj/x86_64-w64-mingw32/build/riscv-gnu-toolchain/build-gcc-newlib-stage2/riscv64-unknown-elf/rv32imac/ilp32/libgcc/../../../../../riscv-gcc/libgcc/libgcc2.c:1070
20015fea:	01000337          	lui	t1,0x1000
20015fee:	4741                	li	a4,16
20015ff0:	f66666e3          	bltu	a2,t1,20015f5c <__umoddi3+0x28>
20015ff4:	4761                	li	a4,24
20015ff6:	b79d                	j	20015f5c <__umoddi3+0x28>
/scratch/carsteng/freedom-tools-qemu-src/obj/x86_64-w64-mingw32/build/riscv-gnu-toolchain/build-gcc-newlib-stage2/riscv64-unknown-elf/rv32imac/ilp32/libgcc/../../../../../riscv-gcc/libgcc/libgcc2.c:1091
20015ff8:	e601                	bnez	a2,20016000 <__umoddi3+0xcc>
/scratch/carsteng/freedom-tools-qemu-src/obj/x86_64-w64-mingw32/build/riscv-gnu-toolchain/build-gcc-newlib-stage2/riscv64-unknown-elf/rv32imac/ilp32/libgcc/../../../../../riscv-gcc/libgcc/libgcc2.c:1092
20015ffa:	4605                	li	a2,1
20015ffc:	031658b3          	divu	a7,a2,a7
/scratch/carsteng/freedom-tools-qemu-src/obj/x86_64-w64-mingw32/build/riscv-gnu-toolchain/build-gcc-newlib-stage2/riscv64-unknown-elf/rv32imac/ilp32/libgcc/../../../../../riscv-gcc/libgcc/libgcc2.c:1094
20016000:	6641                	lui	a2,0x10
20016002:	08c8f363          	bgeu	a7,a2,20016088 <__umoddi3+0x154>
20016006:	0ff00613          	li	a2,255
2001600a:	01167363          	bgeu	a2,a7,20016010 <__umoddi3+0xdc>
2001600e:	4721                	li	a4,8
20016010:	00e8d633          	srl	a2,a7,a4
20016014:	96b2                	add	a3,a3,a2
20016016:	0006ce03          	lbu	t3,0(a3)
2001601a:	02000313          	li	t1,32
2001601e:	9e3a                	add	t3,t3,a4
20016020:	41c30333          	sub	t1,t1,t3
/scratch/carsteng/freedom-tools-qemu-src/obj/x86_64-w64-mingw32/build/riscv-gnu-toolchain/build-gcc-newlib-stage2/riscv64-unknown-elf/rv32imac/ilp32/libgcc/../../../../../riscv-gcc/libgcc/libgcc2.c:1096
20016024:	06031963          	bnez	t1,20016096 <__umoddi3+0x162>
/scratch/carsteng/freedom-tools-qemu-src/obj/x86_64-w64-mingw32/build/riscv-gnu-toolchain/build-gcc-newlib-stage2/riscv64-unknown-elf/rv32imac/ilp32/libgcc/../../../../../riscv-gcc/libgcc/libgcc2.c:1105
20016028:	411585b3          	sub	a1,a1,a7
/scratch/carsteng/freedom-tools-qemu-src/obj/x86_64-w64-mingw32/build/riscv-gnu-toolchain/build-gcc-newlib-stage2/riscv64-unknown-elf/rv32imac/ilp32/libgcc/../../../../../riscv-gcc/libgcc/libgcc2.c:1124
2001602c:	0108d713          	srli	a4,a7,0x10
20016030:	01089513          	slli	a0,a7,0x10
20016034:	8141                	srli	a0,a0,0x10
20016036:	0107d613          	srli	a2,a5,0x10
2001603a:	02e5f6b3          	remu	a3,a1,a4
2001603e:	02e5d5b3          	divu	a1,a1,a4
20016042:	06c2                	slli	a3,a3,0x10
20016044:	8ed1                	or	a3,a3,a2
20016046:	02b505b3          	mul	a1,a0,a1
2001604a:	00b6f863          	bgeu	a3,a1,2001605a <__umoddi3+0x126>
2001604e:	96c6                	add	a3,a3,a7
20016050:	0116e563          	bltu	a3,a7,2001605a <__umoddi3+0x126>
20016054:	00b6f363          	bgeu	a3,a1,2001605a <__umoddi3+0x126>
20016058:	96c6                	add	a3,a3,a7
2001605a:	40b685b3          	sub	a1,a3,a1
2001605e:	02e5f6b3          	remu	a3,a1,a4
20016062:	07c2                	slli	a5,a5,0x10
20016064:	83c1                	srli	a5,a5,0x10
20016066:	02e5d5b3          	divu	a1,a1,a4
2001606a:	02b505b3          	mul	a1,a0,a1
2001606e:	01069513          	slli	a0,a3,0x10
20016072:	8fc9                	or	a5,a5,a0
20016074:	00b7f863          	bgeu	a5,a1,20016084 <__umoddi3+0x150>
20016078:	97c6                	add	a5,a5,a7
2001607a:	0117e563          	bltu	a5,a7,20016084 <__umoddi3+0x150>
2001607e:	00b7f363          	bgeu	a5,a1,20016084 <__umoddi3+0x150>
20016082:	97c6                	add	a5,a5,a7
20016084:	8f8d                	sub	a5,a5,a1
20016086:	bfb1                	j	20015fe2 <__umoddi3+0xae>
/scratch/carsteng/freedom-tools-qemu-src/obj/x86_64-w64-mingw32/build/riscv-gnu-toolchain/build-gcc-newlib-stage2/riscv64-unknown-elf/rv32imac/ilp32/libgcc/../../../../../riscv-gcc/libgcc/libgcc2.c:1094
20016088:	01000637          	lui	a2,0x1000
2001608c:	4741                	li	a4,16
2001608e:	f8c8e1e3          	bltu	a7,a2,20016010 <__umoddi3+0xdc>
20016092:	4761                	li	a4,24
20016094:	bfb5                	j	20016010 <__umoddi3+0xdc>
/scratch/carsteng/freedom-tools-qemu-src/obj/x86_64-w64-mingw32/build/riscv-gnu-toolchain/build-gcc-newlib-stage2/riscv64-unknown-elf/rv32imac/ilp32/libgcc/../../../../../riscv-gcc/libgcc/libgcc2.c:1114
20016096:	006898b3          	sll	a7,a7,t1
/scratch/carsteng/freedom-tools-qemu-src/obj/x86_64-w64-mingw32/build/riscv-gnu-toolchain/build-gcc-newlib-stage2/riscv64-unknown-elf/rv32imac/ilp32/libgcc/../../../../../riscv-gcc/libgcc/libgcc2.c:1115
2001609a:	01c5d733          	srl	a4,a1,t3
/scratch/carsteng/freedom-tools-qemu-src/obj/x86_64-w64-mingw32/build/riscv-gnu-toolchain/build-gcc-newlib-stage2/riscv64-unknown-elf/rv32imac/ilp32/libgcc/../../../../../riscv-gcc/libgcc/libgcc2.c:1117
2001609e:	006517b3          	sll	a5,a0,t1
/scratch/carsteng/freedom-tools-qemu-src/obj/x86_64-w64-mingw32/build/riscv-gnu-toolchain/build-gcc-newlib-stage2/riscv64-unknown-elf/rv32imac/ilp32/libgcc/../../../../../riscv-gcc/libgcc/libgcc2.c:1116
200160a2:	01c55e33          	srl	t3,a0,t3
/scratch/carsteng/freedom-tools-qemu-src/obj/x86_64-w64-mingw32/build/riscv-gnu-toolchain/build-gcc-newlib-stage2/riscv64-unknown-elf/rv32imac/ilp32/libgcc/../../../../../riscv-gcc/libgcc/libgcc2.c:1119
200160a6:	0108d513          	srli	a0,a7,0x10
200160aa:	02a776b3          	remu	a3,a4,a0
/scratch/carsteng/freedom-tools-qemu-src/obj/x86_64-w64-mingw32/build/riscv-gnu-toolchain/build-gcc-newlib-stage2/riscv64-unknown-elf/rv32imac/ilp32/libgcc/../../../../../riscv-gcc/libgcc/libgcc2.c:1116
200160ae:	006595b3          	sll	a1,a1,t1
200160b2:	00be6e33          	or	t3,t3,a1
/scratch/carsteng/freedom-tools-qemu-src/obj/x86_64-w64-mingw32/build/riscv-gnu-toolchain/build-gcc-newlib-stage2/riscv64-unknown-elf/rv32imac/ilp32/libgcc/../../../../../riscv-gcc/libgcc/libgcc2.c:1119
200160b6:	01089593          	slli	a1,a7,0x10
200160ba:	81c1                	srli	a1,a1,0x10
200160bc:	010e5613          	srli	a2,t3,0x10
200160c0:	02a75733          	divu	a4,a4,a0
200160c4:	06c2                	slli	a3,a3,0x10
200160c6:	8ed1                	or	a3,a3,a2
200160c8:	02e58733          	mul	a4,a1,a4
200160cc:	00e6f863          	bgeu	a3,a4,200160dc <__umoddi3+0x1a8>
200160d0:	96c6                	add	a3,a3,a7
200160d2:	0116e563          	bltu	a3,a7,200160dc <__umoddi3+0x1a8>
200160d6:	00e6f363          	bgeu	a3,a4,200160dc <__umoddi3+0x1a8>
200160da:	96c6                	add	a3,a3,a7
200160dc:	40e68633          	sub	a2,a3,a4
200160e0:	02a676b3          	remu	a3,a2,a0
200160e4:	0e42                	slli	t3,t3,0x10
200160e6:	010e5e13          	srli	t3,t3,0x10
200160ea:	02a65633          	divu	a2,a2,a0
200160ee:	06c2                	slli	a3,a3,0x10
200160f0:	02c58633          	mul	a2,a1,a2
200160f4:	01c6e5b3          	or	a1,a3,t3
200160f8:	00c5f863          	bgeu	a1,a2,20016108 <__umoddi3+0x1d4>
200160fc:	95c6                	add	a1,a1,a7
200160fe:	0115e563          	bltu	a1,a7,20016108 <__umoddi3+0x1d4>
20016102:	00c5f363          	bgeu	a1,a2,20016108 <__umoddi3+0x1d4>
20016106:	95c6                	add	a1,a1,a7
20016108:	8d91                	sub	a1,a1,a2
2001610a:	b70d                	j	2001602c <__umoddi3+0xf8>
/scratch/carsteng/freedom-tools-qemu-src/obj/x86_64-w64-mingw32/build/riscv-gnu-toolchain/build-gcc-newlib-stage2/riscv64-unknown-elf/rv32imac/ilp32/libgcc/../../../../../riscv-gcc/libgcc/libgcc2.c:1140
2001610c:	ecd5eee3          	bltu	a1,a3,20015fe8 <__umoddi3+0xb4>
/scratch/carsteng/freedom-tools-qemu-src/obj/x86_64-w64-mingw32/build/riscv-gnu-toolchain/build-gcc-newlib-stage2/riscv64-unknown-elf/rv32imac/ilp32/libgcc/../../../../../riscv-gcc/libgcc/libgcc2.c:1159
20016110:	6741                	lui	a4,0x10
20016112:	04e6f563          	bgeu	a3,a4,2001615c <__umoddi3+0x228>
20016116:	0ff00e93          	li	t4,255
2001611a:	00deb733          	sltu	a4,t4,a3
2001611e:	070e                	slli	a4,a4,0x3
20016120:	00e6d333          	srl	t1,a3,a4
20016124:	00001897          	auipc	a7,0x1
20016128:	fb488893          	addi	a7,a7,-76 # 200170d8 <__clz_tab>
2001612c:	989a                	add	a7,a7,t1
2001612e:	0008ce83          	lbu	t4,0(a7)
20016132:	02000e13          	li	t3,32
20016136:	9eba                	add	t4,t4,a4
20016138:	41de0e33          	sub	t3,t3,t4
/scratch/carsteng/freedom-tools-qemu-src/obj/x86_64-w64-mingw32/build/riscv-gnu-toolchain/build-gcc-newlib-stage2/riscv64-unknown-elf/rv32imac/ilp32/libgcc/../../../../../riscv-gcc/libgcc/libgcc2.c:1160
2001613c:	020e1763          	bnez	t3,2001616a <__umoddi3+0x236>
/scratch/carsteng/freedom-tools-qemu-src/obj/x86_64-w64-mingw32/build/riscv-gnu-toolchain/build-gcc-newlib-stage2/riscv64-unknown-elf/rv32imac/ilp32/libgcc/../../../../../riscv-gcc/libgcc/libgcc2.c:1170
20016140:	00b6e463          	bltu	a3,a1,20016148 <__umoddi3+0x214>
20016144:	00c56963          	bltu	a0,a2,20016156 <__umoddi3+0x222>
/scratch/carsteng/freedom-tools-qemu-src/obj/x86_64-w64-mingw32/build/riscv-gnu-toolchain/build-gcc-newlib-stage2/riscv64-unknown-elf/rv32imac/ilp32/libgcc/../../../../../riscv-gcc/libgcc/libgcc2.c:1173
20016148:	40c507b3          	sub	a5,a0,a2
2001614c:	8d95                	sub	a1,a1,a3
2001614e:	00f53533          	sltu	a0,a0,a5
20016152:	40a58833          	sub	a6,a1,a0
/scratch/carsteng/freedom-tools-qemu-src/obj/x86_64-w64-mingw32/build/riscv-gnu-toolchain/build-gcc-newlib-stage2/riscv64-unknown-elf/rv32imac/ilp32/libgcc/../../../../../riscv-gcc/libgcc/libgcc2.c:1184
20016156:	853e                	mv	a0,a5
20016158:	85c2                	mv	a1,a6
2001615a:	b579                	j	20015fe8 <__umoddi3+0xb4>
/scratch/carsteng/freedom-tools-qemu-src/obj/x86_64-w64-mingw32/build/riscv-gnu-toolchain/build-gcc-newlib-stage2/riscv64-unknown-elf/rv32imac/ilp32/libgcc/../../../../../riscv-gcc/libgcc/libgcc2.c:1159
2001615c:	010008b7          	lui	a7,0x1000
20016160:	4741                	li	a4,16
20016162:	fb16efe3          	bltu	a3,a7,20016120 <__umoddi3+0x1ec>
20016166:	4761                	li	a4,24
20016168:	bf65                	j	20016120 <__umoddi3+0x1ec>
/scratch/carsteng/freedom-tools-qemu-src/obj/x86_64-w64-mingw32/build/riscv-gnu-toolchain/build-gcc-newlib-stage2/riscv64-unknown-elf/rv32imac/ilp32/libgcc/../../../../../riscv-gcc/libgcc/libgcc2.c:1194
2001616a:	01d65733          	srl	a4,a2,t4
2001616e:	01c696b3          	sll	a3,a3,t3
20016172:	8ed9                	or	a3,a3,a4
/scratch/carsteng/freedom-tools-qemu-src/obj/x86_64-w64-mingw32/build/riscv-gnu-toolchain/build-gcc-newlib-stage2/riscv64-unknown-elf/rv32imac/ilp32/libgcc/../../../../../riscv-gcc/libgcc/libgcc2.c:1200
20016174:	0106d813          	srli	a6,a3,0x10
/scratch/carsteng/freedom-tools-qemu-src/obj/x86_64-w64-mingw32/build/riscv-gnu-toolchain/build-gcc-newlib-stage2/riscv64-unknown-elf/rv32imac/ilp32/libgcc/../../../../../riscv-gcc/libgcc/libgcc2.c:1196
20016178:	01d5d733          	srl	a4,a1,t4
/scratch/carsteng/freedom-tools-qemu-src/obj/x86_64-w64-mingw32/build/riscv-gnu-toolchain/build-gcc-newlib-stage2/riscv64-unknown-elf/rv32imac/ilp32/libgcc/../../../../../riscv-gcc/libgcc/libgcc2.c:1200
2001617c:	03077333          	remu	t1,a4,a6
/scratch/carsteng/freedom-tools-qemu-src/obj/x86_64-w64-mingw32/build/riscv-gnu-toolchain/build-gcc-newlib-stage2/riscv64-unknown-elf/rv32imac/ilp32/libgcc/../../../../../riscv-gcc/libgcc/libgcc2.c:1197
20016180:	01c595b3          	sll	a1,a1,t3
20016184:	01d557b3          	srl	a5,a0,t4
20016188:	8fcd                	or	a5,a5,a1
/scratch/carsteng/freedom-tools-qemu-src/obj/x86_64-w64-mingw32/build/riscv-gnu-toolchain/build-gcc-newlib-stage2/riscv64-unknown-elf/rv32imac/ilp32/libgcc/../../../../../riscv-gcc/libgcc/libgcc2.c:1200
2001618a:	01069593          	slli	a1,a3,0x10
2001618e:	81c1                	srli	a1,a1,0x10
20016190:	0107d893          	srli	a7,a5,0x10
/scratch/carsteng/freedom-tools-qemu-src/obj/x86_64-w64-mingw32/build/riscv-gnu-toolchain/build-gcc-newlib-stage2/riscv64-unknown-elf/rv32imac/ilp32/libgcc/../../../../../riscv-gcc/libgcc/libgcc2.c:1195
20016194:	01c61633          	sll	a2,a2,t3
/scratch/carsteng/freedom-tools-qemu-src/obj/x86_64-w64-mingw32/build/riscv-gnu-toolchain/build-gcc-newlib-stage2/riscv64-unknown-elf/rv32imac/ilp32/libgcc/../../../../../riscv-gcc/libgcc/libgcc2.c:1198
20016198:	01c51533          	sll	a0,a0,t3
/scratch/carsteng/freedom-tools-qemu-src/obj/x86_64-w64-mingw32/build/riscv-gnu-toolchain/build-gcc-newlib-stage2/riscv64-unknown-elf/rv32imac/ilp32/libgcc/../../../../../riscv-gcc/libgcc/libgcc2.c:1200
2001619c:	03075733          	divu	a4,a4,a6
200161a0:	0342                	slli	t1,t1,0x10
200161a2:	011368b3          	or	a7,t1,a7
200161a6:	02e58f33          	mul	t5,a1,a4
200161aa:	833a                	mv	t1,a4
200161ac:	01e8fc63          	bgeu	a7,t5,200161c4 <__umoddi3+0x290>
200161b0:	98b6                	add	a7,a7,a3
200161b2:	fff70313          	addi	t1,a4,-1 # ffff <__heap_size+0xfbff>
200161b6:	00d8e763          	bltu	a7,a3,200161c4 <__umoddi3+0x290>
200161ba:	01e8f563          	bgeu	a7,t5,200161c4 <__umoddi3+0x290>
200161be:	ffe70313          	addi	t1,a4,-2
200161c2:	98b6                	add	a7,a7,a3
200161c4:	41e888b3          	sub	a7,a7,t5
200161c8:	0308ff33          	remu	t5,a7,a6
200161cc:	0308d8b3          	divu	a7,a7,a6
200161d0:	0f42                	slli	t5,t5,0x10
200161d2:	03158833          	mul	a6,a1,a7
200161d6:	01079593          	slli	a1,a5,0x10
200161da:	81c1                	srli	a1,a1,0x10
200161dc:	00bf65b3          	or	a1,t5,a1
200161e0:	87c6                	mv	a5,a7
200161e2:	0105fc63          	bgeu	a1,a6,200161fa <__umoddi3+0x2c6>
200161e6:	95b6                	add	a1,a1,a3
200161e8:	fff88793          	addi	a5,a7,-1 # ffffff <__heap_size+0xfffbff>
200161ec:	00d5e763          	bltu	a1,a3,200161fa <__umoddi3+0x2c6>
200161f0:	0105f563          	bgeu	a1,a6,200161fa <__umoddi3+0x2c6>
200161f4:	ffe88793          	addi	a5,a7,-2
200161f8:	95b6                	add	a1,a1,a3
200161fa:	0342                	slli	t1,t1,0x10
/scratch/carsteng/freedom-tools-qemu-src/obj/x86_64-w64-mingw32/build/riscv-gnu-toolchain/build-gcc-newlib-stage2/riscv64-unknown-elf/rv32imac/ilp32/libgcc/../../../../../riscv-gcc/libgcc/libgcc2.c:1201
200161fc:	6f41                	lui	t5,0x10
/scratch/carsteng/freedom-tools-qemu-src/obj/x86_64-w64-mingw32/build/riscv-gnu-toolchain/build-gcc-newlib-stage2/riscv64-unknown-elf/rv32imac/ilp32/libgcc/../../../../../riscv-gcc/libgcc/libgcc2.c:1200
200161fe:	00f36333          	or	t1,t1,a5
/scratch/carsteng/freedom-tools-qemu-src/obj/x86_64-w64-mingw32/build/riscv-gnu-toolchain/build-gcc-newlib-stage2/riscv64-unknown-elf/rv32imac/ilp32/libgcc/../../../../../riscv-gcc/libgcc/libgcc2.c:1201
20016202:	ffff0793          	addi	a5,t5,-1 # ffff <__heap_size+0xfbff>
20016206:	00f378b3          	and	a7,t1,a5
/scratch/carsteng/freedom-tools-qemu-src/obj/x86_64-w64-mingw32/build/riscv-gnu-toolchain/build-gcc-newlib-stage2/riscv64-unknown-elf/rv32imac/ilp32/libgcc/../../../../../riscv-gcc/libgcc/libgcc2.c:1200
2001620a:	410585b3          	sub	a1,a1,a6
/scratch/carsteng/freedom-tools-qemu-src/obj/x86_64-w64-mingw32/build/riscv-gnu-toolchain/build-gcc-newlib-stage2/riscv64-unknown-elf/rv32imac/ilp32/libgcc/../../../../../riscv-gcc/libgcc/libgcc2.c:1201
2001620e:	01035313          	srli	t1,t1,0x10
20016212:	01065813          	srli	a6,a2,0x10
20016216:	8ff1                	and	a5,a5,a2
20016218:	02f88733          	mul	a4,a7,a5
2001621c:	02f307b3          	mul	a5,t1,a5
20016220:	030888b3          	mul	a7,a7,a6
20016224:	03030333          	mul	t1,t1,a6
20016228:	98be                	add	a7,a7,a5
2001622a:	01075813          	srli	a6,a4,0x10
2001622e:	9846                	add	a6,a6,a7
20016230:	00f87363          	bgeu	a6,a5,20016236 <__umoddi3+0x302>
20016234:	937a                	add	t1,t1,t5
20016236:	01085793          	srli	a5,a6,0x10
2001623a:	933e                	add	t1,t1,a5
2001623c:	67c1                	lui	a5,0x10
2001623e:	17fd                	addi	a5,a5,-1
20016240:	00f87833          	and	a6,a6,a5
20016244:	0842                	slli	a6,a6,0x10
20016246:	8f7d                	and	a4,a4,a5
20016248:	9742                	add	a4,a4,a6
/scratch/carsteng/freedom-tools-qemu-src/obj/x86_64-w64-mingw32/build/riscv-gnu-toolchain/build-gcc-newlib-stage2/riscv64-unknown-elf/rv32imac/ilp32/libgcc/../../../../../riscv-gcc/libgcc/libgcc2.c:1203
2001624a:	0065e663          	bltu	a1,t1,20016256 <__umoddi3+0x322>
2001624e:	00659c63          	bne	a1,t1,20016266 <__umoddi3+0x332>
20016252:	00e57a63          	bgeu	a0,a4,20016266 <__umoddi3+0x332>
/scratch/carsteng/freedom-tools-qemu-src/obj/x86_64-w64-mingw32/build/riscv-gnu-toolchain/build-gcc-newlib-stage2/riscv64-unknown-elf/rv32imac/ilp32/libgcc/../../../../../riscv-gcc/libgcc/libgcc2.c:1206
20016256:	40c70633          	sub	a2,a4,a2
2001625a:	00c73733          	sltu	a4,a4,a2
2001625e:	9736                	add	a4,a4,a3
20016260:	40e30333          	sub	t1,t1,a4
20016264:	8732                	mv	a4,a2
/scratch/carsteng/freedom-tools-qemu-src/obj/x86_64-w64-mingw32/build/riscv-gnu-toolchain/build-gcc-newlib-stage2/riscv64-unknown-elf/rv32imac/ilp32/libgcc/../../../../../riscv-gcc/libgcc/libgcc2.c:1214
20016266:	40e50733          	sub	a4,a0,a4
2001626a:	00e53533          	sltu	a0,a0,a4
2001626e:	406585b3          	sub	a1,a1,t1
20016272:	8d89                	sub	a1,a1,a0
/scratch/carsteng/freedom-tools-qemu-src/obj/x86_64-w64-mingw32/build/riscv-gnu-toolchain/build-gcc-newlib-stage2/riscv64-unknown-elf/rv32imac/ilp32/libgcc/../../../../../riscv-gcc/libgcc/libgcc2.c:1215
20016274:	01d597b3          	sll	a5,a1,t4
20016278:	01c75733          	srl	a4,a4,t3
/scratch/carsteng/freedom-tools-qemu-src/obj/x86_64-w64-mingw32/build/riscv-gnu-toolchain/build-gcc-newlib-stage2/riscv64-unknown-elf/rv32imac/ilp32/libgcc/../../../../../riscv-gcc/libgcc/libgcc2.c:1217
2001627c:	00e7e533          	or	a0,a5,a4
20016280:	01c5d5b3          	srl	a1,a1,t3
__umoddi3():
/scratch/carsteng/freedom-tools-qemu-src/obj/x86_64-w64-mingw32/build/riscv-gnu-toolchain/build-gcc-newlib-stage2/riscv64-unknown-elf/rv32imac/ilp32/libgcc/../../../../../riscv-gcc/libgcc/libgcc2.c:1312
20016284:	b395                	j	20015fe8 <__umoddi3+0xb4>

20016286 <metal_timer_get_cyclecount>:
metal_timer_get_cyclecount():
F:/HiFive-IoT/Workspace/sifive-hifive1-revb-hello/freedom-metal/src/timer.c:14

#if defined(__METAL_DT_MAX_HARTS)
/* This implementation serves as a small shim that interfaces with the first
 * timer on a system. */
int metal_timer_get_cyclecount(int hartid, unsigned long long *mcc)
{
20016286:	7179                	addi	sp,sp,-48
20016288:	d606                	sw	ra,44(sp)
2001628a:	d422                	sw	s0,40(sp)
2001628c:	1800                	addi	s0,sp,48
2001628e:	fca42e23          	sw	a0,-36(s0)
20016292:	fcb42c23          	sw	a1,-40(s0)
F:/HiFive-IoT/Workspace/sifive-hifive1-revb-hello/freedom-metal/src/timer.c:15
    struct metal_cpu *cpu = metal_cpu_get(hartid);
20016296:	fdc42503          	lw	a0,-36(s0)
2001629a:	964ff0ef          	jal	ra,200153fe <metal_cpu_get>
2001629e:	fea42623          	sw	a0,-20(s0)
F:/HiFive-IoT/Workspace/sifive-hifive1-revb-hello/freedom-metal/src/timer.c:17

    if ( cpu ) {
200162a2:	fec42783          	lw	a5,-20(s0)
200162a6:	cf91                	beqz	a5,200162c2 <metal_timer_get_cyclecount+0x3c>
F:/HiFive-IoT/Workspace/sifive-hifive1-revb-hello/freedom-metal/src/timer.c:18
        *mcc = metal_cpu_get_timer(cpu);
200162a8:	fec42503          	lw	a0,-20(s0)
200162ac:	8d8ff0ef          	jal	ra,20015384 <metal_cpu_get_timer>
200162b0:	87aa                	mv	a5,a0
200162b2:	882e                	mv	a6,a1
200162b4:	fd842703          	lw	a4,-40(s0)
200162b8:	c31c                	sw	a5,0(a4)
200162ba:	01072223          	sw	a6,4(a4)
F:/HiFive-IoT/Workspace/sifive-hifive1-revb-hello/freedom-metal/src/timer.c:19
        return 0;
200162be:	4781                	li	a5,0
200162c0:	a011                	j	200162c4 <metal_timer_get_cyclecount+0x3e>
F:/HiFive-IoT/Workspace/sifive-hifive1-revb-hello/freedom-metal/src/timer.c:21
    }	
    return -1;
200162c2:	57fd                	li	a5,-1
F:/HiFive-IoT/Workspace/sifive-hifive1-revb-hello/freedom-metal/src/timer.c:22
}
200162c4:	853e                	mv	a0,a5
200162c6:	50b2                	lw	ra,44(sp)
200162c8:	5422                	lw	s0,40(sp)
200162ca:	6145                	addi	sp,sp,48
200162cc:	8082                	ret

200162ce <metal_timer_get_timebase_frequency>:
metal_timer_get_timebase_frequency():
F:/HiFive-IoT/Workspace/sifive-hifive1-revb-hello/freedom-metal/src/timer.c:25

int metal_timer_get_timebase_frequency(int hartid, unsigned long long *timebase)
{
200162ce:	7179                	addi	sp,sp,-48
200162d0:	d606                	sw	ra,44(sp)
200162d2:	d422                	sw	s0,40(sp)
200162d4:	1800                	addi	s0,sp,48
200162d6:	fca42e23          	sw	a0,-36(s0)
200162da:	fcb42c23          	sw	a1,-40(s0)
F:/HiFive-IoT/Workspace/sifive-hifive1-revb-hello/freedom-metal/src/timer.c:26
    struct metal_cpu *cpu = metal_cpu_get(hartid);
200162de:	fdc42503          	lw	a0,-36(s0)
200162e2:	91cff0ef          	jal	ra,200153fe <metal_cpu_get>
200162e6:	fea42623          	sw	a0,-20(s0)
F:/HiFive-IoT/Workspace/sifive-hifive1-revb-hello/freedom-metal/src/timer.c:28

    if ( cpu ) {
200162ea:	fec42783          	lw	a5,-20(s0)
200162ee:	cf91                	beqz	a5,2001630a <metal_timer_get_timebase_frequency+0x3c>
F:/HiFive-IoT/Workspace/sifive-hifive1-revb-hello/freedom-metal/src/timer.c:29
        *timebase = metal_cpu_get_timebase(cpu);
200162f0:	fec42503          	lw	a0,-20(s0)
200162f4:	8baff0ef          	jal	ra,200153ae <metal_cpu_get_timebase>
200162f8:	87aa                	mv	a5,a0
200162fa:	882e                	mv	a6,a1
200162fc:	fd842703          	lw	a4,-40(s0)
20016300:	c31c                	sw	a5,0(a4)
20016302:	01072223          	sw	a6,4(a4)
F:/HiFive-IoT/Workspace/sifive-hifive1-revb-hello/freedom-metal/src/timer.c:30
        return 0;
20016306:	4781                	li	a5,0
20016308:	a011                	j	2001630c <metal_timer_get_timebase_frequency+0x3e>
F:/HiFive-IoT/Workspace/sifive-hifive1-revb-hello/freedom-metal/src/timer.c:32
    } 
    return -1;
2001630a:	57fd                	li	a5,-1
F:/HiFive-IoT/Workspace/sifive-hifive1-revb-hello/freedom-metal/src/timer.c:33
}
2001630c:	853e                	mv	a0,a5
2001630e:	50b2                	lw	ra,44(sp)
20016310:	5422                	lw	s0,40(sp)
20016312:	6145                	addi	sp,sp,48
20016314:	8082                	ret

20016316 <metal_tty_putc>:
metal_tty_putc():
F:/HiFive-IoT/Workspace/sifive-hifive1-revb-hello/freedom-metal/src/tty.c:11

#if defined(__METAL_DT_STDOUT_UART_HANDLE)
/* This implementation serves as a small shim that interfaces with the first
 * UART on a system. */
int metal_tty_putc(unsigned char c)
{
20016316:	7179                	addi	sp,sp,-48
20016318:	d606                	sw	ra,44(sp)
2001631a:	d422                	sw	s0,40(sp)
2001631c:	1800                	addi	s0,sp,48
2001631e:	87aa                	mv	a5,a0
20016320:	fcf40fa3          	sb	a5,-33(s0)
F:/HiFive-IoT/Workspace/sifive-hifive1-revb-hello/freedom-metal/src/tty.c:12
    if (c == '\n') {
20016324:	fdf44703          	lbu	a4,-33(s0)
20016328:	47a9                	li	a5,10
2001632a:	00f71f63          	bne	a4,a5,20016348 <metal_tty_putc+0x32>
F:/HiFive-IoT/Workspace/sifive-hifive1-revb-hello/freedom-metal/src/tty.c:13
        int out = metal_uart_putc(__METAL_DT_STDOUT_UART_HANDLE, '\r');
2001632e:	45b5                	li	a1,13
20016330:	84818513          	addi	a0,gp,-1976 # 800007e0 <__metal_dt_serial_10013000>
20016334:	92eff0ef          	jal	ra,20015462 <metal_uart_putc>
20016338:	fea42623          	sw	a0,-20(s0)
F:/HiFive-IoT/Workspace/sifive-hifive1-revb-hello/freedom-metal/src/tty.c:14
        if (out != 0)
2001633c:	fec42783          	lw	a5,-20(s0)
20016340:	c781                	beqz	a5,20016348 <metal_tty_putc+0x32>
F:/HiFive-IoT/Workspace/sifive-hifive1-revb-hello/freedom-metal/src/tty.c:15
            return out;
20016342:	fec42783          	lw	a5,-20(s0)
20016346:	a809                	j	20016358 <metal_tty_putc+0x42>
F:/HiFive-IoT/Workspace/sifive-hifive1-revb-hello/freedom-metal/src/tty.c:17
    }
    return metal_uart_putc(__METAL_DT_STDOUT_UART_HANDLE, c);
20016348:	fdf44783          	lbu	a5,-33(s0)
2001634c:	85be                	mv	a1,a5
2001634e:	84818513          	addi	a0,gp,-1976 # 800007e0 <__metal_dt_serial_10013000>
20016352:	910ff0ef          	jal	ra,20015462 <metal_uart_putc>
20016356:	87aa                	mv	a5,a0
F:/HiFive-IoT/Workspace/sifive-hifive1-revb-hello/freedom-metal/src/tty.c:18
}
20016358:	853e                	mv	a0,a5
2001635a:	50b2                	lw	ra,44(sp)
2001635c:	5422                	lw	s0,40(sp)
2001635e:	6145                	addi	sp,sp,48
20016360:	8082                	ret

20016362 <metal_tty_init>:
metal_tty_init():
F:/HiFive-IoT/Workspace/sifive-hifive1-revb-hello/freedom-metal/src/tty.c:26
#define __METAL_DT_STDOUT_UART_BAUD 115200
#endif

static void metal_tty_init(void) __attribute__((constructor));
static void metal_tty_init(void)
{
20016362:	1141                	addi	sp,sp,-16
20016364:	c606                	sw	ra,12(sp)
20016366:	c422                	sw	s0,8(sp)
20016368:	0800                	addi	s0,sp,16
F:/HiFive-IoT/Workspace/sifive-hifive1-revb-hello/freedom-metal/src/tty.c:27
    metal_uart_init(__METAL_DT_STDOUT_UART_HANDLE, __METAL_DT_STDOUT_UART_BAUD);
2001636a:	67f1                	lui	a5,0x1c
2001636c:	20078593          	addi	a1,a5,512 # 1c200 <__heap_size+0x1be00>
20016370:	84818513          	addi	a0,gp,-1976 # 800007e0 <__metal_dt_serial_10013000>
20016374:	8c4ff0ef          	jal	ra,20015438 <metal_uart_init>
F:/HiFive-IoT/Workspace/sifive-hifive1-revb-hello/freedom-metal/src/tty.c:28
}
20016378:	0001                	nop
2001637a:	40b2                	lw	ra,12(sp)
2001637c:	4422                	lw	s0,8(sp)
2001637e:	0141                	addi	sp,sp,16
20016380:	8082                	ret

20016382 <_exit>:
_exit():
F:/HiFive-IoT/Workspace/sifive-hifive1-revb-hello/freedom-metal/gloss/sys_exit.c:5
#include <metal/shutdown.h>

void
_exit(int exit_status)
{
20016382:	1101                	addi	sp,sp,-32
20016384:	ce06                	sw	ra,28(sp)
20016386:	cc22                	sw	s0,24(sp)
20016388:	1000                	addi	s0,sp,32
2001638a:	fea42623          	sw	a0,-20(s0)
F:/HiFive-IoT/Workspace/sifive-hifive1-revb-hello/freedom-metal/gloss/sys_exit.c:6
  metal_shutdown(exit_status);
2001638e:	fec42503          	lw	a0,-20(s0)
20016392:	898ff0ef          	jal	ra,2001542a <metal_shutdown>
